(lp0
S'/pnfs/uboone/data/uboone/larlite_opreco/prod_v08_00_00_01/data_extbnb_reco1_mcc9/extbnb_C2/00/00/73/93/larlite_opreco_a91af541-bab4-44af-99f6-ca622e4cb445.root'
p1
aS'/pnfs/uboone/data/uboone/larlite_opreco/prod_v08_00_00_01/data_extbnb_reco1_mcc9/extbnb_C2/00/00/74/00/larlite_opreco_aa7c05a9-291b-443a-ace3-a170a9a66698.root'
p2
aS'/pnfs/uboone/data/uboone/larlite_opreco/prod_v08_00_00_01/data_extbnb_reco1_mcc9/extbnb_C2/00/00/74/59/larlite_opreco_c6e6ec3e-6da0-417f-99d1-fd08f2eb9124.root'
p3
aS'/pnfs/uboone/data/uboone/larlite_opreco/prod_v08_00_00_01/data_extbnb_reco1_mcc9/extbnb_C2/00/00/74/42/larlite_opreco_70305ce0-ce27-4bff-b080-72f69263ef96.root'
p4
aS'/pnfs/uboone/data/uboone/larlite_opreco/prod_v08_00_00_01/data_extbnb_reco1_mcc9/extbnb_C2/00/00/74/37/larlite_opreco_66f12eda-2146-45ac-8b93-26cd8ff453fd.root'
p5
aS'/pnfs/uboone/data/uboone/larlite_opreco/prod_v08_00_00_01/data_extbnb_reco1_mcc9/extbnb_C2/00/00/74/00/larlite_opreco_6ef17e96-95ed-4e0c-bc88-0c3148b74581.root'
p6
aS'/pnfs/uboone/data/uboone/larlite_opreco/prod_v08_00_00_01/data_extbnb_reco1_mcc9/extbnb_C2/00/00/74/57/larlite_opreco_bf40d67b-072e-4b69-a5b1-5c4b1ff62d78.root'
p7
aS'/pnfs/uboone/data/uboone/larlite_opreco/prod_v08_00_00_01/data_extbnb_reco1_mcc9/extbnb_C2/00/00/74/42/larlite_opreco_4ab23a58-1d44-411c-85a6-c4cc278fa628.root'
p8
aS'/pnfs/uboone/data/uboone/larlite_opreco/prod_v08_00_00_01/data_extbnb_reco1_mcc9/extbnb_C2/00/00/73/49/larlite_opreco_a6064596-cba6-4f8b-8378-24f393ccdfc0.root'
p9
aS'/pnfs/uboone/data/uboone/larlite_opreco/prod_v08_00_00_01/data_extbnb_reco1_mcc9/extbnb_C2/00/00/74/56/larlite_opreco_4574c771-2a41-49da-b106-746596e9bbd4.root'
p10
aS'/pnfs/uboone/data/uboone/larlite_opreco/prod_v08_00_00_01/data_extbnb_reco1_mcc9/extbnb_C2/00/00/74/36/larlite_opreco_912847c0-6b0e-4561-815a-3394704c3139.root'
p11
aS'/pnfs/uboone/data/uboone/larlite_opreco/prod_v08_00_00_01/data_extbnb_reco1_mcc9/extbnb_C2/00/00/74/42/larlite_opreco_26afef5a-d0f4-4d1b-9033-8ad0846e50cc.root'
p12
aS'/pnfs/uboone/data/uboone/larlite_opreco/prod_v08_00_00_01/data_extbnb_reco1_mcc9/extbnb_C2/00/00/74/00/larlite_opreco_1ec85af8-47c2-4123-936d-08d175bf54d4.root'
p13
aS'/pnfs/uboone/data/uboone/larlite_opreco/prod_v08_00_00_01/data_extbnb_reco1_mcc9/extbnb_C2/00/00/73/93/larlite_opreco_6e8f53ec-e5c6-4d46-b21e-53ccfc11d06f.root'
p14
aS'/pnfs/uboone/data/uboone/larlite_opreco/prod_v08_00_00_01/data_extbnb_reco1_mcc9/extbnb_C2/00/00/73/91/larlite_opreco_e477964c-a3ec-4fad-ba36-6ef6dc2aa8e9.root'
p15
aS'/pnfs/uboone/data/uboone/larlite_opreco/prod_v08_00_00_01/data_extbnb_reco1_mcc9/extbnb_C2/00/00/74/58/larlite_opreco_cfc05f4f-5ea0-4493-94a1-9df574d2bfe3.root'
p16
aS'/pnfs/uboone/data/uboone/larlite_opreco/prod_v08_00_00_01/data_extbnb_reco1_mcc9/extbnb_C2/00/00/74/57/larlite_opreco_0090c8c0-1c6f-4f01-bb4e-4259d86ae57b.root'
p17
aS'/pnfs/uboone/data/uboone/larlite_opreco/prod_v08_00_00_01/data_extbnb_reco1_mcc9/extbnb_C2/00/00/73/98/larlite_opreco_c8d1e39a-8f5d-4645-bc75-928242e0517b.root'
p18
aS'/pnfs/uboone/data/uboone/larlite_opreco/prod_v08_00_00_01/data_extbnb_reco1_mcc9/extbnb_C2/00/00/74/34/larlite_opreco_5fc062fd-48cd-4257-a2b8-d733949075aa.root'
p19
aS'/pnfs/uboone/data/uboone/larlite_opreco/prod_v08_00_00_01/data_extbnb_reco1_mcc9/extbnb_C2/00/00/74/62/larlite_opreco_5241554e-4712-4ede-acb0-eaa5a0f2a657.root'
p20
aS'/pnfs/uboone/data/uboone/larlite_opreco/prod_v08_00_00_01/data_extbnb_reco1_mcc9/extbnb_C2/00/00/74/44/larlite_opreco_ae456d60-c583-48fe-8108-0d856e54e04c.root'
p21
aS'/pnfs/uboone/data/uboone/larlite_opreco/prod_v08_00_00_01/data_extbnb_reco1_mcc9/extbnb_C2/00/00/73/93/larlite_opreco_bf27a57e-5121-46e9-9691-f270aee1940c.root'
p22
aS'/pnfs/uboone/data/uboone/larlite_opreco/prod_v08_00_00_01/data_extbnb_reco1_mcc9/extbnb_C2/00/00/74/57/larlite_opreco_f65c1af2-9b38-49f7-92c4-8caa93100d15.root'
p23
aS'/pnfs/uboone/data/uboone/larlite_opreco/prod_v08_00_00_01/data_extbnb_reco1_mcc9/extbnb_C2/00/00/74/59/larlite_opreco_3401aa7f-72d4-47b1-b884-5db03dc78f74.root'
p24
aS'/pnfs/uboone/data/uboone/larlite_opreco/prod_v08_00_00_01/data_extbnb_reco1_mcc9/extbnb_C2/00/00/74/42/larlite_opreco_59e2dd33-c867-4d9a-ac7c-1c324d5a705c.root'
p25
aS'/pnfs/uboone/data/uboone/larlite_opreco/prod_v08_00_00_01/data_extbnb_reco1_mcc9/extbnb_C2/00/00/74/38/larlite_opreco_8eeaabdd-9370-4311-b66a-ad07047c5506.root'
p26
aS'/pnfs/uboone/data/uboone/larlite_opreco/prod_v08_00_00_01/data_extbnb_reco1_mcc9/extbnb_C2/00/00/74/00/larlite_opreco_0e313893-4a92-4439-8b83-e00e1946ebaf.root'
p27
aS'/pnfs/uboone/data/uboone/larlite_opreco/prod_v08_00_00_01/data_extbnb_reco1_mcc9/extbnb_C2/00/00/74/41/larlite_opreco_26140eed-e296-4817-83f1-eca02af10635.root'
p28
aS'/pnfs/uboone/data/uboone/larlite_opreco/prod_v08_00_00_01/data_extbnb_reco1_mcc9/extbnb_C2/00/00/74/00/larlite_opreco_4b45e3da-4587-4026-9d22-08f6a06910f0.root'
p29
aS'/pnfs/uboone/data/uboone/larlite_opreco/prod_v08_00_00_01/data_extbnb_reco1_mcc9/extbnb_C2/00/00/73/93/larlite_opreco_177b7515-efc2-44ef-ae30-30c4418441c4.root'
p30
aS'/pnfs/uboone/data/uboone/larlite_opreco/prod_v08_00_00_01/data_extbnb_reco1_mcc9/extbnb_C2/00/00/73/91/larlite_opreco_35318ab7-c572-4c3f-bba2-109cfcd1b0eb.root'
p31
aS'/pnfs/uboone/data/uboone/larlite_opreco/prod_v08_00_00_01/data_extbnb_reco1_mcc9/extbnb_C2/00/00/74/44/larlite_opreco_b1773766-38b6-406d-a3f5-ef9e02ece1f7.root'
p32
aS'/pnfs/uboone/data/uboone/larlite_opreco/prod_v08_00_00_01/data_extbnb_reco1_mcc9/extbnb_C2/00/00/74/57/larlite_opreco_aded2991-803b-4b8b-84d4-5a970ce1b5c6.root'
p33
aS'/pnfs/uboone/data/uboone/larlite_opreco/prod_v08_00_00_01/data_extbnb_reco1_mcc9/extbnb_C2/00/00/74/61/larlite_opreco_52c71394-1b3c-4ed6-b633-8ffc4925adf6.root'
p34
aS'/pnfs/uboone/data/uboone/larlite_opreco/prod_v08_00_00_01/data_extbnb_reco1_mcc9/extbnb_C2/00/00/74/59/larlite_opreco_33c283a0-7160-43bf-8e10-8617b308bf33.root'
p35
aS'/pnfs/uboone/data/uboone/larlite_opreco/prod_v08_00_00_01/data_extbnb_reco1_mcc9/extbnb_C2/00/00/74/57/larlite_opreco_e43a5b53-b8f6-4f51-b4fa-07b0b7ed17a3.root'
p36
aS'/pnfs/uboone/data/uboone/larlite_opreco/prod_v08_00_00_01/data_extbnb_reco1_mcc9/extbnb_C2/00/00/73/94/larlite_opreco_41797a0c-458b-432f-9375-b0a252c13082.root'
p37
aS'/pnfs/uboone/data/uboone/larlite_opreco/prod_v08_00_00_01/data_extbnb_reco1_mcc9/extbnb_C2/00/00/74/57/larlite_opreco_7eb4b4a5-ad47-4294-8bce-a264dee888b5.root'
p38
aS'/pnfs/uboone/data/uboone/larlite_opreco/prod_v08_00_00_01/data_extbnb_reco1_mcc9/extbnb_C2/00/00/74/42/larlite_opreco_580d11a1-d883-4d89-89a8-52c1c6c3c429.root'
p39
aS'/pnfs/uboone/data/uboone/larlite_opreco/prod_v08_00_00_01/data_extbnb_reco1_mcc9/extbnb_C2/00/00/74/44/larlite_opreco_177fb834-c2e4-40ea-a776-30e072e1f1df.root'
p40
aS'/pnfs/uboone/data/uboone/larlite_opreco/prod_v08_00_00_01/data_extbnb_reco1_mcc9/extbnb_C2/00/00/74/42/larlite_opreco_01a907b6-43fe-4c98-b9e3-2fae9abf6128.root'
p41
aS'/pnfs/uboone/data/uboone/larlite_opreco/prod_v08_00_00_01/data_extbnb_reco1_mcc9/extbnb_C2/00/00/74/40/larlite_opreco_45928af6-12a9-44e7-be2e-975ae8917c94.root'
p42
aS'/pnfs/uboone/data/uboone/larlite_opreco/prod_v08_00_00_01/data_extbnb_reco1_mcc9/extbnb_C2/00/00/74/58/larlite_opreco_fd53e714-902a-4060-a907-e50b996a9b0e.root'
p43
aS'/pnfs/uboone/data/uboone/larlite_opreco/prod_v08_00_00_01/data_extbnb_reco1_mcc9/extbnb_C2/00/00/74/57/larlite_opreco_01acc338-d448-4c65-bcac-604150e29d54.root'
p44
aS'/pnfs/uboone/data/uboone/larlite_opreco/prod_v08_00_00_01/data_extbnb_reco1_mcc9/extbnb_C2/00/00/74/57/larlite_opreco_2da11184-d997-4fdf-9922-a026f858d360.root'
p45
aS'/pnfs/uboone/data/uboone/larlite_opreco/prod_v08_00_00_01/data_extbnb_reco1_mcc9/extbnb_C2/00/00/74/44/larlite_opreco_015cacab-a9c3-400b-9b77-d27d44beed93.root'
p46
aS'/pnfs/uboone/data/uboone/larlite_opreco/prod_v08_00_00_01/data_extbnb_reco1_mcc9/extbnb_C2/00/00/74/42/larlite_opreco_80909eaa-128c-4507-b157-1f77b0c94f7d.root'
p47
aS'/pnfs/uboone/data/uboone/larlite_opreco/prod_v08_00_00_01/data_extbnb_reco1_mcc9/extbnb_C2/00/00/73/98/larlite_opreco_48f12498-8939-45f2-bb41-4942a2707df1.root'
p48
aS'/pnfs/uboone/data/uboone/larlite_opreco/prod_v08_00_00_01/data_extbnb_reco1_mcc9/extbnb_C2/00/00/74/42/larlite_opreco_6c366826-cf5e-45c7-a912-cd2dc557ed98.root'
p49
aS'/pnfs/uboone/data/uboone/larlite_opreco/prod_v08_00_00_01/data_extbnb_reco1_mcc9/extbnb_C2/00/00/74/03/larlite_opreco_4824558d-cd28-4933-a1a4-55994e45ab6a.root'
p50
aS'/pnfs/uboone/data/uboone/larlite_opreco/prod_v08_00_00_01/data_extbnb_reco1_mcc9/extbnb_C2/00/00/74/00/larlite_opreco_5d16290a-2b93-41de-9ea2-3d700c7e6d13.root'
p51
aS'/pnfs/uboone/data/uboone/larlite_opreco/prod_v08_00_00_01/data_extbnb_reco1_mcc9/extbnb_C2/00/00/74/40/larlite_opreco_a193df87-0edd-445a-bc91-b9d0b2bb6f54.root'
p52
aS'/pnfs/uboone/data/uboone/larlite_opreco/prod_v08_00_00_01/data_extbnb_reco1_mcc9/extbnb_C2/00/00/74/65/larlite_opreco_10bcc3f9-5e31-46e2-8822-4a15cd5d9eea.root'
p53
aS'/pnfs/uboone/data/uboone/larlite_opreco/prod_v08_00_00_01/data_extbnb_reco1_mcc9/extbnb_C2/00/00/73/93/larlite_opreco_69b03f34-ffd4-4ac0-84e0-856eb4f11393.root'
p54
aS'/pnfs/uboone/data/uboone/larlite_opreco/prod_v08_00_00_01/data_extbnb_reco1_mcc9/extbnb_C2/00/00/74/42/larlite_opreco_e210a416-e842-47e6-9735-81fdd6fd2bf7.root'
p55
aS'/pnfs/uboone/data/uboone/larlite_opreco/prod_v08_00_00_01/data_extbnb_reco1_mcc9/extbnb_C2/00/00/73/98/larlite_opreco_56e611d7-01a7-4c5d-84df-0b30edb4186b.root'
p56
aS'/pnfs/uboone/data/uboone/larlite_opreco/prod_v08_00_00_01/data_extbnb_reco1_mcc9/extbnb_C2/00/00/73/49/larlite_opreco_969dfd6e-1267-4735-95bc-d11d52db1a90.root'
p57
aS'/pnfs/uboone/data/uboone/larlite_opreco/prod_v08_00_00_01/data_extbnb_reco1_mcc9/extbnb_C2/00/00/74/34/larlite_opreco_00cc75ad-d727-45eb-9a60-c3d96f8218b5.root'
p58
aS'/pnfs/uboone/data/uboone/larlite_opreco/prod_v08_00_00_01/data_extbnb_reco1_mcc9/extbnb_C2/00/00/74/41/larlite_opreco_821a487c-1823-45b9-86fc-d6958ce6a2b9.root'
p59
aS'/pnfs/uboone/data/uboone/larlite_opreco/prod_v08_00_00_01/data_extbnb_reco1_mcc9/extbnb_C2/00/00/74/36/larlite_opreco_db19b2c5-f93e-4d30-9209-e25f340913e6.root'
p60
aS'/pnfs/uboone/data/uboone/larlite_opreco/prod_v08_00_00_01/data_extbnb_reco1_mcc9/extbnb_C2/00/00/74/61/larlite_opreco_b7c336c5-3aa9-4a4d-b213-41564e1947c5.root'
p61
aS'/pnfs/uboone/data/uboone/larlite_opreco/prod_v08_00_00_01/data_extbnb_reco1_mcc9/extbnb_C2/00/00/74/00/larlite_opreco_2ec36648-deda-4b2f-9f1d-2cbddff70f15.root'
p62
aS'/pnfs/uboone/data/uboone/larlite_opreco/prod_v08_00_00_01/data_extbnb_reco1_mcc9/extbnb_C2/00/00/74/40/larlite_opreco_2b9a5652-5ec7-413b-9ba5-6677305ab6ba.root'
p63
aS'/pnfs/uboone/data/uboone/larlite_opreco/prod_v08_00_00_01/data_extbnb_reco1_mcc9/extbnb_C2/00/00/74/36/larlite_opreco_d05eba7d-364a-478e-bf6a-9edde99391dc.root'
p64
aS'/pnfs/uboone/data/uboone/larlite_opreco/prod_v08_00_00_01/data_extbnb_reco1_mcc9/extbnb_C2/00/00/73/49/larlite_opreco_af926f5d-1b31-452a-baaf-f4e74c95cfb1.root'
p65
aS'/pnfs/uboone/data/uboone/larlite_opreco/prod_v08_00_00_01/data_extbnb_reco1_mcc9/extbnb_C2/00/00/73/93/larlite_opreco_b3bc9e1c-63cf-4d26-901d-2ecafb491532.root'
p66
aS'/pnfs/uboone/data/uboone/larlite_opreco/prod_v08_00_00_01/data_extbnb_reco1_mcc9/extbnb_C2/00/00/73/92/larlite_opreco_d3d5fb71-7ee2-4af3-8589-dfc63e8a61b5.root'
p67
aS'/pnfs/uboone/data/uboone/larlite_opreco/prod_v08_00_00_01/data_extbnb_reco1_mcc9/extbnb_C2/00/00/74/57/larlite_opreco_be2ba0ec-fd3f-41b6-bc5d-53f0ec1384a9.root'
p68
aS'/pnfs/uboone/data/uboone/larlite_opreco/prod_v08_00_00_01/data_extbnb_reco1_mcc9/extbnb_C2/00/00/73/49/larlite_opreco_c46f6193-61d1-4b42-b17d-08c2071436a0.root'
p69
aS'/pnfs/uboone/data/uboone/larlite_opreco/prod_v08_00_00_01/data_extbnb_reco1_mcc9/extbnb_C2/00/00/74/57/larlite_opreco_63f20081-1e94-42d8-91c5-53f55b6634e2.root'
p70
aS'/pnfs/uboone/data/uboone/larlite_opreco/prod_v08_00_00_01/data_extbnb_reco1_mcc9/extbnb_C2/00/00/74/00/larlite_opreco_88406d80-4d27-4ab2-9bbc-60f212a491ae.root'
p71
aS'/pnfs/uboone/data/uboone/larlite_opreco/prod_v08_00_00_01/data_extbnb_reco1_mcc9/extbnb_C2/00/00/73/91/larlite_opreco_89d872e0-fbdf-4191-a374-5a891957fa93.root'
p72
aS'/pnfs/uboone/data/uboone/larlite_opreco/prod_v08_00_00_01/data_extbnb_reco1_mcc9/extbnb_C2/00/00/74/57/larlite_opreco_98532a08-af07-4933-a133-d86ef28c859b.root'
p73
aS'/pnfs/uboone/data/uboone/larlite_opreco/prod_v08_00_00_01/data_extbnb_reco1_mcc9/extbnb_C2/00/00/74/61/larlite_opreco_f7fb953f-fc40-4bf1-b43d-b76b69ea5149.root'
p74
aS'/pnfs/uboone/data/uboone/larlite_opreco/prod_v08_00_00_01/data_extbnb_reco1_mcc9/extbnb_C2/00/00/74/56/larlite_opreco_9debc676-8197-448f-aa10-fd4f67a210e2.root'
p75
aS'/pnfs/uboone/data/uboone/larlite_opreco/prod_v08_00_00_01/data_extbnb_reco1_mcc9/extbnb_C2/00/00/74/40/larlite_opreco_093f4060-8312-4c16-a1a1-6f4341062558.root'
p76
aS'/pnfs/uboone/data/uboone/larlite_opreco/prod_v08_00_00_01/data_extbnb_reco1_mcc9/extbnb_C2/00/00/74/00/larlite_opreco_58737efd-2faf-4584-9594-2a2bf2c83600.root'
p77
aS'/pnfs/uboone/data/uboone/larlite_opreco/prod_v08_00_00_01/data_extbnb_reco1_mcc9/extbnb_C2/00/00/74/42/larlite_opreco_6d291939-b96d-4206-9f0f-59a47879e0a5.root'
p78
aS'/pnfs/uboone/data/uboone/larlite_opreco/prod_v08_00_00_01/data_extbnb_reco1_mcc9/extbnb_C2/00/00/74/00/larlite_opreco_0739881c-4364-4438-b2d4-4889a3134971.root'
p79
aS'/pnfs/uboone/data/uboone/larlite_opreco/prod_v08_00_00_01/data_extbnb_reco1_mcc9/extbnb_C2/00/00/74/42/larlite_opreco_c7f5f8c2-dc6d-45c2-9735-a399b5e4f9f4.root'
p80
aS'/pnfs/uboone/data/uboone/larlite_opreco/prod_v08_00_00_01/data_extbnb_reco1_mcc9/extbnb_C2/00/00/74/57/larlite_opreco_7d6cd3eb-a1a4-4d19-84f3-8554943d9eff.root'
p81
aS'/pnfs/uboone/data/uboone/larlite_opreco/prod_v08_00_00_01/data_extbnb_reco1_mcc9/extbnb_C2/00/00/74/57/larlite_opreco_a875e523-4d03-4f27-a9a6-5ddc90c58ca1.root'
p82
aS'/pnfs/uboone/data/uboone/larlite_opreco/prod_v08_00_00_01/data_extbnb_reco1_mcc9/extbnb_C2/00/00/73/93/larlite_opreco_8cfabd32-8f31-4b88-9501-e12b4fd9edcc.root'
p83
aS'/pnfs/uboone/data/uboone/larlite_opreco/prod_v08_00_00_01/data_extbnb_reco1_mcc9/extbnb_C2/00/00/74/57/larlite_opreco_92bc22ee-e86d-496e-bc7a-d5a73bbb4176.root'
p84
aS'/pnfs/uboone/data/uboone/larlite_opreco/prod_v08_00_00_01/data_extbnb_reco1_mcc9/extbnb_C2/00/00/74/56/larlite_opreco_5a5d9108-d6cc-441c-a6d2-596d9d472cf1.root'
p85
aS'/pnfs/uboone/data/uboone/larlite_opreco/prod_v08_00_00_01/data_extbnb_reco1_mcc9/extbnb_C2/00/00/74/57/larlite_opreco_fd336959-7ead-4899-a69e-1f9cb52c8af3.root'
p86
aS'/pnfs/uboone/data/uboone/larlite_opreco/prod_v08_00_00_01/data_extbnb_reco1_mcc9/extbnb_C2/00/00/74/57/larlite_opreco_8b4809e4-05c8-436e-a357-cfd82b742aa1.root'
p87
aS'/pnfs/uboone/data/uboone/larlite_opreco/prod_v08_00_00_01/data_extbnb_reco1_mcc9/extbnb_C2/00/00/74/55/larlite_opreco_387ceed6-64f8-4d85-851f-af0fb01c0c71.root'
p88
aS'/pnfs/uboone/data/uboone/larlite_opreco/prod_v08_00_00_01/data_extbnb_reco1_mcc9/extbnb_C2/00/00/73/91/larlite_opreco_037d3f2e-4736-482c-a532-5d255ff98124.root'
p89
aS'/pnfs/uboone/data/uboone/larlite_opreco/prod_v08_00_00_01/data_extbnb_reco1_mcc9/extbnb_C2/00/00/74/42/larlite_opreco_662c73c2-da90-4cc1-9ff9-46575bdddb74.root'
p90
aS'/pnfs/uboone/data/uboone/larlite_opreco/prod_v08_00_00_01/data_extbnb_reco1_mcc9/extbnb_C2/00/00/74/44/larlite_opreco_bf78edf9-27c5-4d76-8cbb-b5237aa3e4ad.root'
p91
aS'/pnfs/uboone/data/uboone/larlite_opreco/prod_v08_00_00_01/data_extbnb_reco1_mcc9/extbnb_C2/00/00/74/42/larlite_opreco_4fbad1a1-5c99-4144-9100-0b44b99046b7.root'
p92
aS'/pnfs/uboone/data/uboone/larlite_opreco/prod_v08_00_00_01/data_extbnb_reco1_mcc9/extbnb_C2/00/00/74/57/larlite_opreco_dfde5838-d8b8-448a-a0bc-2c51f734678e.root'
p93
aS'/pnfs/uboone/data/uboone/larlite_opreco/prod_v08_00_00_01/data_extbnb_reco1_mcc9/extbnb_C2/00/00/74/55/larlite_opreco_546aa01a-c002-462a-8b6f-7ab821256126.root'
p94
aS'/pnfs/uboone/data/uboone/larlite_opreco/prod_v08_00_00_01/data_extbnb_reco1_mcc9/extbnb_C2/00/00/74/00/larlite_opreco_8e63b2b0-99cb-42b6-9a11-9fb83911a6f1.root'
p95
aS'/pnfs/uboone/data/uboone/larlite_opreco/prod_v08_00_00_01/data_extbnb_reco1_mcc9/extbnb_C2/00/00/73/49/larlite_opreco_f7960d78-2815-4583-b9aa-5e430430176f.root'
p96
aS'/pnfs/uboone/data/uboone/larlite_opreco/prod_v08_00_00_01/data_extbnb_reco1_mcc9/extbnb_C2/00/00/74/55/larlite_opreco_6bc9eba6-e6a0-4773-b3e5-8d4e159b1b21.root'
p97
aS'/pnfs/uboone/data/uboone/larlite_opreco/prod_v08_00_00_01/data_extbnb_reco1_mcc9/extbnb_C2/00/00/74/41/larlite_opreco_33deb5e3-4b5f-408a-a047-a6963902bb82.root'
p98
aS'/pnfs/uboone/data/uboone/larlite_opreco/prod_v08_00_00_01/data_extbnb_reco1_mcc9/extbnb_C2/00/00/74/00/larlite_opreco_28ae8442-c434-49ba-af03-08b107bb83e0.root'
p99
aS'/pnfs/uboone/data/uboone/larlite_opreco/prod_v08_00_00_01/data_extbnb_reco1_mcc9/extbnb_C2/00/00/74/41/larlite_opreco_d922b6e8-2aef-4b58-a0db-eb0e129aae47.root'
p100
aS'/pnfs/uboone/data/uboone/larlite_opreco/prod_v08_00_00_01/data_extbnb_reco1_mcc9/extbnb_C2/00/00/73/49/larlite_opreco_4cee6219-c90a-4dc7-a2f5-6dede73a7149.root'
p101
aS'/pnfs/uboone/data/uboone/larlite_opreco/prod_v08_00_00_01/data_extbnb_reco1_mcc9/extbnb_C2/00/00/74/00/larlite_opreco_2febf90c-03af-4414-b831-3cbdd909865b.root'
p102
aS'/pnfs/uboone/data/uboone/larlite_opreco/prod_v08_00_00_01/data_extbnb_reco1_mcc9/extbnb_C2/00/00/74/57/larlite_opreco_a5f2217c-a118-4db6-9a9f-dd78c8985bf4.root'
p103
aS'/pnfs/uboone/data/uboone/larlite_opreco/prod_v08_00_00_01/data_extbnb_reco1_mcc9/extbnb_C2/00/00/74/03/larlite_opreco_11c6b568-993c-4e89-bd23-c33abb7d5ae1.root'
p104
aS'/pnfs/uboone/data/uboone/larlite_opreco/prod_v08_00_00_01/data_extbnb_reco1_mcc9/extbnb_C2/00/00/74/00/larlite_opreco_31cf53cb-8eb9-49b3-98f0-1b86c1782542.root'
p105
aS'/pnfs/uboone/data/uboone/larlite_opreco/prod_v08_00_00_01/data_extbnb_reco1_mcc9/extbnb_C2/00/00/73/98/larlite_opreco_b647ec4c-48f7-427b-a2d9-ae0c874ced6f.root'
p106
aS'/pnfs/uboone/data/uboone/larlite_opreco/prod_v08_00_00_01/data_extbnb_reco1_mcc9/extbnb_C2/00/00/74/58/larlite_opreco_554c381d-bce0-4fa4-848a-7d451a98833b.root'
p107
aS'/pnfs/uboone/data/uboone/larlite_opreco/prod_v08_00_00_01/data_extbnb_reco1_mcc9/extbnb_C2/00/00/74/42/larlite_opreco_b7cf6d04-2982-438b-a114-c7477db354c3.root'
p108
aS'/pnfs/uboone/data/uboone/larlite_opreco/prod_v08_00_00_01/data_extbnb_reco1_mcc9/extbnb_C2/00/00/73/93/larlite_opreco_871996d1-bc6a-4ff6-9d80-7bf9b3dded2f.root'
p109
aS'/pnfs/uboone/data/uboone/larlite_opreco/prod_v08_00_00_01/data_extbnb_reco1_mcc9/extbnb_C2/00/00/73/98/larlite_opreco_8a066bc1-797b-480a-bce4-e57b7938267d.root'
p110
aS'/pnfs/uboone/data/uboone/larlite_opreco/prod_v08_00_00_01/data_extbnb_reco1_mcc9/extbnb_C2/00/00/74/38/larlite_opreco_1716c4db-2ddd-4189-8ef6-b280561764c4.root'
p111
aS'/pnfs/uboone/data/uboone/larlite_opreco/prod_v08_00_00_01/data_extbnb_reco1_mcc9/extbnb_C2/00/00/74/36/larlite_opreco_04e6a9a1-a928-4dd8-bf3c-cc1536f561c6.root'
p112
aS'/pnfs/uboone/data/uboone/larlite_opreco/prod_v08_00_00_01/data_extbnb_reco1_mcc9/extbnb_C2/00/00/73/91/larlite_opreco_a3897de5-23b1-47b1-977c-75f4d5d27795.root'
p113
aS'/pnfs/uboone/data/uboone/larlite_opreco/prod_v08_00_00_01/data_extbnb_reco1_mcc9/extbnb_C2/00/00/74/44/larlite_opreco_a2885eeb-d52e-4005-849f-be3f28668128.root'
p114
aS'/pnfs/uboone/data/uboone/larlite_opreco/prod_v08_00_00_01/data_extbnb_reco1_mcc9/extbnb_C2/00/00/74/61/larlite_opreco_8e8c89ce-01ec-4c1a-acb4-3ae35e1c81d1.root'
p115
aS'/pnfs/uboone/data/uboone/larlite_opreco/prod_v08_00_00_01/data_extbnb_reco1_mcc9/extbnb_C2/00/00/73/92/larlite_opreco_5853e739-b43e-48ad-a979-fb7f9181b690.root'
p116
aS'/pnfs/uboone/data/uboone/larlite_opreco/prod_v08_00_00_01/data_extbnb_reco1_mcc9/extbnb_C2/00/00/74/59/larlite_opreco_d52dd7c4-abb0-4873-ad0f-244b4ea6c231.root'
p117
aS'/pnfs/uboone/data/uboone/larlite_opreco/prod_v08_00_00_01/data_extbnb_reco1_mcc9/extbnb_C2/00/00/73/93/larlite_opreco_0919ca93-74ba-42b4-9526-ee250c61ee96.root'
p118
aS'/pnfs/uboone/data/uboone/larlite_opreco/prod_v08_00_00_01/data_extbnb_reco1_mcc9/extbnb_C2/00/00/74/40/larlite_opreco_f8808eee-0d5f-4edd-a7ac-5b1a0797418d.root'
p119
aS'/pnfs/uboone/data/uboone/larlite_opreco/prod_v08_00_00_01/data_extbnb_reco1_mcc9/extbnb_C2/00/00/74/42/larlite_opreco_1bc79c91-ae85-452e-8c6e-313ea8856ef7.root'
p120
aS'/pnfs/uboone/data/uboone/larlite_opreco/prod_v08_00_00_01/data_extbnb_reco1_mcc9/extbnb_C2/00/00/74/43/larlite_opreco_1e031498-40fc-46dd-b1f8-be878366ad90.root'
p121
aS'/pnfs/uboone/data/uboone/larlite_opreco/prod_v08_00_00_01/data_extbnb_reco1_mcc9/extbnb_C2/00/00/74/44/larlite_opreco_e78ebb1e-81c6-4aa5-932d-74abfb516a17.root'
p122
aS'/pnfs/uboone/data/uboone/larlite_opreco/prod_v08_00_00_01/data_extbnb_reco1_mcc9/extbnb_C2/00/00/74/57/larlite_opreco_112a1c7c-0f6d-482d-a48b-7e78e5b20f61.root'
p123
aS'/pnfs/uboone/data/uboone/larlite_opreco/prod_v08_00_00_01/data_extbnb_reco1_mcc9/extbnb_C2/00/00/74/57/larlite_opreco_36c6a0e3-7d0c-4473-9c5a-39ee61342ed8.root'
p124
aS'/pnfs/uboone/data/uboone/larlite_opreco/prod_v08_00_00_01/data_extbnb_reco1_mcc9/extbnb_C2/00/00/73/49/larlite_opreco_7b0172dd-d241-4863-900b-5d89656070fe.root'
p125
aS'/pnfs/uboone/data/uboone/larlite_opreco/prod_v08_00_00_01/data_extbnb_reco1_mcc9/extbnb_C2/00/00/74/42/larlite_opreco_0b62f66e-88ad-4bff-b55d-2174077a6555.root'
p126
aS'/pnfs/uboone/data/uboone/larlite_opreco/prod_v08_00_00_01/data_extbnb_reco1_mcc9/extbnb_C2/00/00/73/92/larlite_opreco_aa201c5b-33d8-4cdc-87b8-48e8800c5b7c.root'
p127
aS'/pnfs/uboone/data/uboone/larlite_opreco/prod_v08_00_00_01/data_extbnb_reco1_mcc9/extbnb_C2/00/00/74/36/larlite_opreco_7dfc64d4-758b-44be-9397-e463b0efbeb6.root'
p128
aS'/pnfs/uboone/data/uboone/larlite_opreco/prod_v08_00_00_01/data_extbnb_reco1_mcc9/extbnb_C2/00/00/73/93/larlite_opreco_6c31069e-f479-4c92-a890-428adb0420f8.root'
p129
aS'/pnfs/uboone/data/uboone/larlite_opreco/prod_v08_00_00_01/data_extbnb_reco1_mcc9/extbnb_C2/00/00/74/57/larlite_opreco_baf45c99-b6c7-466e-aec2-5ff0f83484f4.root'
p130
aS'/pnfs/uboone/data/uboone/larlite_opreco/prod_v08_00_00_01/data_extbnb_reco1_mcc9/extbnb_C2/00/00/74/64/larlite_opreco_ab8b424a-fda0-4951-991f-d6194c45dcc0.root'
p131
aS'/pnfs/uboone/data/uboone/larlite_opreco/prod_v08_00_00_01/data_extbnb_reco1_mcc9/extbnb_C2/00/00/74/56/larlite_opreco_ab0874ac-d731-401a-bb83-229278c24589.root'
p132
aS'/pnfs/uboone/data/uboone/larlite_opreco/prod_v08_00_00_01/data_extbnb_reco1_mcc9/extbnb_C2/00/00/73/93/larlite_opreco_4c756df0-c944-4515-b20f-889284639291.root'
p133
aS'/pnfs/uboone/data/uboone/larlite_opreco/prod_v08_00_00_01/data_extbnb_reco1_mcc9/extbnb_C2/00/00/74/57/larlite_opreco_6a55a0a0-4a79-4280-849b-b19b14084687.root'
p134
aS'/pnfs/uboone/data/uboone/larlite_opreco/prod_v08_00_00_01/data_extbnb_reco1_mcc9/extbnb_C2/00/00/74/41/larlite_opreco_31641f75-f213-4db5-8d48-95cae07c4e0c.root'
p135
aS'/pnfs/uboone/data/uboone/larlite_opreco/prod_v08_00_00_01/data_extbnb_reco1_mcc9/extbnb_C2/00/00/74/59/larlite_opreco_038868ba-6044-4954-bb38-879d202b586f.root'
p136
aS'/pnfs/uboone/data/uboone/larlite_opreco/prod_v08_00_00_01/data_extbnb_reco1_mcc9/extbnb_C2/00/00/74/00/larlite_opreco_a90c3c44-05c1-4c88-99ea-d4a6cb051b13.root'
p137
aS'/pnfs/uboone/data/uboone/larlite_opreco/prod_v08_00_00_01/data_extbnb_reco1_mcc9/extbnb_C2/00/00/74/00/larlite_opreco_8a8ee0cb-d759-4315-80c2-e7534ddd4255.root'
p138
aS'/pnfs/uboone/data/uboone/larlite_opreco/prod_v08_00_00_01/data_extbnb_reco1_mcc9/extbnb_C2/00/00/74/61/larlite_opreco_5466cb19-5914-49dc-9aef-e3ff023c6cd3.root'
p139
aS'/pnfs/uboone/data/uboone/larlite_opreco/prod_v08_00_00_01/data_extbnb_reco1_mcc9/extbnb_C2/00/00/74/57/larlite_opreco_c97fa2fd-60aa-476d-af9c-af51b08c9750.root'
p140
aS'/pnfs/uboone/data/uboone/larlite_opreco/prod_v08_00_00_01/data_extbnb_reco1_mcc9/extbnb_C2/00/00/73/94/larlite_opreco_25a30982-8297-42de-928f-5362cd9ee368.root'
p141
aS'/pnfs/uboone/data/uboone/larlite_opreco/prod_v08_00_00_01/data_extbnb_reco1_mcc9/extbnb_C2/00/00/73/98/larlite_opreco_304eef11-11bd-4e3c-bfc7-c279084dc9c9.root'
p142
aS'/pnfs/uboone/data/uboone/larlite_opreco/prod_v08_00_00_01/data_extbnb_reco1_mcc9/extbnb_C2/00/00/73/93/larlite_opreco_6aa59956-3a4e-4e5d-81ab-45e5ab89982e.root'
p143
aS'/pnfs/uboone/data/uboone/larlite_opreco/prod_v08_00_00_01/data_extbnb_reco1_mcc9/extbnb_C2/00/00/73/98/larlite_opreco_696be811-420d-47ef-a652-80bf9f026f98.root'
p144
aS'/pnfs/uboone/data/uboone/larlite_opreco/prod_v08_00_00_01/data_extbnb_reco1_mcc9/extbnb_C2/00/00/73/91/larlite_opreco_18bae2ec-f8ab-48a6-b6b1-2fb882ffab14.root'
p145
aS'/pnfs/uboone/data/uboone/larlite_opreco/prod_v08_00_00_01/data_extbnb_reco1_mcc9/extbnb_C2/00/00/73/94/larlite_opreco_b23ae2b1-22e8-4cf2-b34c-ff1c20a398e4.root'
p146
aS'/pnfs/uboone/data/uboone/larlite_opreco/prod_v08_00_00_01/data_extbnb_reco1_mcc9/extbnb_C2/00/00/74/57/larlite_opreco_b1b5f970-1c4e-4a27-a1f5-ba33a8b3ee88.root'
p147
aS'/pnfs/uboone/data/uboone/larlite_opreco/prod_v08_00_00_01/data_extbnb_reco1_mcc9/extbnb_C2/00/00/74/57/larlite_opreco_279a0825-0d05-4a0c-9d89-2cf4cca75f51.root'
p148
aS'/pnfs/uboone/data/uboone/larlite_opreco/prod_v08_00_00_01/data_extbnb_reco1_mcc9/extbnb_C2/00/00/74/55/larlite_opreco_2eeb0f99-39f7-45f9-a93f-8e73e57211ed.root'
p149
aS'/pnfs/uboone/data/uboone/larlite_opreco/prod_v08_00_00_01/data_extbnb_reco1_mcc9/extbnb_C2/00/00/74/57/larlite_opreco_07e759a7-b10f-44f3-af6c-4a500b4f0c45.root'
p150
aS'/pnfs/uboone/data/uboone/larlite_opreco/prod_v08_00_00_01/data_extbnb_reco1_mcc9/extbnb_C2/00/00/74/42/larlite_opreco_b9a48758-fd4c-4a41-a8dc-eeb116801c2d.root'
p151
aS'/pnfs/uboone/data/uboone/larlite_opreco/prod_v08_00_00_01/data_extbnb_reco1_mcc9/extbnb_C2/00/00/74/57/larlite_opreco_d32e9ef5-1002-40b0-8b88-0c37003ea601.root'
p152
aS'/pnfs/uboone/data/uboone/larlite_opreco/prod_v08_00_00_01/data_extbnb_reco1_mcc9/extbnb_C2/00/00/74/64/larlite_opreco_2e230ba5-44f5-499c-a76b-cf3b289d3f86.root'
p153
aS'/pnfs/uboone/data/uboone/larlite_opreco/prod_v08_00_00_01/data_extbnb_reco1_mcc9/extbnb_C2/00/00/74/57/larlite_opreco_dce6806a-f599-43fc-a5c4-5c392f4cb447.root'
p154
aS'/pnfs/uboone/data/uboone/larlite_opreco/prod_v08_00_00_01/data_extbnb_reco1_mcc9/extbnb_C2/00/00/74/42/larlite_opreco_6b4f1075-c570-4902-93ef-dd605f028140.root'
p155
aS'/pnfs/uboone/data/uboone/larlite_opreco/prod_v08_00_00_01/data_extbnb_reco1_mcc9/extbnb_C2/00/00/74/03/larlite_opreco_07df47fe-f172-4b7a-b37d-1f647425e3a3.root'
p156
aS'/pnfs/uboone/data/uboone/larlite_opreco/prod_v08_00_00_01/data_extbnb_reco1_mcc9/extbnb_C2/00/00/73/92/larlite_opreco_aa7c9470-1ab4-4306-8d78-3471aa265b2b.root'
p157
aS'/pnfs/uboone/data/uboone/larlite_opreco/prod_v08_00_00_01/data_extbnb_reco1_mcc9/extbnb_C2/00/00/74/61/larlite_opreco_602e3c09-bd66-4ff8-b41c-ee97b3112736.root'
p158
aS'/pnfs/uboone/data/uboone/larlite_opreco/prod_v08_00_00_01/data_extbnb_reco1_mcc9/extbnb_C2/00/00/74/63/larlite_opreco_b9080c0f-5582-4728-8945-64abcfeba362.root'
p159
aS'/pnfs/uboone/data/uboone/larlite_opreco/prod_v08_00_00_01/data_extbnb_reco1_mcc9/extbnb_C2/00/00/74/57/larlite_opreco_4f6ef607-7482-4149-b721-f0efc6623ebf.root'
p160
aS'/pnfs/uboone/data/uboone/larlite_opreco/prod_v08_00_00_01/data_extbnb_reco1_mcc9/extbnb_C2/00/00/74/03/larlite_opreco_de9bdd70-a0e5-4323-8561-889b1a193ab5.root'
p161
aS'/pnfs/uboone/data/uboone/larlite_opreco/prod_v08_00_00_01/data_extbnb_reco1_mcc9/extbnb_C2/00/00/74/61/larlite_opreco_05603329-a7e3-425b-804e-1ca6f6add45d.root'
p162
aS'/pnfs/uboone/data/uboone/larlite_opreco/prod_v08_00_00_01/data_extbnb_reco1_mcc9/extbnb_C2/00/00/73/49/larlite_opreco_583e35e7-c98c-40d6-9f6e-a1e6d7d46bea.root'
p163
aS'/pnfs/uboone/data/uboone/larlite_opreco/prod_v08_00_00_01/data_extbnb_reco1_mcc9/extbnb_C2/00/00/74/58/larlite_opreco_e57a744c-7b27-4b92-81ca-fc015fe02fd6.root'
p164
aS'/pnfs/uboone/data/uboone/larlite_opreco/prod_v08_00_00_01/data_extbnb_reco1_mcc9/extbnb_C2/00/00/74/42/larlite_opreco_4363c075-420b-4f16-997e-b646992f71b4.root'
p165
aS'/pnfs/uboone/data/uboone/larlite_opreco/prod_v08_00_00_01/data_extbnb_reco1_mcc9/extbnb_C2/00/00/73/93/larlite_opreco_9d61872f-d7b1-4a8f-a444-58a5848ae766.root'
p166
aS'/pnfs/uboone/data/uboone/larlite_opreco/prod_v08_00_00_01/data_extbnb_reco1_mcc9/extbnb_C2/00/00/73/49/larlite_opreco_34818da1-baf3-44fb-af09-c36344693d4f.root'
p167
aS'/pnfs/uboone/data/uboone/larlite_opreco/prod_v08_00_00_01/data_extbnb_reco1_mcc9/extbnb_C2/00/00/74/40/larlite_opreco_75011d85-e291-4133-b26e-9c750714b2c0.root'
p168
aS'/pnfs/uboone/data/uboone/larlite_opreco/prod_v08_00_00_01/data_extbnb_reco1_mcc9/extbnb_C2/00/00/74/36/larlite_opreco_c082738c-e640-4f63-adca-93c702b373e5.root'
p169
aS'/pnfs/uboone/data/uboone/larlite_opreco/prod_v08_00_00_01/data_extbnb_reco1_mcc9/extbnb_C2/00/00/74/43/larlite_opreco_60bef1c5-223d-4445-bea3-327e001d159a.root'
p170
aS'/pnfs/uboone/data/uboone/larlite_opreco/prod_v08_00_00_01/data_extbnb_reco1_mcc9/extbnb_C2/00/00/74/03/larlite_opreco_165b2ca5-10ba-49ad-b862-0749960363c7.root'
p171
aS'/pnfs/uboone/data/uboone/larlite_opreco/prod_v08_00_00_01/data_extbnb_reco1_mcc9/extbnb_C2/00/00/73/93/larlite_opreco_968c1b2b-9616-4088-af3b-e9a8a71093d6.root'
p172
aS'/pnfs/uboone/data/uboone/larlite_opreco/prod_v08_00_00_01/data_extbnb_reco1_mcc9/extbnb_C2/00/00/73/93/larlite_opreco_78915c13-3724-420c-aa5e-7b3b54405b62.root'
p173
aS'/pnfs/uboone/data/uboone/larlite_opreco/prod_v08_00_00_01/data_extbnb_reco1_mcc9/extbnb_C2/00/00/74/57/larlite_opreco_d8ee2876-59dd-4a76-a683-544612fb331c.root'
p174
aS'/pnfs/uboone/data/uboone/larlite_opreco/prod_v08_00_00_01/data_extbnb_reco1_mcc9/extbnb_C2/00/00/73/91/larlite_opreco_ca29d8a0-91d7-41da-ab6d-2e23bc427f13.root'
p175
aS'/pnfs/uboone/data/uboone/larlite_opreco/prod_v08_00_00_01/data_extbnb_reco1_mcc9/extbnb_C2/00/00/73/93/larlite_opreco_c1186e03-1554-4250-a351-54a5aad9c515.root'
p176
aS'/pnfs/uboone/data/uboone/larlite_opreco/prod_v08_00_00_01/data_extbnb_reco1_mcc9/extbnb_C2/00/00/74/58/larlite_opreco_28ca699f-0259-499c-9dce-f48685c971bf.root'
p177
aS'/pnfs/uboone/data/uboone/larlite_opreco/prod_v08_00_00_01/data_extbnb_reco1_mcc9/extbnb_C2/00/00/74/42/larlite_opreco_d9d9c6a1-067c-4228-9aa5-7a296c76f69b.root'
p178
aS'/pnfs/uboone/data/uboone/larlite_opreco/prod_v08_00_00_01/data_extbnb_reco1_mcc9/extbnb_C2/00/00/74/57/larlite_opreco_67e19dce-c225-4ed4-9950-7659e99fac65.root'
p179
aS'/pnfs/uboone/data/uboone/larlite_opreco/prod_v08_00_00_01/data_extbnb_reco1_mcc9/extbnb_C2/00/00/74/37/larlite_opreco_1202437a-a7bc-4770-a847-978a2cbaf97d.root'
p180
aS'/pnfs/uboone/data/uboone/larlite_opreco/prod_v08_00_00_01/data_extbnb_reco1_mcc9/extbnb_C2/00/00/74/44/larlite_opreco_490ec749-87c0-464d-a1fc-8fc117190e0f.root'
p181
aS'/pnfs/uboone/data/uboone/larlite_opreco/prod_v08_00_00_01/data_extbnb_reco1_mcc9/extbnb_C2/00/00/74/57/larlite_opreco_69234345-f9bd-45be-a35b-06c6ff0a7ba0.root'
p182
aS'/pnfs/uboone/data/uboone/larlite_opreco/prod_v08_00_00_01/data_extbnb_reco1_mcc9/extbnb_C2/00/00/74/00/larlite_opreco_c11ccfba-8818-43d3-b27d-4021b7a6ef3b.root'
p183
aS'/pnfs/uboone/data/uboone/larlite_opreco/prod_v08_00_00_01/data_extbnb_reco1_mcc9/extbnb_C2/00/00/74/42/larlite_opreco_9b4d5f19-7343-47fc-9182-68f6359fd18e.root'
p184
aS'/pnfs/uboone/data/uboone/larlite_opreco/prod_v08_00_00_01/data_extbnb_reco1_mcc9/extbnb_C2/00/00/74/55/larlite_opreco_d9477676-92b1-47e6-88e6-067fbf56c146.root'
p185
aS'/pnfs/uboone/data/uboone/larlite_opreco/prod_v08_00_00_01/data_extbnb_reco1_mcc9/extbnb_C2/00/00/73/93/larlite_opreco_f59f7b37-b9a5-45f7-81da-a13b00a804ef.root'
p186
aS'/pnfs/uboone/data/uboone/larlite_opreco/prod_v08_00_00_01/data_extbnb_reco1_mcc9/extbnb_C2/00/00/74/65/larlite_opreco_0ef3cd15-4a39-42ac-a802-66000762253d.root'
p187
aS'/pnfs/uboone/data/uboone/larlite_opreco/prod_v08_00_00_01/data_extbnb_reco1_mcc9/extbnb_C2/00/00/74/00/larlite_opreco_d89418cc-d59a-42fd-8986-541fc6b781ff.root'
p188
aS'/pnfs/uboone/data/uboone/larlite_opreco/prod_v08_00_00_01/data_extbnb_reco1_mcc9/extbnb_C2/00/00/74/57/larlite_opreco_5b28659a-bbe8-4c6a-9161-ab455a9e6f22.root'
p189
aS'/pnfs/uboone/data/uboone/larlite_opreco/prod_v08_00_00_01/data_extbnb_reco1_mcc9/extbnb_C2/00/00/74/03/larlite_opreco_31c575ac-6d47-4352-8c98-bfe1f3fd06e9.root'
p190
aS'/pnfs/uboone/data/uboone/larlite_opreco/prod_v08_00_00_01/data_extbnb_reco1_mcc9/extbnb_C2/00/00/73/91/larlite_opreco_036fd5f8-0574-44eb-b59a-4ccb4a1f7e47.root'
p191
aS'/pnfs/uboone/data/uboone/larlite_opreco/prod_v08_00_00_01/data_extbnb_reco1_mcc9/extbnb_C2/00/00/74/57/larlite_opreco_05ad4c4e-06eb-43ac-9082-89e53bff98ee.root'
p192
aS'/pnfs/uboone/data/uboone/larlite_opreco/prod_v08_00_00_01/data_extbnb_reco1_mcc9/extbnb_C2/00/00/74/44/larlite_opreco_5c8e46f2-d99b-46d9-af5d-8f80d9d1a44c.root'
p193
aS'/pnfs/uboone/data/uboone/larlite_opreco/prod_v08_00_00_01/data_extbnb_reco1_mcc9/extbnb_C2/00/00/74/55/larlite_opreco_c65eb869-be53-47cb-9aff-6f3a7b1034ae.root'
p194
aS'/pnfs/uboone/data/uboone/larlite_opreco/prod_v08_00_00_01/data_extbnb_reco1_mcc9/extbnb_C2/00/00/74/57/larlite_opreco_14c0d587-6393-4188-b485-0b0b22df4e45.root'
p195
aS'/pnfs/uboone/data/uboone/larlite_opreco/prod_v08_00_00_01/data_extbnb_reco1_mcc9/extbnb_C2/00/00/74/42/larlite_opreco_a68ed351-0c81-41ea-8613-ea512dcc037e.root'
p196
aS'/pnfs/uboone/data/uboone/larlite_opreco/prod_v08_00_00_01/data_extbnb_reco1_mcc9/extbnb_C2/00/00/74/55/larlite_opreco_8266474a-d390-49e8-83f3-8f6062c452de.root'
p197
aS'/pnfs/uboone/data/uboone/larlite_opreco/prod_v08_00_00_01/data_extbnb_reco1_mcc9/extbnb_C2/00/00/74/58/larlite_opreco_f28e71c5-0362-4769-9085-8d33d4e12304.root'
p198
aS'/pnfs/uboone/data/uboone/larlite_opreco/prod_v08_00_00_01/data_extbnb_reco1_mcc9/extbnb_C2/00/00/73/94/larlite_opreco_de18018d-6901-4400-87ee-1954eb01178f.root'
p199
aS'/pnfs/uboone/data/uboone/larlite_opreco/prod_v08_00_00_01/data_extbnb_reco1_mcc9/extbnb_C2/00/00/74/03/larlite_opreco_f18d4d23-158e-44b8-82b2-fe2c8406fc1c.root'
p200
aS'/pnfs/uboone/data/uboone/larlite_opreco/prod_v08_00_00_01/data_extbnb_reco1_mcc9/extbnb_C2/00/00/74/57/larlite_opreco_388eb16e-a8f1-4e03-9925-1754ec876daf.root'
p201
aS'/pnfs/uboone/data/uboone/larlite_opreco/prod_v08_00_00_01/data_extbnb_reco1_mcc9/extbnb_C2/00/00/74/57/larlite_opreco_03819e8d-dfe5-4a12-aee7-de4375f039e7.root'
p202
aS'/pnfs/uboone/data/uboone/larlite_opreco/prod_v08_00_00_01/data_extbnb_reco1_mcc9/extbnb_C2/00/00/73/91/larlite_opreco_09373332-b17d-46de-a394-2fdc5be0094a.root'
p203
aS'/pnfs/uboone/data/uboone/larlite_opreco/prod_v08_00_00_01/data_extbnb_reco1_mcc9/extbnb_C2/00/00/73/07/larlite_opreco_728e28aa-493c-4d46-b98e-9160f0ad4546.root'
p204
aS'/pnfs/uboone/data/uboone/larlite_opreco/prod_v08_00_00_01/data_extbnb_reco1_mcc9/extbnb_C2/00/00/74/61/larlite_opreco_42510c3a-702c-4e8d-8a34-a69ed2c5df43.root'
p205
aS'/pnfs/uboone/data/uboone/larlite_opreco/prod_v08_00_00_01/data_extbnb_reco1_mcc9/extbnb_C2/00/00/74/61/larlite_opreco_7b090370-d732-4ff9-9b00-ba0065ad4147.root'
p206
aS'/pnfs/uboone/data/uboone/larlite_opreco/prod_v08_00_00_01/data_extbnb_reco1_mcc9/extbnb_C2/00/00/74/57/larlite_opreco_0e1ccf38-8629-46c1-bee6-fe8734946158.root'
p207
aS'/pnfs/uboone/data/uboone/larlite_opreco/prod_v08_00_00_01/data_extbnb_reco1_mcc9/extbnb_C2/00/00/74/36/larlite_opreco_255fc0eb-faa8-4620-974e-f1f4bd6b889e.root'
p208
aS'/pnfs/uboone/data/uboone/larlite_opreco/prod_v08_00_00_01/data_extbnb_reco1_mcc9/extbnb_C2/00/00/74/57/larlite_opreco_df637f63-fa6c-4e12-8795-ac3e1fe9f101.root'
p209
aS'/pnfs/uboone/data/uboone/larlite_opreco/prod_v08_00_00_01/data_extbnb_reco1_mcc9/extbnb_C2/00/00/73/93/larlite_opreco_8ea80e94-a308-4373-a8fc-2f7283c63ffd.root'
p210
aS'/pnfs/uboone/data/uboone/larlite_opreco/prod_v08_00_00_01/data_extbnb_reco1_mcc9/extbnb_C2/00/00/74/32/larlite_opreco_d19e4dde-a8a6-498f-9733-efbc0797a426.root'
p211
aS'/pnfs/uboone/data/uboone/larlite_opreco/prod_v08_00_00_01/data_extbnb_reco1_mcc9/extbnb_C2/00/00/74/57/larlite_opreco_52e62669-2a8a-4404-b188-06ae94b12ae3.root'
p212
aS'/pnfs/uboone/data/uboone/larlite_opreco/prod_v08_00_00_01/data_extbnb_reco1_mcc9/extbnb_C2/00/00/74/43/larlite_opreco_86a93942-6bc5-44b9-add6-d0beb8fd7eca.root'
p213
aS'/pnfs/uboone/data/uboone/larlite_opreco/prod_v08_00_00_01/data_extbnb_reco1_mcc9/extbnb_C2/00/00/74/42/larlite_opreco_ece5e37f-cba7-49aa-8803-c7b2fbf1fcc1.root'
p214
aS'/pnfs/uboone/data/uboone/larlite_opreco/prod_v08_00_00_01/data_extbnb_reco1_mcc9/extbnb_C2/00/00/73/98/larlite_opreco_c737ccd2-aa06-4491-9524-afbc7cf09172.root'
p215
aS'/pnfs/uboone/data/uboone/larlite_opreco/prod_v08_00_00_01/data_extbnb_reco1_mcc9/extbnb_C2/00/00/73/91/larlite_opreco_c2958842-2645-4519-a0ac-9a862b8d30d0.root'
p216
aS'/pnfs/uboone/data/uboone/larlite_opreco/prod_v08_00_00_01/data_extbnb_reco1_mcc9/extbnb_C2/00/00/74/36/larlite_opreco_3b5b4616-2b61-4415-a974-0418b5ba92de.root'
p217
aS'/pnfs/uboone/data/uboone/larlite_opreco/prod_v08_00_00_01/data_extbnb_reco1_mcc9/extbnb_C2/00/00/74/41/larlite_opreco_66b54acb-b679-49a5-bce6-a4e963b6ded2.root'
p218
aS'/pnfs/uboone/data/uboone/larlite_opreco/prod_v08_00_00_01/data_extbnb_reco1_mcc9/extbnb_C2/00/00/74/57/larlite_opreco_b2f3897b-94a9-4b8e-92eb-01ca8e831f71.root'
p219
aS'/pnfs/uboone/data/uboone/larlite_opreco/prod_v08_00_00_01/data_extbnb_reco1_mcc9/extbnb_C2/00/00/73/91/larlite_opreco_7c1db2cc-4d83-457d-890e-cbf483b6cc08.root'
p220
aS'/pnfs/uboone/data/uboone/larlite_opreco/prod_v08_00_00_01/data_extbnb_reco1_mcc9/extbnb_C2/00/00/74/57/larlite_opreco_63459c23-4358-4d71-9f4d-30dd10e6b6d9.root'
p221
aS'/pnfs/uboone/data/uboone/larlite_opreco/prod_v08_00_00_01/data_extbnb_reco1_mcc9/extbnb_C2/00/00/74/57/larlite_opreco_1b2ab507-e488-4e98-be9d-0e4ca8f7abb2.root'
p222
aS'/pnfs/uboone/data/uboone/larlite_opreco/prod_v08_00_00_01/data_extbnb_reco1_mcc9/extbnb_C2/00/00/74/55/larlite_opreco_6b6862fc-a67d-4be3-97d3-f3ae5a0cbbdc.root'
p223
aS'/pnfs/uboone/data/uboone/larlite_opreco/prod_v08_00_00_01/data_extbnb_reco1_mcc9/extbnb_C2/00/00/74/00/larlite_opreco_6bd6debe-ce26-4681-b14c-7962ea6ebdf0.root'
p224
aS'/pnfs/uboone/data/uboone/larlite_opreco/prod_v08_00_00_01/data_extbnb_reco1_mcc9/extbnb_C2/00/00/74/42/larlite_opreco_29ccf681-9c50-45c9-adcc-79fde0ca97f1.root'
p225
aS'/pnfs/uboone/data/uboone/larlite_opreco/prod_v08_00_00_01/data_extbnb_reco1_mcc9/extbnb_C2/00/00/74/55/larlite_opreco_beb4d25f-48f2-484a-b91a-bcfb21c34b87.root'
p226
aS'/pnfs/uboone/data/uboone/larlite_opreco/prod_v08_00_00_01/data_extbnb_reco1_mcc9/extbnb_C2/00/00/74/00/larlite_opreco_8488f508-124a-4771-83a9-59139b42943b.root'
p227
aS'/pnfs/uboone/data/uboone/larlite_opreco/prod_v08_00_00_01/data_extbnb_reco1_mcc9/extbnb_C2/00/00/74/56/larlite_opreco_798427b4-e765-4cf9-aa36-1141804c2e87.root'
p228
aS'/pnfs/uboone/data/uboone/larlite_opreco/prod_v08_00_00_01/data_extbnb_reco1_mcc9/extbnb_C2/00/00/74/57/larlite_opreco_48493fa5-55b8-465e-ad54-0dc80ce5ed3e.root'
p229
aS'/pnfs/uboone/data/uboone/larlite_opreco/prod_v08_00_00_01/data_extbnb_reco1_mcc9/extbnb_C2/00/00/73/97/larlite_opreco_32071db3-fea3-4531-9d48-a400a04de3bd.root'
p230
aS'/pnfs/uboone/data/uboone/larlite_opreco/prod_v08_00_00_01/data_extbnb_reco1_mcc9/extbnb_C2/00/00/74/42/larlite_opreco_9f275a83-8fc7-4dc4-a825-d98cd74ddc3b.root'
p231
aS'/pnfs/uboone/data/uboone/larlite_opreco/prod_v08_00_00_01/data_extbnb_reco1_mcc9/extbnb_C2/00/00/74/40/larlite_opreco_8e0cf1a7-c98d-4853-a87d-3528f963d497.root'
p232
aS'/pnfs/uboone/data/uboone/larlite_opreco/prod_v08_00_00_01/data_extbnb_reco1_mcc9/extbnb_C2/00/00/74/01/larlite_opreco_cebcc820-467f-4e86-aba3-f381d5aa2530.root'
p233
aS'/pnfs/uboone/data/uboone/larlite_opreco/prod_v08_00_00_01/data_extbnb_reco1_mcc9/extbnb_C2/00/00/74/57/larlite_opreco_d0213f75-0ca6-420e-9311-d80d2fc1ad80.root'
p234
aS'/pnfs/uboone/data/uboone/larlite_opreco/prod_v08_00_00_01/data_extbnb_reco1_mcc9/extbnb_C2/00/00/74/57/larlite_opreco_aba47ffa-8f85-42dc-876b-7d45b5835916.root'
p235
aS'/pnfs/uboone/data/uboone/larlite_opreco/prod_v08_00_00_01/data_extbnb_reco1_mcc9/extbnb_C2/00/00/74/58/larlite_opreco_c0238dc5-7934-4899-b50d-d2eeeda6e378.root'
p236
aS'/pnfs/uboone/data/uboone/larlite_opreco/prod_v08_00_00_01/data_extbnb_reco1_mcc9/extbnb_C2/00/00/74/57/larlite_opreco_345622f4-0796-4bd3-97e4-7d6b25fbce38.root'
p237
aS'/pnfs/uboone/data/uboone/larlite_opreco/prod_v08_00_00_01/data_extbnb_reco1_mcc9/extbnb_C2/00/00/74/00/larlite_opreco_e62b3ae0-96d8-4b68-9e66-7e14ceda0437.root'
p238
aS'/pnfs/uboone/data/uboone/larlite_opreco/prod_v08_00_00_01/data_extbnb_reco1_mcc9/extbnb_C2/00/00/73/93/larlite_opreco_30048ae0-e6a3-4a34-97b4-818a9b3d9441.root'
p239
aS'/pnfs/uboone/data/uboone/larlite_opreco/prod_v08_00_00_01/data_extbnb_reco1_mcc9/extbnb_C2/00/00/74/43/larlite_opreco_d86fca73-6829-4b05-8f6f-e18626d385b8.root'
p240
aS'/pnfs/uboone/data/uboone/larlite_opreco/prod_v08_00_00_01/data_extbnb_reco1_mcc9/extbnb_C2/00/00/73/91/larlite_opreco_1d752500-1cc4-4239-bc46-890d0906203a.root'
p241
aS'/pnfs/uboone/data/uboone/larlite_opreco/prod_v08_00_00_01/data_extbnb_reco1_mcc9/extbnb_C2/00/00/73/91/larlite_opreco_4fa2dd40-60f6-4683-9182-fc6892087d76.root'
p242
aS'/pnfs/uboone/data/uboone/larlite_opreco/prod_v08_00_00_01/data_extbnb_reco1_mcc9/extbnb_C2/00/00/74/00/larlite_opreco_78d39d9a-55aa-4ce7-8e0b-e3658fd3a84f.root'
p243
aS'/pnfs/uboone/data/uboone/larlite_opreco/prod_v08_00_00_01/data_extbnb_reco1_mcc9/extbnb_C2/00/00/74/55/larlite_opreco_dc90f724-25d7-4199-bc25-11a07fc0f2bf.root'
p244
aS'/pnfs/uboone/data/uboone/larlite_opreco/prod_v08_00_00_01/data_extbnb_reco1_mcc9/extbnb_C2/00/00/74/00/larlite_opreco_677eb0cc-a23f-42fe-bbaa-9acad35ef45d.root'
p245
aS'/pnfs/uboone/data/uboone/larlite_opreco/prod_v08_00_00_01/data_extbnb_reco1_mcc9/extbnb_C2/00/00/73/93/larlite_opreco_bba20c16-3c9d-4a09-9abc-5ee1a8826a0f.root'
p246
aS'/pnfs/uboone/data/uboone/larlite_opreco/prod_v08_00_00_01/data_extbnb_reco1_mcc9/extbnb_C2/00/00/74/57/larlite_opreco_4d951b47-145e-4385-99e1-f73dd3e16311.root'
p247
aS'/pnfs/uboone/data/uboone/larlite_opreco/prod_v08_00_00_01/data_extbnb_reco1_mcc9/extbnb_C2/00/00/74/39/larlite_opreco_c5ed01ef-e11d-482c-a4e7-bc60af2669e1.root'
p248
aS'/pnfs/uboone/data/uboone/larlite_opreco/prod_v08_00_00_01/data_extbnb_reco1_mcc9/extbnb_C2/00/00/74/40/larlite_opreco_9e03eb77-c2ef-4a95-a21b-4e09d3bc105e.root'
p249
aS'/pnfs/uboone/data/uboone/larlite_opreco/prod_v08_00_00_01/data_extbnb_reco1_mcc9/extbnb_C2/00/00/73/91/larlite_opreco_f9cff7b0-3dd5-48c4-9343-e168eafaffbd.root'
p250
aS'/pnfs/uboone/data/uboone/larlite_opreco/prod_v08_00_00_01/data_extbnb_reco1_mcc9/extbnb_C2/00/00/74/57/larlite_opreco_19cb5512-441a-4512-8202-68d806a9b533.root'
p251
aS'/pnfs/uboone/data/uboone/larlite_opreco/prod_v08_00_00_01/data_extbnb_reco1_mcc9/extbnb_C2/00/00/74/58/larlite_opreco_52f66ec6-f8a8-494b-aeae-ea82d7bf2033.root'
p252
aS'/pnfs/uboone/data/uboone/larlite_opreco/prod_v08_00_00_01/data_extbnb_reco1_mcc9/extbnb_C2/00/00/74/61/larlite_opreco_bc400982-1a9d-4714-bd98-e0e69ebcbb12.root'
p253
aS'/pnfs/uboone/data/uboone/larlite_opreco/prod_v08_00_00_01/data_extbnb_reco1_mcc9/extbnb_C2/00/00/74/42/larlite_opreco_c36ccefc-17b7-4dea-a860-444f8485fe8e.root'
p254
aS'/pnfs/uboone/data/uboone/larlite_opreco/prod_v08_00_00_01/data_extbnb_reco1_mcc9/extbnb_C2/00/00/74/59/larlite_opreco_8797a8c0-5d76-4d0c-bf5f-3fb2ae503a25.root'
p255
aS'/pnfs/uboone/data/uboone/larlite_opreco/prod_v08_00_00_01/data_extbnb_reco1_mcc9/extbnb_C2/00/00/74/42/larlite_opreco_f5cdf2a3-a128-40a5-b128-7de6ae87eea5.root'
p256
aS'/pnfs/uboone/data/uboone/larlite_opreco/prod_v08_00_00_01/data_extbnb_reco1_mcc9/extbnb_C2/00/00/74/57/larlite_opreco_d000be86-a39e-44e1-9ae6-502e8f6d8140.root'
p257
aS'/pnfs/uboone/data/uboone/larlite_opreco/prod_v08_00_00_01/data_extbnb_reco1_mcc9/extbnb_C2/00/00/74/00/larlite_opreco_89001c19-2645-4009-8df3-5c0b95c27007.root'
p258
aS'/pnfs/uboone/data/uboone/larlite_opreco/prod_v08_00_00_01/data_extbnb_reco1_mcc9/extbnb_C2/00/00/73/49/larlite_opreco_84fff984-36d2-4db5-81f8-6d126c18275f.root'
p259
aS'/pnfs/uboone/data/uboone/larlite_opreco/prod_v08_00_00_01/data_extbnb_reco1_mcc9/extbnb_C2/00/00/73/98/larlite_opreco_da8f9fd8-2623-4796-a668-a959ed9322c8.root'
p260
aS'/pnfs/uboone/data/uboone/larlite_opreco/prod_v08_00_00_01/data_extbnb_reco1_mcc9/extbnb_C2/00/00/74/57/larlite_opreco_dc6a66c5-57e0-4ff3-9218-fb4409a11db5.root'
p261
aS'/pnfs/uboone/data/uboone/larlite_opreco/prod_v08_00_00_01/data_extbnb_reco1_mcc9/extbnb_C2/00/00/73/93/larlite_opreco_92ba2ab3-bb0d-4287-83d1-b866f67b0851.root'
p262
aS'/pnfs/uboone/data/uboone/larlite_opreco/prod_v08_00_00_01/data_extbnb_reco1_mcc9/extbnb_C2/00/00/74/42/larlite_opreco_0c04b0cd-d5ea-40d4-9449-5cb406998fd7.root'
p263
aS'/pnfs/uboone/data/uboone/larlite_opreco/prod_v08_00_00_01/data_extbnb_reco1_mcc9/extbnb_C2/00/00/74/58/larlite_opreco_31d63d45-b898-41c7-9323-aa28c57b0449.root'
p264
aS'/pnfs/uboone/data/uboone/larlite_opreco/prod_v08_00_00_01/data_extbnb_reco1_mcc9/extbnb_C2/00/00/74/56/larlite_opreco_295bb1bb-e085-41e0-aa2e-630d1242f807.root'
p265
aS'/pnfs/uboone/data/uboone/larlite_opreco/prod_v08_00_00_01/data_extbnb_reco1_mcc9/extbnb_C2/00/00/73/98/larlite_opreco_4f2c8d52-a581-4d9a-97e5-e3450fdd1f4d.root'
p266
aS'/pnfs/uboone/data/uboone/larlite_opreco/prod_v08_00_00_01/data_extbnb_reco1_mcc9/extbnb_C2/00/00/73/93/larlite_opreco_a483c38c-ad97-4e1f-975d-d604e3ff280b.root'
p267
aS'/pnfs/uboone/data/uboone/larlite_opreco/prod_v08_00_00_01/data_extbnb_reco1_mcc9/extbnb_C2/00/00/74/42/larlite_opreco_9000b869-2b36-4573-b732-e1f9a24a3936.root'
p268
aS'/pnfs/uboone/data/uboone/larlite_opreco/prod_v08_00_00_01/data_extbnb_reco1_mcc9/extbnb_C2/00/00/73/92/larlite_opreco_9cd25510-5f02-4a1d-8713-639f464cb5bf.root'
p269
aS'/pnfs/uboone/data/uboone/larlite_opreco/prod_v08_00_00_01/data_extbnb_reco1_mcc9/extbnb_C2/00/00/74/34/larlite_opreco_9b9faeaa-7b76-4a99-8fed-03810237bbdf.root'
p270
aS'/pnfs/uboone/data/uboone/larlite_opreco/prod_v08_00_00_01/data_extbnb_reco1_mcc9/extbnb_C2/00/00/74/44/larlite_opreco_89e58b96-4562-47b5-bde4-addf5c5d088c.root'
p271
aS'/pnfs/uboone/data/uboone/larlite_opreco/prod_v08_00_00_01/data_extbnb_reco1_mcc9/extbnb_C2/00/00/74/42/larlite_opreco_ccc61ee6-5c23-4929-8081-cd408a709f84.root'
p272
aS'/pnfs/uboone/data/uboone/larlite_opreco/prod_v08_00_00_01/data_extbnb_reco1_mcc9/extbnb_C2/00/00/74/36/larlite_opreco_fbcc85a5-fcfe-4a62-8d6f-7eb32844e9d4.root'
p273
aS'/pnfs/uboone/data/uboone/larlite_opreco/prod_v08_00_00_01/data_extbnb_reco1_mcc9/extbnb_C2/00/00/74/00/larlite_opreco_7eb3fbcb-74f4-42a0-8bd1-e490c2b51da2.root'
p274
aS'/pnfs/uboone/data/uboone/larlite_opreco/prod_v08_00_00_01/data_extbnb_reco1_mcc9/extbnb_C2/00/00/74/61/larlite_opreco_35d202ac-7bac-4b27-a45e-4f8ed5887118.root'
p275
aS'/pnfs/uboone/data/uboone/larlite_opreco/prod_v08_00_00_01/data_extbnb_reco1_mcc9/extbnb_C2/00/00/74/61/larlite_opreco_efd6968e-46e7-4712-b0d2-02b5bfd0683c.root'
p276
aS'/pnfs/uboone/data/uboone/larlite_opreco/prod_v08_00_00_01/data_extbnb_reco1_mcc9/extbnb_C2/00/00/73/97/larlite_opreco_d84c080c-624e-41cf-bc10-b00125e94534.root'
p277
aS'/pnfs/uboone/data/uboone/larlite_opreco/prod_v08_00_00_01/data_extbnb_reco1_mcc9/extbnb_C2/00/00/73/93/larlite_opreco_97705679-a680-4306-880c-3419efb258ef.root'
p278
aS'/pnfs/uboone/data/uboone/larlite_opreco/prod_v08_00_00_01/data_extbnb_reco1_mcc9/extbnb_C2/00/00/74/56/larlite_opreco_f3d4c962-1745-4030-ae36-a38eb1bbd9b0.root'
p279
aS'/pnfs/uboone/data/uboone/larlite_opreco/prod_v08_00_00_01/data_extbnb_reco1_mcc9/extbnb_C2/00/00/74/00/larlite_opreco_70cde521-c088-4adf-bbe1-65b8ca3cd706.root'
p280
aS'/pnfs/uboone/data/uboone/larlite_opreco/prod_v08_00_00_01/data_extbnb_reco1_mcc9/extbnb_C2/00/00/74/40/larlite_opreco_ca03d90b-74ad-4021-8905-e9fb8966cf56.root'
p281
aS'/pnfs/uboone/data/uboone/larlite_opreco/prod_v08_00_00_01/data_extbnb_reco1_mcc9/extbnb_C2/00/00/73/91/larlite_opreco_b82eb756-23cc-4d17-bc30-ce57907e9eb1.root'
p282
aS'/pnfs/uboone/data/uboone/larlite_opreco/prod_v08_00_00_01/data_extbnb_reco1_mcc9/extbnb_C2/00/00/74/57/larlite_opreco_e4ec9ae4-9aed-4c2f-9619-0776b17ecc50.root'
p283
aS'/pnfs/uboone/data/uboone/larlite_opreco/prod_v08_00_00_01/data_extbnb_reco1_mcc9/extbnb_C2/00/00/74/44/larlite_opreco_2e7390d9-a544-4b42-8976-4fa6238590a3.root'
p284
aS'/pnfs/uboone/data/uboone/larlite_opreco/prod_v08_00_00_01/data_extbnb_reco1_mcc9/extbnb_C2/00/00/74/36/larlite_opreco_3ad56692-c541-4d7b-b313-5eaeb63c969e.root'
p285
aS'/pnfs/uboone/data/uboone/larlite_opreco/prod_v08_00_00_01/data_extbnb_reco1_mcc9/extbnb_C2/00/00/74/57/larlite_opreco_ca97dedc-7189-468d-9dab-d2b885e87ef8.root'
p286
aS'/pnfs/uboone/data/uboone/larlite_opreco/prod_v08_00_00_01/data_extbnb_reco1_mcc9/extbnb_C2/00/00/74/44/larlite_opreco_4182da91-69f5-4d24-9769-6b4ff7ebea62.root'
p287
aS'/pnfs/uboone/data/uboone/larlite_opreco/prod_v08_00_00_01/data_extbnb_reco1_mcc9/extbnb_C2/00/00/73/98/larlite_opreco_799704bd-adc2-42aa-b60d-be19a925d810.root'
p288
aS'/pnfs/uboone/data/uboone/larlite_opreco/prod_v08_00_00_01/data_extbnb_reco1_mcc9/extbnb_C2/00/00/74/42/larlite_opreco_65ae1740-09e8-43ee-8035-bc347f6ab0bf.root'
p289
aS'/pnfs/uboone/data/uboone/larlite_opreco/prod_v08_00_00_01/data_extbnb_reco1_mcc9/extbnb_C2/00/00/74/00/larlite_opreco_1cf037f9-1c98-4a7e-83de-434db68f0bc5.root'
p290
aS'/pnfs/uboone/data/uboone/larlite_opreco/prod_v08_00_00_01/data_extbnb_reco1_mcc9/extbnb_C2/00/00/74/41/larlite_opreco_a6931d15-0eb4-4f0a-b5b7-90073b9e5844.root'
p291
aS'/pnfs/uboone/data/uboone/larlite_opreco/prod_v08_00_00_01/data_extbnb_reco1_mcc9/extbnb_C2/00/00/74/57/larlite_opreco_330060cc-7a06-4f9b-aa94-7d9446d17ead.root'
p292
aS'/pnfs/uboone/data/uboone/larlite_opreco/prod_v08_00_00_01/data_extbnb_reco1_mcc9/extbnb_C2/00/00/73/93/larlite_opreco_ad818e5e-84de-4c7f-ab14-2b8248bc0deb.root'
p293
aS'/pnfs/uboone/data/uboone/larlite_opreco/prod_v08_00_00_01/data_extbnb_reco1_mcc9/extbnb_C2/00/00/74/42/larlite_opreco_eecd16ac-5374-4f3d-932c-20b4c0ca48c7.root'
p294
aS'/pnfs/uboone/data/uboone/larlite_opreco/prod_v08_00_00_01/data_extbnb_reco1_mcc9/extbnb_C2/00/00/73/91/larlite_opreco_20bcd575-fe99-4e1d-aba6-fbf4bbe05439.root'
p295
aS'/pnfs/uboone/data/uboone/larlite_opreco/prod_v08_00_00_01/data_extbnb_reco1_mcc9/extbnb_C2/00/00/74/42/larlite_opreco_49d1763a-0ddc-47f8-8e20-f12c393c41b9.root'
p296
aS'/pnfs/uboone/data/uboone/larlite_opreco/prod_v08_00_00_01/data_extbnb_reco1_mcc9/extbnb_C2/00/00/73/91/larlite_opreco_1aa7e6e8-4ca7-4a2e-aa2a-b84e5d6efffb.root'
p297
aS'/pnfs/uboone/data/uboone/larlite_opreco/prod_v08_00_00_01/data_extbnb_reco1_mcc9/extbnb_C2/00/00/74/38/larlite_opreco_24d3818a-3880-4c11-a896-75843085a64e.root'
p298
aS'/pnfs/uboone/data/uboone/larlite_opreco/prod_v08_00_00_01/data_extbnb_reco1_mcc9/extbnb_C2/00/00/74/00/larlite_opreco_db6148bb-7f08-43c3-a6a2-11c7af0dacdf.root'
p299
aS'/pnfs/uboone/data/uboone/larlite_opreco/prod_v08_00_00_01/data_extbnb_reco1_mcc9/extbnb_C2/00/00/74/03/larlite_opreco_ec50d203-a84f-4c79-8d9e-09b32574ee36.root'
p300
aS'/pnfs/uboone/data/uboone/larlite_opreco/prod_v08_00_00_01/data_extbnb_reco1_mcc9/extbnb_C2/00/00/74/38/larlite_opreco_9b613caf-19f3-4013-962e-55bc96328c85.root'
p301
aS'/pnfs/uboone/data/uboone/larlite_opreco/prod_v08_00_00_01/data_extbnb_reco1_mcc9/extbnb_C2/00/00/74/57/larlite_opreco_87d7cc19-7c5b-47c6-834b-93bb35c9fdb9.root'
p302
aS'/pnfs/uboone/data/uboone/larlite_opreco/prod_v08_00_00_01/data_extbnb_reco1_mcc9/extbnb_C2/00/00/73/92/larlite_opreco_585a69f5-da39-4bbf-a370-0c61f946a317.root'
p303
aS'/pnfs/uboone/data/uboone/larlite_opreco/prod_v08_00_00_01/data_extbnb_reco1_mcc9/extbnb_C2/00/00/74/42/larlite_opreco_d9c72733-3ed2-4f9b-b9c9-53b4e7f019b4.root'
p304
aS'/pnfs/uboone/data/uboone/larlite_opreco/prod_v08_00_00_01/data_extbnb_reco1_mcc9/extbnb_C2/00/00/74/57/larlite_opreco_54492295-4ff3-44b1-8165-2da9eba8a521.root'
p305
aS'/pnfs/uboone/data/uboone/larlite_opreco/prod_v08_00_00_01/data_extbnb_reco1_mcc9/extbnb_C2/00/00/74/00/larlite_opreco_93228f89-f3f0-4234-ad0e-ea74a87b1b03.root'
p306
aS'/pnfs/uboone/data/uboone/larlite_opreco/prod_v08_00_00_01/data_extbnb_reco1_mcc9/extbnb_C2/00/00/74/22/larlite_opreco_4e6c5584-be29-4406-8c3f-bb9f515de9a0.root'
p307
aS'/pnfs/uboone/data/uboone/larlite_opreco/prod_v08_00_00_01/data_extbnb_reco1_mcc9/extbnb_C2/00/00/74/43/larlite_opreco_232437af-bc8e-42f6-a15b-7275701c1680.root'
p308
aS'/pnfs/uboone/data/uboone/larlite_opreco/prod_v08_00_00_01/data_extbnb_reco1_mcc9/extbnb_C2/00/00/74/57/larlite_opreco_811ea213-24b2-4e73-a7d5-99dbe5cf6364.root'
p309
aS'/pnfs/uboone/data/uboone/larlite_opreco/prod_v08_00_00_01/data_extbnb_reco1_mcc9/extbnb_C2/00/00/74/57/larlite_opreco_bd66320f-7ca5-4f03-af6c-e3b10160e4af.root'
p310
aS'/pnfs/uboone/data/uboone/larlite_opreco/prod_v08_00_00_01/data_extbnb_reco1_mcc9/extbnb_C2/00/00/74/59/larlite_opreco_c4e18e84-b31a-43ac-947c-8fec762f3c5d.root'
p311
aS'/pnfs/uboone/data/uboone/larlite_opreco/prod_v08_00_00_01/data_extbnb_reco1_mcc9/extbnb_C2/00/00/74/20/larlite_opreco_1663fc1a-16da-4648-a250-a6cb353379ad.root'
p312
aS'/pnfs/uboone/data/uboone/larlite_opreco/prod_v08_00_00_01/data_extbnb_reco1_mcc9/extbnb_C2/00/00/74/42/larlite_opreco_52853c10-bba7-4278-b76e-634ca579c2ad.root'
p313
aS'/pnfs/uboone/data/uboone/larlite_opreco/prod_v08_00_00_01/data_extbnb_reco1_mcc9/extbnb_C2/00/00/74/00/larlite_opreco_e488d755-32c4-4c44-92b0-9af6a1c3a05f.root'
p314
aS'/pnfs/uboone/data/uboone/larlite_opreco/prod_v08_00_00_01/data_extbnb_reco1_mcc9/extbnb_C2/00/00/73/49/larlite_opreco_04c9e3a7-6c65-4b5b-94e7-4bfdef26ec76.root'
p315
aS'/pnfs/uboone/data/uboone/larlite_opreco/prod_v08_00_00_01/data_extbnb_reco1_mcc9/extbnb_C2/00/00/74/57/larlite_opreco_9baa2105-40e7-43f6-945b-ca429ef80d18.root'
p316
aS'/pnfs/uboone/data/uboone/larlite_opreco/prod_v08_00_00_01/data_extbnb_reco1_mcc9/extbnb_C2/00/00/73/93/larlite_opreco_c1232037-a55e-4a85-ae74-83ab6068abfd.root'
p317
aS'/pnfs/uboone/data/uboone/larlite_opreco/prod_v08_00_00_01/data_extbnb_reco1_mcc9/extbnb_C2/00/00/74/03/larlite_opreco_65753a74-e8ed-42e5-856d-e2dc0b757205.root'
p318
aS'/pnfs/uboone/data/uboone/larlite_opreco/prod_v08_00_00_01/data_extbnb_reco1_mcc9/extbnb_C2/00/00/73/98/larlite_opreco_5f90df5d-9c7c-48ff-a89b-3a42edef0d38.root'
p319
aS'/pnfs/uboone/data/uboone/larlite_opreco/prod_v08_00_00_01/data_extbnb_reco1_mcc9/extbnb_C2/00/00/74/42/larlite_opreco_a06418d0-c5b5-4580-8c15-8e5a000eb40e.root'
p320
aS'/pnfs/uboone/data/uboone/larlite_opreco/prod_v08_00_00_01/data_extbnb_reco1_mcc9/extbnb_C2/00/00/73/49/larlite_opreco_8cb20f45-0c46-401b-97bd-bfe2215099d3.root'
p321
aS'/pnfs/uboone/data/uboone/larlite_opreco/prod_v08_00_00_01/data_extbnb_reco1_mcc9/extbnb_C2/00/00/74/42/larlite_opreco_b508753d-26be-4bb5-91a3-43426d3b9213.root'
p322
aS'/pnfs/uboone/data/uboone/larlite_opreco/prod_v08_00_00_01/data_extbnb_reco1_mcc9/extbnb_C2/00/00/74/56/larlite_opreco_97f193ff-2a49-4ec1-ad99-5f3bd2f72dd8.root'
p323
aS'/pnfs/uboone/data/uboone/larlite_opreco/prod_v08_00_00_01/data_extbnb_reco1_mcc9/extbnb_C2/00/00/74/61/larlite_opreco_e23a7d55-77a2-4efe-81c7-1dd54d9ac272.root'
p324
aS'/pnfs/uboone/data/uboone/larlite_opreco/prod_v08_00_00_01/data_extbnb_reco1_mcc9/extbnb_C2/00/00/74/42/larlite_opreco_5303a73c-9809-48cb-8dc4-9e9d48383a34.root'
p325
aS'/pnfs/uboone/data/uboone/larlite_opreco/prod_v08_00_00_01/data_extbnb_reco1_mcc9/extbnb_C2/00/00/73/91/larlite_opreco_5efc10a3-bf2d-4363-a5e0-be02a6b84fbd.root'
p326
aS'/pnfs/uboone/data/uboone/larlite_opreco/prod_v08_00_00_01/data_extbnb_reco1_mcc9/extbnb_C2/00/00/73/93/larlite_opreco_a2c2c7a3-1643-4039-9df6-88b2044048d0.root'
p327
aS'/pnfs/uboone/data/uboone/larlite_opreco/prod_v08_00_00_01/data_extbnb_reco1_mcc9/extbnb_C2/00/00/74/70/larlite_opreco_06eb2fd2-daac-430f-bc93-ce6e3a76cf7b.root'
p328
aS'/pnfs/uboone/data/uboone/larlite_opreco/prod_v08_00_00_01/data_extbnb_reco1_mcc9/extbnb_C2/00/00/74/32/larlite_opreco_2fe011a0-8372-4124-ba1e-d919156afaf3.root'
p329
aS'/pnfs/uboone/data/uboone/larlite_opreco/prod_v08_00_00_01/data_extbnb_reco1_mcc9/extbnb_C2/00/00/74/42/larlite_opreco_e868c6be-a57a-4945-996a-965cacdc5c7c.root'
p330
aS'/pnfs/uboone/data/uboone/larlite_opreco/prod_v08_00_00_01/data_extbnb_reco1_mcc9/extbnb_C2/00/00/74/00/larlite_opreco_c3c6f799-ce57-47d4-b280-4910b0b2faa2.root'
p331
aS'/pnfs/uboone/data/uboone/larlite_opreco/prod_v08_00_00_01/data_extbnb_reco1_mcc9/extbnb_C2/00/00/74/42/larlite_opreco_bf788b7e-4103-41de-82ef-46dd8b65ae8d.root'
p332
aS'/pnfs/uboone/data/uboone/larlite_opreco/prod_v08_00_00_01/data_extbnb_reco1_mcc9/extbnb_C2/00/00/73/98/larlite_opreco_8cd75e46-c4a7-4b81-abbb-f25ec48d8800.root'
p333
aS'/pnfs/uboone/data/uboone/larlite_opreco/prod_v08_00_00_01/data_extbnb_reco1_mcc9/extbnb_C2/00/00/74/63/larlite_opreco_9024b117-7b1f-411e-8123-140055192738.root'
p334
aS'/pnfs/uboone/data/uboone/larlite_opreco/prod_v08_00_00_01/data_extbnb_reco1_mcc9/extbnb_C2/00/00/73/49/larlite_opreco_7feea7b6-570c-4c81-99bd-1649ff61fb71.root'
p335
aS'/pnfs/uboone/data/uboone/larlite_opreco/prod_v08_00_00_01/data_extbnb_reco1_mcc9/extbnb_C2/00/00/74/44/larlite_opreco_46e32377-0e48-4c97-8565-730340543c86.root'
p336
aS'/pnfs/uboone/data/uboone/larlite_opreco/prod_v08_00_00_01/data_extbnb_reco1_mcc9/extbnb_C2/00/00/74/42/larlite_opreco_113981bd-c2a2-4126-9288-d09d62e34fbb.root'
p337
aS'/pnfs/uboone/data/uboone/larlite_opreco/prod_v08_00_00_01/data_extbnb_reco1_mcc9/extbnb_C2/00/00/74/36/larlite_opreco_9b06ab2b-61ed-4360-bb1e-df449ed64087.root'
p338
aS'/pnfs/uboone/data/uboone/larlite_opreco/prod_v08_00_00_01/data_extbnb_reco1_mcc9/extbnb_C2/00/00/74/00/larlite_opreco_b9af043a-7c77-4749-a68d-22b54b651545.root'
p339
aS'/pnfs/uboone/data/uboone/larlite_opreco/prod_v08_00_00_01/data_extbnb_reco1_mcc9/extbnb_C2/00/00/74/20/larlite_opreco_3653af52-9cdb-4ce2-824b-82533444e3be.root'
p340
aS'/pnfs/uboone/data/uboone/larlite_opreco/prod_v08_00_00_01/data_extbnb_reco1_mcc9/extbnb_C2/00/00/74/57/larlite_opreco_6d6a0dc4-daae-4421-9a96-21c34415dd25.root'
p341
aS'/pnfs/uboone/data/uboone/larlite_opreco/prod_v08_00_00_01/data_extbnb_reco1_mcc9/extbnb_C2/00/00/73/91/larlite_opreco_c6850628-5668-4886-9bb4-d04ec4940750.root'
p342
aS'/pnfs/uboone/data/uboone/larlite_opreco/prod_v08_00_00_01/data_extbnb_reco1_mcc9/extbnb_C2/00/00/74/44/larlite_opreco_fae3bc41-155a-4ab4-ba2d-f1ac802d1bdb.root'
p343
aS'/pnfs/uboone/data/uboone/larlite_opreco/prod_v08_00_00_01/data_extbnb_reco1_mcc9/extbnb_C2/00/00/74/19/larlite_opreco_7c85ab2d-16ef-44d3-aabf-73bc449b9bca.root'
p344
aS'/pnfs/uboone/data/uboone/larlite_opreco/prod_v08_00_00_01/data_extbnb_reco1_mcc9/extbnb_C2/00/00/74/57/larlite_opreco_2eb80096-c328-42ff-a857-1af7d2845ba5.root'
p345
aS'/pnfs/uboone/data/uboone/larlite_opreco/prod_v08_00_00_01/data_extbnb_reco1_mcc9/extbnb_C2/00/00/74/03/larlite_opreco_6cfdf6fb-39ca-49ff-9d8e-5f8015168ba9.root'
p346
aS'/pnfs/uboone/data/uboone/larlite_opreco/prod_v08_00_00_01/data_extbnb_reco1_mcc9/extbnb_C2/00/00/74/57/larlite_opreco_d9b951bd-5269-4e8f-8307-7497c1e0f6db.root'
p347
aS'/pnfs/uboone/data/uboone/larlite_opreco/prod_v08_00_00_01/data_extbnb_reco1_mcc9/extbnb_C2/00/00/74/38/larlite_opreco_741739cd-5c80-484f-beb9-ccdabc53982e.root'
p348
aS'/pnfs/uboone/data/uboone/larlite_opreco/prod_v08_00_00_01/data_extbnb_reco1_mcc9/extbnb_C2/00/00/74/00/larlite_opreco_4535a0a7-12f4-4adf-963a-0ab101f4c364.root'
p349
aS'/pnfs/uboone/data/uboone/larlite_opreco/prod_v08_00_00_01/data_extbnb_reco1_mcc9/extbnb_C2/00/00/74/66/larlite_opreco_daec7ff1-465f-4d9b-97ae-6608fa44b1c7.root'
p350
aS'/pnfs/uboone/data/uboone/larlite_opreco/prod_v08_00_00_01/data_extbnb_reco1_mcc9/extbnb_C2/00/00/73/92/larlite_opreco_ce6a861f-ddeb-4b5b-90f2-883c73252dd9.root'
p351
aS'/pnfs/uboone/data/uboone/larlite_opreco/prod_v08_00_00_01/data_extbnb_reco1_mcc9/extbnb_C2/00/00/74/21/larlite_opreco_ffe2b34f-c190-4cce-b7e7-a61128e1224c.root'
p352
aS'/pnfs/uboone/data/uboone/larlite_opreco/prod_v08_00_00_01/data_extbnb_reco1_mcc9/extbnb_C2/00/00/74/20/larlite_opreco_8cd9a117-19c8-42d3-9d04-9f601fbc816d.root'
p353
aS'/pnfs/uboone/data/uboone/larlite_opreco/prod_v08_00_00_01/data_extbnb_reco1_mcc9/extbnb_C2/00/00/74/57/larlite_opreco_e9bae166-e887-4572-9a90-adb159bc231a.root'
p354
aS'/pnfs/uboone/data/uboone/larlite_opreco/prod_v08_00_00_01/data_extbnb_reco1_mcc9/extbnb_C2/00/00/74/61/larlite_opreco_de410f05-4d6f-4e0d-8ea0-df273cad8039.root'
p355
aS'/pnfs/uboone/data/uboone/larlite_opreco/prod_v08_00_00_01/data_extbnb_reco1_mcc9/extbnb_C2/00/00/74/44/larlite_opreco_039dae02-84f8-49f9-9bc8-ee99cd82064b.root'
p356
aS'/pnfs/uboone/data/uboone/larlite_opreco/prod_v08_00_00_01/data_extbnb_reco1_mcc9/extbnb_C2/00/00/73/98/larlite_opreco_41378f53-a071-48f2-ba60-f97a61b16fa9.root'
p357
aS'/pnfs/uboone/data/uboone/larlite_opreco/prod_v08_00_00_01/data_extbnb_reco1_mcc9/extbnb_C2/00/00/74/40/larlite_opreco_d1122dda-9672-4884-8701-f95fe333d1cb.root'
p358
aS'/pnfs/uboone/data/uboone/larlite_opreco/prod_v08_00_00_01/data_extbnb_reco1_mcc9/extbnb_C2/00/00/74/41/larlite_opreco_8d78bfb2-37e5-44f5-bc44-44567d6336aa.root'
p359
aS'/pnfs/uboone/data/uboone/larlite_opreco/prod_v08_00_00_01/data_extbnb_reco1_mcc9/extbnb_C2/00/00/74/57/larlite_opreco_8d4b7c52-d20b-4d12-9e18-26746239d38f.root'
p360
aS'/pnfs/uboone/data/uboone/larlite_opreco/prod_v08_00_00_01/data_extbnb_reco1_mcc9/extbnb_C2/00/00/74/57/larlite_opreco_1833d25f-3c88-4499-86a4-7771666daf10.root'
p361
aS'/pnfs/uboone/data/uboone/larlite_opreco/prod_v08_00_00_01/data_extbnb_reco1_mcc9/extbnb_C2/00/00/73/91/larlite_opreco_8b580f00-da06-4245-af4a-5f00db596da0.root'
p362
aS'/pnfs/uboone/data/uboone/larlite_opreco/prod_v08_00_00_01/data_extbnb_reco1_mcc9/extbnb_C2/00/00/74/42/larlite_opreco_b46dc243-4059-402f-a32d-05b5cdb72376.root'
p363
aS'/pnfs/uboone/data/uboone/larlite_opreco/prod_v08_00_00_01/data_extbnb_reco1_mcc9/extbnb_C2/00/00/73/98/larlite_opreco_4515c35c-ace1-4663-9a17-7a2129e8655f.root'
p364
aS'/pnfs/uboone/data/uboone/larlite_opreco/prod_v08_00_00_01/data_extbnb_reco1_mcc9/extbnb_C2/00/00/74/19/larlite_opreco_ddc63393-284e-4738-9f66-c79fc34f147d.root'
p365
aS'/pnfs/uboone/data/uboone/larlite_opreco/prod_v08_00_00_01/data_extbnb_reco1_mcc9/extbnb_C2/00/00/74/69/larlite_opreco_8455523e-d130-4d31-af35-3ae79e20be81.root'
p366
aS'/pnfs/uboone/data/uboone/larlite_opreco/prod_v08_00_00_01/data_extbnb_reco1_mcc9/extbnb_C2/00/00/74/21/larlite_opreco_02604d50-fc27-4bc4-a6cf-d24a678f9ba1.root'
p367
aS'/pnfs/uboone/data/uboone/larlite_opreco/prod_v08_00_00_01/data_extbnb_reco1_mcc9/extbnb_C2/00/00/73/91/larlite_opreco_0614ee42-d160-4cab-ba6a-cb5e71ca0687.root'
p368
aS'/pnfs/uboone/data/uboone/larlite_opreco/prod_v08_00_00_01/data_extbnb_reco1_mcc9/extbnb_C2/00/00/74/68/larlite_opreco_43327396-1aae-47f5-bad0-0a7a5906b799.root'
p369
aS'/pnfs/uboone/data/uboone/larlite_opreco/prod_v08_00_00_01/data_extbnb_reco1_mcc9/extbnb_C2/00/00/73/91/larlite_opreco_3c9e059f-8040-4e47-9d31-3350a68c2999.root'
p370
aS'/pnfs/uboone/data/uboone/larlite_opreco/prod_v08_00_00_01/data_extbnb_reco1_mcc9/extbnb_C2/00/00/73/98/larlite_opreco_93c660a4-f08c-4ea0-ae75-b9e129ccccd3.root'
p371
aS'/pnfs/uboone/data/uboone/larlite_opreco/prod_v08_00_00_01/data_extbnb_reco1_mcc9/extbnb_C2/00/00/74/66/larlite_opreco_b41e00f7-4477-4021-b18b-5ba4e7d4f513.root'
p372
aS'/pnfs/uboone/data/uboone/larlite_opreco/prod_v08_00_00_01/data_extbnb_reco1_mcc9/extbnb_C2/00/00/74/00/larlite_opreco_0a8a4748-1eeb-4f72-9cd9-e794627987be.root'
p373
aS'/pnfs/uboone/data/uboone/larlite_opreco/prod_v08_00_00_01/data_extbnb_reco1_mcc9/extbnb_C2/00/00/74/65/larlite_opreco_17767203-e3ea-49a4-a166-de61f224b411.root'
p374
aS'/pnfs/uboone/data/uboone/larlite_opreco/prod_v08_00_00_01/data_extbnb_reco1_mcc9/extbnb_C2/00/00/73/93/larlite_opreco_218db817-af6e-4add-92f8-b95456cd7250.root'
p375
aS'/pnfs/uboone/data/uboone/larlite_opreco/prod_v08_00_00_01/data_extbnb_reco1_mcc9/extbnb_C2/00/00/74/40/larlite_opreco_54eb9b03-fd33-4092-9081-304094bce96f.root'
p376
aS'/pnfs/uboone/data/uboone/larlite_opreco/prod_v08_00_00_01/data_extbnb_reco1_mcc9/extbnb_C2/00/00/74/17/larlite_opreco_923e7116-21c6-4e0c-bd57-a0904aa78565.root'
p377
aS'/pnfs/uboone/data/uboone/larlite_opreco/prod_v08_00_00_01/data_extbnb_reco1_mcc9/extbnb_C2/00/00/74/00/larlite_opreco_22530cde-ba4a-4e89-9d96-4fef7e28c3c5.root'
p378
aS'/pnfs/uboone/data/uboone/larlite_opreco/prod_v08_00_00_01/data_extbnb_reco1_mcc9/extbnb_C2/00/00/73/91/larlite_opreco_8f982c6a-73a2-4849-b5b5-aef1ac0631a4.root'
p379
aS'/pnfs/uboone/data/uboone/larlite_opreco/prod_v08_00_00_01/data_extbnb_reco1_mcc9/extbnb_C2/00/00/74/58/larlite_opreco_34fbd6f7-ff7b-4052-b69e-66f4cdef8529.root'
p380
aS'/pnfs/uboone/data/uboone/larlite_opreco/prod_v08_00_00_01/data_extbnb_reco1_mcc9/extbnb_C2/00/00/74/57/larlite_opreco_ebf3e25c-b041-42aa-98b9-e7f90e74a1bf.root'
p381
aS'/pnfs/uboone/data/uboone/larlite_opreco/prod_v08_00_00_01/data_extbnb_reco1_mcc9/extbnb_C2/00/00/74/42/larlite_opreco_c275d55d-30d8-4aa7-8ed2-0aa36122aaa3.root'
p382
aS'/pnfs/uboone/data/uboone/larlite_opreco/prod_v08_00_00_01/data_extbnb_reco1_mcc9/extbnb_C2/00/00/74/65/larlite_opreco_3bb4723c-088d-4f41-b2bf-471f940fd6c0.root'
p383
aS'/pnfs/uboone/data/uboone/larlite_opreco/prod_v08_00_00_01/data_extbnb_reco1_mcc9/extbnb_C2/00/00/74/64/larlite_opreco_713e86b3-bfa5-4437-80d8-acfb823a2a26.root'
p384
aS'/pnfs/uboone/data/uboone/larlite_opreco/prod_v08_00_00_01/data_extbnb_reco1_mcc9/extbnb_C2/00/00/74/03/larlite_opreco_b9a00ac0-a164-4ed7-b30d-e0b00c7ff148.root'
p385
aS'/pnfs/uboone/data/uboone/larlite_opreco/prod_v08_00_00_01/data_extbnb_reco1_mcc9/extbnb_C2/00/00/74/58/larlite_opreco_845047f3-0c43-4d51-b115-249bc9dce9eb.root'
p386
aS'/pnfs/uboone/data/uboone/larlite_opreco/prod_v08_00_00_01/data_extbnb_reco1_mcc9/extbnb_C2/00/00/74/61/larlite_opreco_ba7c798e-3388-4b0d-a412-ab7db34050f3.root'
p387
aS'/pnfs/uboone/data/uboone/larlite_opreco/prod_v08_00_00_01/data_extbnb_reco1_mcc9/extbnb_C2/00/00/74/00/larlite_opreco_8c38b8c5-08a0-4dfc-a6a7-ed406fe5c9d6.root'
p388
aS'/pnfs/uboone/data/uboone/larlite_opreco/prod_v08_00_00_01/data_extbnb_reco1_mcc9/extbnb_C2/00/00/74/57/larlite_opreco_6b6c666b-ee56-4415-a389-fd34d2a1dfa4.root'
p389
aS'/pnfs/uboone/data/uboone/larlite_opreco/prod_v08_00_00_01/data_extbnb_reco1_mcc9/extbnb_C2/00/00/74/66/larlite_opreco_72b4601c-34e9-45a1-b280-c821ae9fea65.root'
p390
aS'/pnfs/uboone/data/uboone/larlite_opreco/prod_v08_00_00_01/data_extbnb_reco1_mcc9/extbnb_C2/00/00/73/93/larlite_opreco_644f9462-9e3c-4a4e-b7c2-f9e2c069edfa.root'
p391
aS'/pnfs/uboone/data/uboone/larlite_opreco/prod_v08_00_00_01/data_extbnb_reco1_mcc9/extbnb_C2/00/00/73/91/larlite_opreco_71e26eb8-7a21-4309-9084-21d579d50547.root'
p392
aS'/pnfs/uboone/data/uboone/larlite_opreco/prod_v08_00_00_01/data_extbnb_reco1_mcc9/extbnb_C2/00/00/74/21/larlite_opreco_4f973288-3512-4536-b44f-e7b52a7d1623.root'
p393
aS'/pnfs/uboone/data/uboone/larlite_opreco/prod_v08_00_00_01/data_extbnb_reco1_mcc9/extbnb_C2/00/00/74/19/larlite_opreco_34b2ef10-4ec3-4b4f-aa5a-203256c7202c.root'
p394
aS'/pnfs/uboone/data/uboone/larlite_opreco/prod_v08_00_00_01/data_extbnb_reco1_mcc9/extbnb_C2/00/00/74/20/larlite_opreco_820c1055-ced6-45bb-b304-d2ee7d101df8.root'
p395
aS'/pnfs/uboone/data/uboone/larlite_opreco/prod_v08_00_00_01/data_extbnb_reco1_mcc9/extbnb_C2/00/00/74/03/larlite_opreco_5ef38282-95d0-4f68-a7b8-a266fb034314.root'
p396
aS'/pnfs/uboone/data/uboone/larlite_opreco/prod_v08_00_00_01/data_extbnb_reco1_mcc9/extbnb_C2/00/00/74/42/larlite_opreco_9a52fbc6-e51d-4730-a6b7-bfa4df2edb7d.root'
p397
aS'/pnfs/uboone/data/uboone/larlite_opreco/prod_v08_00_00_01/data_extbnb_reco1_mcc9/extbnb_C2/00/00/74/73/larlite_opreco_4095d930-052e-4baa-b907-fbdfb290ab1d.root'
p398
aS'/pnfs/uboone/data/uboone/larlite_opreco/prod_v08_00_00_01/data_extbnb_reco1_mcc9/extbnb_C2/00/00/74/36/larlite_opreco_6af4c188-b017-40fa-a0fd-553957117e4a.root'
p399
aS'/pnfs/uboone/data/uboone/larlite_opreco/prod_v08_00_00_01/data_extbnb_reco1_mcc9/extbnb_C2/00/00/74/00/larlite_opreco_dcccb3a6-f368-4808-a196-441cbef59574.root'
p400
aS'/pnfs/uboone/data/uboone/larlite_opreco/prod_v08_00_00_01/data_extbnb_reco1_mcc9/extbnb_C2/00/00/74/57/larlite_opreco_7919a3f4-0a35-43d9-8796-baf029b7893e.root'
p401
aS'/pnfs/uboone/data/uboone/larlite_opreco/prod_v08_00_00_01/data_extbnb_reco1_mcc9/extbnb_C2/00/00/74/69/larlite_opreco_84826e65-0fcb-4491-99b7-cc7d66187614.root'
p402
aS'/pnfs/uboone/data/uboone/larlite_opreco/prod_v08_00_00_01/data_extbnb_reco1_mcc9/extbnb_C2/00/00/74/57/larlite_opreco_40aff67c-ca39-4145-90fe-5a77a5a02b46.root'
p403
aS'/pnfs/uboone/data/uboone/larlite_opreco/prod_v08_00_00_01/data_extbnb_reco1_mcc9/extbnb_C2/00/00/74/57/larlite_opreco_ab08f9ed-04e9-4f36-a3b7-f14d342f3025.root'
p404
aS'/pnfs/uboone/data/uboone/larlite_opreco/prod_v08_00_00_01/data_extbnb_reco1_mcc9/extbnb_C2/00/00/74/66/larlite_opreco_030ab3fd-8107-4b20-9bc9-79d3227725f7.root'
p405
aS'/pnfs/uboone/data/uboone/larlite_opreco/prod_v08_00_00_01/data_extbnb_reco1_mcc9/extbnb_C2/00/00/73/91/larlite_opreco_c3e45f3c-1196-4950-ac9b-dd96b5c51e80.root'
p406
aS'/pnfs/uboone/data/uboone/larlite_opreco/prod_v08_00_00_01/data_extbnb_reco1_mcc9/extbnb_C2/00/00/74/71/larlite_opreco_1929c417-75bd-429a-959a-10f9252da3ec.root'
p407
aS'/pnfs/uboone/data/uboone/larlite_opreco/prod_v08_00_00_01/data_extbnb_reco1_mcc9/extbnb_C2/00/00/74/56/larlite_opreco_36f00426-ed27-4e6f-9552-1bf1bb79676b.root'
p408
aS'/pnfs/uboone/data/uboone/larlite_opreco/prod_v08_00_00_01/data_extbnb_reco1_mcc9/extbnb_C2/00/00/74/42/larlite_opreco_fd769c45-37dd-4741-99eb-5e901cc0d9ef.root'
p409
aS'/pnfs/uboone/data/uboone/larlite_opreco/prod_v08_00_00_01/data_extbnb_reco1_mcc9/extbnb_C2/00/00/73/91/larlite_opreco_fbe17f05-1cad-4a72-915b-05c96d6a6c34.root'
p410
aS'/pnfs/uboone/data/uboone/larlite_opreco/prod_v08_00_00_01/data_extbnb_reco1_mcc9/extbnb_C2/00/00/74/03/larlite_opreco_8fcec073-7ea1-4275-afec-3a84603d1088.root'
p411
aS'/pnfs/uboone/data/uboone/larlite_opreco/prod_v08_00_00_01/data_extbnb_reco1_mcc9/extbnb_C2/00/00/74/65/larlite_opreco_2565aefb-087d-4cbc-802d-a499a648ace1.root'
p412
aS'/pnfs/uboone/data/uboone/larlite_opreco/prod_v08_00_00_01/data_extbnb_reco1_mcc9/extbnb_C2/00/00/73/93/larlite_opreco_e4afbda6-77ca-4436-a10d-a3278737362d.root'
p413
aS'/pnfs/uboone/data/uboone/larlite_opreco/prod_v08_00_00_01/data_extbnb_reco1_mcc9/extbnb_C2/00/00/73/91/larlite_opreco_e145c248-6d4a-4ed4-9ea2-6c5536b047c6.root'
p414
aS'/pnfs/uboone/data/uboone/larlite_opreco/prod_v08_00_00_01/data_extbnb_reco1_mcc9/extbnb_C2/00/00/74/65/larlite_opreco_f50463a8-fcfb-4a49-83e9-e0becf066026.root'
p415
aS'/pnfs/uboone/data/uboone/larlite_opreco/prod_v08_00_00_01/data_extbnb_reco1_mcc9/extbnb_C2/00/00/74/66/larlite_opreco_6eedcada-482e-420c-99ea-30ddfb5c9b9b.root'
p416
aS'/pnfs/uboone/data/uboone/larlite_opreco/prod_v08_00_00_01/data_extbnb_reco1_mcc9/extbnb_C2/00/00/73/98/larlite_opreco_886671f5-1ee4-4e66-a1af-7865a951ce1d.root'
p417
aS'/pnfs/uboone/data/uboone/larlite_opreco/prod_v08_00_00_01/data_extbnb_reco1_mcc9/extbnb_C2/00/00/74/66/larlite_opreco_29d17c36-6bcc-4e89-9f03-511310e883cd.root'
p418
aS'/pnfs/uboone/data/uboone/larlite_opreco/prod_v08_00_00_01/data_extbnb_reco1_mcc9/extbnb_C2/00/00/74/68/larlite_opreco_66bcd2ac-8a6a-4e08-8867-02e626428649.root'
p419
aS'/pnfs/uboone/data/uboone/larlite_opreco/prod_v08_00_00_01/data_extbnb_reco1_mcc9/extbnb_C2/00/00/74/39/larlite_opreco_b1235387-8433-4e04-a530-d61c3ad6c7a7.root'
p420
aS'/pnfs/uboone/data/uboone/larlite_opreco/prod_v08_00_00_01/data_extbnb_reco1_mcc9/extbnb_C2/00/00/73/98/larlite_opreco_cb23fe60-f6ae-4664-97f6-94837f0655b0.root'
p421
aS'/pnfs/uboone/data/uboone/larlite_opreco/prod_v08_00_00_01/data_extbnb_reco1_mcc9/extbnb_C2/00/00/74/57/larlite_opreco_f438cbd4-b952-4150-af6b-5364216f713e.root'
p422
aS'/pnfs/uboone/data/uboone/larlite_opreco/prod_v08_00_00_01/data_extbnb_reco1_mcc9/extbnb_C2/00/00/74/57/larlite_opreco_46d70817-8725-470e-ab68-329e0203184a.root'
p423
aS'/pnfs/uboone/data/uboone/larlite_opreco/prod_v08_00_00_01/data_extbnb_reco1_mcc9/extbnb_C2/00/00/74/03/larlite_opreco_6042f11a-64c8-4e55-929c-6cba41307054.root'
p424
aS'/pnfs/uboone/data/uboone/larlite_opreco/prod_v08_00_00_01/data_extbnb_reco1_mcc9/extbnb_C2/00/00/74/20/larlite_opreco_7afc313d-6b67-4276-bdf3-9726f7989cd3.root'
p425
aS'/pnfs/uboone/data/uboone/larlite_opreco/prod_v08_00_00_01/data_extbnb_reco1_mcc9/extbnb_C2/00/00/74/67/larlite_opreco_9f947994-805f-49f0-a5a5-e5a15c6040ea.root'
p426
aS'/pnfs/uboone/data/uboone/larlite_opreco/prod_v08_00_00_01/data_extbnb_reco1_mcc9/extbnb_C2/00/00/74/66/larlite_opreco_e1472e4b-d7d0-4c9a-a2f5-09362d1431f1.root'
p427
aS'/pnfs/uboone/data/uboone/larlite_opreco/prod_v08_00_00_01/data_extbnb_reco1_mcc9/extbnb_C2/00/00/74/73/larlite_opreco_60f8fd86-1696-4b92-b50f-449ae84405dc.root'
p428
aS'/pnfs/uboone/data/uboone/larlite_opreco/prod_v08_00_00_01/data_extbnb_reco1_mcc9/extbnb_C2/00/00/74/63/larlite_opreco_6af16a6c-dc07-456c-a32e-a714e30854da.root'
p429
aS'/pnfs/uboone/data/uboone/larlite_opreco/prod_v08_00_00_01/data_extbnb_reco1_mcc9/extbnb_C2/00/00/74/00/larlite_opreco_169b5b52-2f1a-4805-9af3-d8cedc173aa9.root'
p430
aS'/pnfs/uboone/data/uboone/larlite_opreco/prod_v08_00_00_01/data_extbnb_reco1_mcc9/extbnb_C2/00/00/74/59/larlite_opreco_72fee386-137a-4c1e-9b8d-6edc2072ca0a.root'
p431
aS'/pnfs/uboone/data/uboone/larlite_opreco/prod_v08_00_00_01/data_extbnb_reco1_mcc9/extbnb_C2/00/00/74/21/larlite_opreco_e799a1da-05db-4157-984c-02dcc63d7176.root'
p432
aS'/pnfs/uboone/data/uboone/larlite_opreco/prod_v08_00_00_01/data_extbnb_reco1_mcc9/extbnb_C2/00/00/73/90/larlite_opreco_9cc827f8-f82e-4eaa-bc44-3b22a27e5c9e.root'
p433
aS'/pnfs/uboone/data/uboone/larlite_opreco/prod_v08_00_00_01/data_extbnb_reco1_mcc9/extbnb_C2/00/00/73/91/larlite_opreco_264d3eb7-e693-453d-bea4-63de679fd092.root'
p434
aS'/pnfs/uboone/data/uboone/larlite_opreco/prod_v08_00_00_01/data_extbnb_reco1_mcc9/extbnb_C2/00/00/74/57/larlite_opreco_bc04aa6e-20d5-4d9f-a936-40f49ca28a36.root'
p435
aS'/pnfs/uboone/data/uboone/larlite_opreco/prod_v08_00_00_01/data_extbnb_reco1_mcc9/extbnb_C2/00/00/74/59/larlite_opreco_3529d398-60c3-469f-a400-5dce37efe001.root'
p436
aS'/pnfs/uboone/data/uboone/larlite_opreco/prod_v08_00_00_01/data_extbnb_reco1_mcc9/extbnb_C2/00/00/73/91/larlite_opreco_408fa927-a6e3-476d-b9e1-0b88fd31b00a.root'
p437
aS'/pnfs/uboone/data/uboone/larlite_opreco/prod_v08_00_00_01/data_extbnb_reco1_mcc9/extbnb_C2/00/00/74/61/larlite_opreco_cda21101-acbd-4276-b113-f40a93b15081.root'
p438
aS'/pnfs/uboone/data/uboone/larlite_opreco/prod_v08_00_00_01/data_extbnb_reco1_mcc9/extbnb_C2/00/00/73/34/larlite_opreco_1078e953-4a1b-4524-b400-744c75c2162b.root'
p439
aS'/pnfs/uboone/data/uboone/larlite_opreco/prod_v08_00_00_01/data_extbnb_reco1_mcc9/extbnb_C2/00/00/74/62/larlite_opreco_fe6cffc6-8d27-493d-a824-2a906ac814f7.root'
p440
aS'/pnfs/uboone/data/uboone/larlite_opreco/prod_v08_00_00_01/data_extbnb_reco1_mcc9/extbnb_C2/00/00/74/65/larlite_opreco_d281d779-8621-420b-bcb6-bba9b4b5ed82.root'
p441
aS'/pnfs/uboone/data/uboone/larlite_opreco/prod_v08_00_00_01/data_extbnb_reco1_mcc9/extbnb_C2/00/00/74/00/larlite_opreco_a0efcd8c-28c4-4e0d-bfcb-68570dde0f25.root'
p442
aS'/pnfs/uboone/data/uboone/larlite_opreco/prod_v08_00_00_01/data_extbnb_reco1_mcc9/extbnb_C2/00/00/74/73/larlite_opreco_b6e0b066-9213-47d5-a065-0b87569a1e06.root'
p443
aS'/pnfs/uboone/data/uboone/larlite_opreco/prod_v08_00_00_01/data_extbnb_reco1_mcc9/extbnb_C2/00/00/74/61/larlite_opreco_edf37c0a-3d82-46d4-bf25-0b1dbdb17ced.root'
p444
aS'/pnfs/uboone/data/uboone/larlite_opreco/prod_v08_00_00_01/data_extbnb_reco1_mcc9/extbnb_C2/00/00/74/13/larlite_opreco_bfe16d44-1698-4f9b-8159-7989e8911979.root'
p445
aS'/pnfs/uboone/data/uboone/larlite_opreco/prod_v08_00_00_01/data_extbnb_reco1_mcc9/extbnb_C2/00/00/74/42/larlite_opreco_4f02cf8a-607f-4826-8ac8-bb4d4eb3215b.root'
p446
aS'/pnfs/uboone/data/uboone/larlite_opreco/prod_v08_00_00_01/data_extbnb_reco1_mcc9/extbnb_C2/00/00/74/65/larlite_opreco_54bc37fe-3dda-468e-bee7-44a987ec14a9.root'
p447
aS'/pnfs/uboone/data/uboone/larlite_opreco/prod_v08_00_00_01/data_extbnb_reco1_mcc9/extbnb_C2/00/00/74/57/larlite_opreco_f4853d76-baf7-4715-b4f3-ea8ef5109e8b.root'
p448
aS'/pnfs/uboone/data/uboone/larlite_opreco/prod_v08_00_00_01/data_extbnb_reco1_mcc9/extbnb_C2/00/00/74/58/larlite_opreco_0e9982e7-a816-463a-8102-378ee082fa34.root'
p449
aS'/pnfs/uboone/data/uboone/larlite_opreco/prod_v08_00_00_01/data_extbnb_reco1_mcc9/extbnb_C2/00/00/73/91/larlite_opreco_cfe967cb-5b3e-4869-98bb-8afc04f3becc.root'
p450
aS'/pnfs/uboone/data/uboone/larlite_opreco/prod_v08_00_00_01/data_extbnb_reco1_mcc9/extbnb_C2/00/00/74/64/larlite_opreco_1393badb-3fd6-43a5-82d9-c6b1dd31685e.root'
p451
aS'/pnfs/uboone/data/uboone/larlite_opreco/prod_v08_00_00_01/data_extbnb_reco1_mcc9/extbnb_C2/00/00/74/42/larlite_opreco_c7b58724-5a88-4b4c-a3c9-4ce4e2fc919a.root'
p452
aS'/pnfs/uboone/data/uboone/larlite_opreco/prod_v08_00_00_01/data_extbnb_reco1_mcc9/extbnb_C2/00/00/74/36/larlite_opreco_e8677add-a190-4953-82c1-344ac91ad3c6.root'
p453
aS'/pnfs/uboone/data/uboone/larlite_opreco/prod_v08_00_00_01/data_extbnb_reco1_mcc9/extbnb_C2/00/00/74/61/larlite_opreco_50d26b4c-70fc-476d-b600-2ccb72fa0a50.root'
p454
aS'/pnfs/uboone/data/uboone/larlite_opreco/prod_v08_00_00_01/data_extbnb_reco1_mcc9/extbnb_C2/00/00/74/55/larlite_opreco_55ccfa63-d4df-478e-9943-a1de684d6625.root'
p455
aS'/pnfs/uboone/data/uboone/larlite_opreco/prod_v08_00_00_01/data_extbnb_reco1_mcc9/extbnb_C2/00/00/74/57/larlite_opreco_4796a926-9e7a-4712-b6a3-ae80802d192f.root'
p456
aS'/pnfs/uboone/data/uboone/larlite_opreco/prod_v08_00_00_01/data_extbnb_reco1_mcc9/extbnb_C2/00/00/73/91/larlite_opreco_9cf2aa37-cce8-4d1b-ae04-0c42e7a79bdb.root'
p457
aS'/pnfs/uboone/data/uboone/larlite_opreco/prod_v08_00_00_01/data_extbnb_reco1_mcc9/extbnb_C2/00/00/74/57/larlite_opreco_98b49b2b-3b1a-468a-867a-6befd6d4cb0f.root'
p458
aS'/pnfs/uboone/data/uboone/larlite_opreco/prod_v08_00_00_01/data_extbnb_reco1_mcc9/extbnb_C2/00/00/74/03/larlite_opreco_e65dd65d-f9eb-47d2-8b04-285ba1dc5be3.root'
p459
aS'/pnfs/uboone/data/uboone/larlite_opreco/prod_v08_00_00_01/data_extbnb_reco1_mcc9/extbnb_C2/00/00/74/66/larlite_opreco_7072acd9-9e4b-4c40-909f-51bffb55d3f4.root'
p460
aS'/pnfs/uboone/data/uboone/larlite_opreco/prod_v08_00_00_01/data_extbnb_reco1_mcc9/extbnb_C2/00/00/74/66/larlite_opreco_d4d13a83-d0cb-4887-9b6e-b7747cf05506.root'
p461
aS'/pnfs/uboone/data/uboone/larlite_opreco/prod_v08_00_00_01/data_extbnb_reco1_mcc9/extbnb_C2/00/00/74/71/larlite_opreco_07d4ca1c-3e18-478a-b0b3-fbbd181335c2.root'
p462
aS'/pnfs/uboone/data/uboone/larlite_opreco/prod_v08_00_00_01/data_extbnb_reco1_mcc9/extbnb_C2/00/00/74/58/larlite_opreco_0a7a0260-d3aa-4497-af79-fa5a965f7f66.root'
p463
aS'/pnfs/uboone/data/uboone/larlite_opreco/prod_v08_00_00_01/data_extbnb_reco1_mcc9/extbnb_C2/00/00/74/62/larlite_opreco_c73146e1-6839-4f85-a6da-f9c4a61b93e2.root'
p464
aS'/pnfs/uboone/data/uboone/larlite_opreco/prod_v08_00_00_01/data_extbnb_reco1_mcc9/extbnb_C2/00/00/74/64/larlite_opreco_9a0dbbac-6005-463c-a299-0f5b34d6d032.root'
p465
aS'/pnfs/uboone/data/uboone/larlite_opreco/prod_v08_00_00_01/data_extbnb_reco1_mcc9/extbnb_C2/00/00/74/65/larlite_opreco_245d5c2b-5b1a-47a6-a92a-6b4a76e3c378.root'
p466
aS'/pnfs/uboone/data/uboone/larlite_opreco/prod_v08_00_00_01/data_extbnb_reco1_mcc9/extbnb_C2/00/00/74/57/larlite_opreco_730a7be5-dbed-452c-804f-fd55a8a42b9f.root'
p467
aS'/pnfs/uboone/data/uboone/larlite_opreco/prod_v08_00_00_01/data_extbnb_reco1_mcc9/extbnb_C2/00/00/74/00/larlite_opreco_b14266f6-211c-47a6-9ced-9ab2a3d95098.root'
p468
aS'/pnfs/uboone/data/uboone/larlite_opreco/prod_v08_00_00_01/data_extbnb_reco1_mcc9/extbnb_C2/00/00/74/66/larlite_opreco_0c1f680a-3763-4cc8-a1e2-de116839d760.root'
p469
aS'/pnfs/uboone/data/uboone/larlite_opreco/prod_v08_00_00_01/data_extbnb_reco1_mcc9/extbnb_C2/00/00/73/49/larlite_opreco_0a9c682d-e163-4ae4-8d8e-89641810a700.root'
p470
aS'/pnfs/uboone/data/uboone/larlite_opreco/prod_v08_00_00_01/data_extbnb_reco1_mcc9/extbnb_C2/00/00/73/92/larlite_opreco_eb6ff802-bdcf-4088-960a-77631dc03842.root'
p471
aS'/pnfs/uboone/data/uboone/larlite_opreco/prod_v08_00_00_01/data_extbnb_reco1_mcc9/extbnb_C2/00/00/74/66/larlite_opreco_ccc3d34e-9ec8-4374-b052-c5c00a9c42cb.root'
p472
aS'/pnfs/uboone/data/uboone/larlite_opreco/prod_v08_00_00_01/data_extbnb_reco1_mcc9/extbnb_C2/00/00/74/61/larlite_opreco_41bd3e51-db7b-4d30-9c60-42fb9d58bc8d.root'
p473
aS'/pnfs/uboone/data/uboone/larlite_opreco/prod_v08_00_00_01/data_extbnb_reco1_mcc9/extbnb_C2/00/00/74/62/larlite_opreco_3258aa10-5706-4703-9a07-9e800da19ca8.root'
p474
aS'/pnfs/uboone/data/uboone/larlite_opreco/prod_v08_00_00_01/data_extbnb_reco1_mcc9/extbnb_C2/00/00/74/58/larlite_opreco_98ea2b54-eba8-44a5-8b0f-7cebb185d648.root'
p475
aS'/pnfs/uboone/data/uboone/larlite_opreco/prod_v08_00_00_01/data_extbnb_reco1_mcc9/extbnb_C2/00/00/74/64/larlite_opreco_f494abbb-b389-48b8-9f63-c6725f2f0341.root'
p476
aS'/pnfs/uboone/data/uboone/larlite_opreco/prod_v08_00_00_01/data_extbnb_reco1_mcc9/extbnb_C2/00/00/74/66/larlite_opreco_1f0dfcf7-a836-48d2-8ca6-69485f80b9e6.root'
p477
aS'/pnfs/uboone/data/uboone/larlite_opreco/prod_v08_00_00_01/data_extbnb_reco1_mcc9/extbnb_C2/00/00/74/42/larlite_opreco_71e6208f-02fc-4cca-b103-768e93454630.root'
p478
aS'/pnfs/uboone/data/uboone/larlite_opreco/prod_v08_00_00_01/data_extbnb_reco1_mcc9/extbnb_C2/00/00/74/73/larlite_opreco_c5dcddf9-aa68-4e9d-821f-369a221f5132.root'
p479
aS'/pnfs/uboone/data/uboone/larlite_opreco/prod_v08_00_00_01/data_extbnb_reco1_mcc9/extbnb_C2/00/00/74/66/larlite_opreco_3c75e40e-a027-478a-8ffb-7b2d0a887c96.root'
p480
aS'/pnfs/uboone/data/uboone/larlite_opreco/prod_v08_00_00_01/data_extbnb_reco1_mcc9/extbnb_C2/00/00/74/73/larlite_opreco_3ce48c26-7087-46f5-b619-34d990ccc62b.root'
p481
aS'/pnfs/uboone/data/uboone/larlite_opreco/prod_v08_00_00_01/data_extbnb_reco1_mcc9/extbnb_C2/00/00/74/66/larlite_opreco_b8c48945-1fbd-48cf-853d-24fa25a64ff3.root'
p482
aS'/pnfs/uboone/data/uboone/larlite_opreco/prod_v08_00_00_01/data_extbnb_reco1_mcc9/extbnb_C2/00/00/74/61/larlite_opreco_fa363ab7-ac40-4e30-9ac5-0d280d22e3d1.root'
p483
aS'/pnfs/uboone/data/uboone/larlite_opreco/prod_v08_00_00_01/data_extbnb_reco1_mcc9/extbnb_C2/00/00/73/49/larlite_opreco_800f0838-7c4f-48d5-a2fd-ea95578de66d.root'
p484
aS'/pnfs/uboone/data/uboone/larlite_opreco/prod_v08_00_00_01/data_extbnb_reco1_mcc9/extbnb_C2/00/00/74/20/larlite_opreco_2253714b-86d8-4ccf-aca0-65fdb5dd1ac0.root'
p485
aS'/pnfs/uboone/data/uboone/larlite_opreco/prod_v08_00_00_01/data_extbnb_reco1_mcc9/extbnb_C2/00/00/74/18/larlite_opreco_8ead78ef-9db6-4898-b51c-2a2b453071dc.root'
p486
aS'/pnfs/uboone/data/uboone/larlite_opreco/prod_v08_00_00_01/data_extbnb_reco1_mcc9/extbnb_C2/00/00/73/93/larlite_opreco_1b7d104a-2eea-4e27-bdde-39ca15680b3f.root'
p487
aS'/pnfs/uboone/data/uboone/larlite_opreco/prod_v08_00_00_01/data_extbnb_reco1_mcc9/extbnb_C2/00/00/74/58/larlite_opreco_1ebef1ec-ee9e-4455-a507-9a4385d0a648.root'
p488
aS'/pnfs/uboone/data/uboone/larlite_opreco/prod_v08_00_00_01/data_extbnb_reco1_mcc9/extbnb_C2/00/00/74/00/larlite_opreco_e20b69e2-496c-4b44-87a5-5c900eaff304.root'
p489
aS'/pnfs/uboone/data/uboone/larlite_opreco/prod_v08_00_00_01/data_extbnb_reco1_mcc9/extbnb_C2/00/00/74/20/larlite_opreco_4981cee1-9dcb-409d-9053-4ee04db04fe2.root'
p490
aS'/pnfs/uboone/data/uboone/larlite_opreco/prod_v08_00_00_01/data_extbnb_reco1_mcc9/extbnb_C2/00/00/73/93/larlite_opreco_d1d5d90b-96e0-4bb4-810c-1fe1b1305c71.root'
p491
aS'/pnfs/uboone/data/uboone/larlite_opreco/prod_v08_00_00_01/data_extbnb_reco1_mcc9/extbnb_C2/00/00/74/66/larlite_opreco_fb690a4b-edcf-44e3-987f-c68058651276.root'
p492
aS'/pnfs/uboone/data/uboone/larlite_opreco/prod_v08_00_00_01/data_extbnb_reco1_mcc9/extbnb_C2/00/00/74/59/larlite_opreco_d1138960-c231-4c3e-94b6-957e7c29543a.root'
p493
aS'/pnfs/uboone/data/uboone/larlite_opreco/prod_v08_00_00_01/data_extbnb_reco1_mcc9/extbnb_C2/00/00/74/63/larlite_opreco_f87c1266-06d4-4f48-9ec5-8c331bf05785.root'
p494
aS'/pnfs/uboone/data/uboone/larlite_opreco/prod_v08_00_00_01/data_extbnb_reco1_mcc9/extbnb_C2/00/00/73/49/larlite_opreco_49422181-5710-4f00-b2b2-0d80ffdc7414.root'
p495
aS'/pnfs/uboone/data/uboone/larlite_opreco/prod_v08_00_00_01/data_extbnb_reco1_mcc9/extbnb_C2/00/00/74/00/larlite_opreco_a66e6f4b-ed02-40b8-8c63-c490e6f3d180.root'
p496
aS'/pnfs/uboone/data/uboone/larlite_opreco/prod_v08_00_00_01/data_extbnb_reco1_mcc9/extbnb_C2/00/00/73/91/larlite_opreco_d06dc009-c720-4845-bd8c-acc98ab6a185.root'
p497
aS'/pnfs/uboone/data/uboone/larlite_opreco/prod_v08_00_00_01/data_extbnb_reco1_mcc9/extbnb_C2/00/00/74/69/larlite_opreco_6f93fff8-5c7e-4933-8adf-da64310c2684.root'
p498
aS'/pnfs/uboone/data/uboone/larlite_opreco/prod_v08_00_00_01/data_extbnb_reco1_mcc9/extbnb_C2/00/00/74/66/larlite_opreco_4686687d-7c02-4762-9977-201a8a411378.root'
p499
aS'/pnfs/uboone/data/uboone/larlite_opreco/prod_v08_00_00_01/data_extbnb_reco1_mcc9/extbnb_C2/00/00/74/66/larlite_opreco_b2e9b14c-26b9-4730-be5a-57041726b57f.root'
p500
aS'/pnfs/uboone/data/uboone/larlite_opreco/prod_v08_00_00_01/data_extbnb_reco1_mcc9/extbnb_C2/00/00/74/61/larlite_opreco_ef4515c7-ebea-4056-870f-7178d805da72.root'
p501
aS'/pnfs/uboone/data/uboone/larlite_opreco/prod_v08_00_00_01/data_extbnb_reco1_mcc9/extbnb_C2/00/00/74/61/larlite_opreco_351fb3c5-b131-482e-a2f5-aa56fb67738a.root'
p502
aS'/pnfs/uboone/data/uboone/larlite_opreco/prod_v08_00_00_01/data_extbnb_reco1_mcc9/extbnb_C2/00/00/74/71/larlite_opreco_96ed8758-b92f-4dce-8e4e-e0ed9a8dd870.root'
p503
aS'/pnfs/uboone/data/uboone/larlite_opreco/prod_v08_00_00_01/data_extbnb_reco1_mcc9/extbnb_C2/00/00/74/66/larlite_opreco_7e5a69c3-0539-42e2-82fa-ea98581a4e7f.root'
p504
aS'/pnfs/uboone/data/uboone/larlite_opreco/prod_v08_00_00_01/data_extbnb_reco1_mcc9/extbnb_C2/00/00/74/00/larlite_opreco_aeba1c4e-dd99-439f-9098-ea1ff2f288e6.root'
p505
aS'/pnfs/uboone/data/uboone/larlite_opreco/prod_v08_00_00_01/data_extbnb_reco1_mcc9/extbnb_C2/00/00/74/66/larlite_opreco_ad9d602f-18aa-4c92-8e4c-78efecc6b71c.root'
p506
aS'/pnfs/uboone/data/uboone/larlite_opreco/prod_v08_00_00_01/data_extbnb_reco1_mcc9/extbnb_C2/00/00/74/61/larlite_opreco_c941c318-f875-4bf9-8a17-e633fe9ce006.root'
p507
aS'/pnfs/uboone/data/uboone/larlite_opreco/prod_v08_00_00_01/data_extbnb_reco1_mcc9/extbnb_C2/00/00/73/91/larlite_opreco_bb99b20c-bcc7-4d33-83a0-70add621ad18.root'
p508
aS'/pnfs/uboone/data/uboone/larlite_opreco/prod_v08_00_00_01/data_extbnb_reco1_mcc9/extbnb_C2/00/00/74/20/larlite_opreco_038ad390-7a93-477c-a13f-be5d34209b25.root'
p509
aS'/pnfs/uboone/data/uboone/larlite_opreco/prod_v08_00_00_01/data_extbnb_reco1_mcc9/extbnb_C2/00/00/73/91/larlite_opreco_8233dcef-226c-4878-9597-a5298782da19.root'
p510
aS'/pnfs/uboone/data/uboone/larlite_opreco/prod_v08_00_00_01/data_extbnb_reco1_mcc9/extbnb_C2/00/00/74/71/larlite_opreco_4ba988a6-a55a-4279-b8a7-f768afe4e18c.root'
p511
aS'/pnfs/uboone/data/uboone/larlite_opreco/prod_v08_00_00_01/data_extbnb_reco1_mcc9/extbnb_C2/00/00/74/66/larlite_opreco_97f600a5-9cbc-4baa-8700-ededc9c07840.root'
p512
aS'/pnfs/uboone/data/uboone/larlite_opreco/prod_v08_00_00_01/data_extbnb_reco1_mcc9/extbnb_C2/00/00/73/93/larlite_opreco_20ebb861-9a58-453c-9241-6d4c088a1d69.root'
p513
aS'/pnfs/uboone/data/uboone/larlite_opreco/prod_v08_00_00_01/data_extbnb_reco1_mcc9/extbnb_C2/00/00/74/69/larlite_opreco_8a2f21a1-93cf-4090-82c5-cb6fa0c8821d.root'
p514
aS'/pnfs/uboone/data/uboone/larlite_opreco/prod_v08_00_00_01/data_extbnb_reco1_mcc9/extbnb_C2/00/00/74/66/larlite_opreco_c5a8717f-b856-4bdb-aff5-57751195f8dd.root'
p515
aS'/pnfs/uboone/data/uboone/larlite_opreco/prod_v08_00_00_01/data_extbnb_reco1_mcc9/extbnb_C2/00/00/74/66/larlite_opreco_c479febe-75f3-4242-975f-e393c4cb8f55.root'
p516
aS'/pnfs/uboone/data/uboone/larlite_opreco/prod_v08_00_00_01/data_extbnb_reco1_mcc9/extbnb_C2/00/00/74/69/larlite_opreco_e8b212fa-2a2d-4422-a544-698d4cac1371.root'
p517
aS'/pnfs/uboone/data/uboone/larlite_opreco/prod_v08_00_00_01/data_extbnb_reco1_mcc9/extbnb_C2/00/00/74/71/larlite_opreco_ac64c874-dcce-4019-bb65-50e21dbf4126.root'
p518
aS'/pnfs/uboone/data/uboone/larlite_opreco/prod_v08_00_00_01/data_extbnb_reco1_mcc9/extbnb_C2/00/00/74/58/larlite_opreco_887e275e-8f59-4a83-b6b5-500c49fb2c3f.root'
p519
aS'/pnfs/uboone/data/uboone/larlite_opreco/prod_v08_00_00_01/data_extbnb_reco1_mcc9/extbnb_C2/00/00/74/57/larlite_opreco_4c2b5a24-de50-419f-af51-a96e9c778f5f.root'
p520
aS'/pnfs/uboone/data/uboone/larlite_opreco/prod_v08_00_00_01/data_extbnb_reco1_mcc9/extbnb_C2/00/00/74/66/larlite_opreco_b62af706-1e85-43af-bc68-c2cc07da49c3.root'
p521
aS'/pnfs/uboone/data/uboone/larlite_opreco/prod_v08_00_00_01/data_extbnb_reco1_mcc9/extbnb_C2/00/00/74/36/larlite_opreco_4287ab3a-8b5b-4f76-a468-b39a6661fdfd.root'
p522
aS'/pnfs/uboone/data/uboone/larlite_opreco/prod_v08_00_00_01/data_extbnb_reco1_mcc9/extbnb_C2/00/00/74/62/larlite_opreco_d94c7f65-8626-4936-b1ff-07b6c09430e1.root'
p523
aS'/pnfs/uboone/data/uboone/larlite_opreco/prod_v08_00_00_01/data_extbnb_reco1_mcc9/extbnb_C2/00/00/74/59/larlite_opreco_88c1ecdc-232e-46e7-904b-c0885950d87f.root'
p524
aS'/pnfs/uboone/data/uboone/larlite_opreco/prod_v08_00_00_01/data_extbnb_reco1_mcc9/extbnb_C2/00/00/73/98/larlite_opreco_8ff72d1d-8228-4d3a-b9ee-2e8f8673fb14.root'
p525
aS'/pnfs/uboone/data/uboone/larlite_opreco/prod_v08_00_00_01/data_extbnb_reco1_mcc9/extbnb_C2/00/00/74/66/larlite_opreco_a8b561fa-da5f-4e2d-8d06-0613fd8edc75.root'
p526
aS'/pnfs/uboone/data/uboone/larlite_opreco/prod_v08_00_00_01/data_extbnb_reco1_mcc9/extbnb_C2/00/00/73/98/larlite_opreco_f4879ce5-4da0-4f6b-8a8b-e483c8da00fc.root'
p527
aS'/pnfs/uboone/data/uboone/larlite_opreco/prod_v08_00_00_01/data_extbnb_reco1_mcc9/extbnb_C2/00/00/73/50/larlite_opreco_b6955c58-ea43-4258-acdd-2e8b925c4fd3.root'
p528
aS'/pnfs/uboone/data/uboone/larlite_opreco/prod_v08_00_00_01/data_extbnb_reco1_mcc9/extbnb_C2/00/00/73/97/larlite_opreco_b7c780d7-ae58-4135-9b83-42129fce3fa1.root'
p529
aS'/pnfs/uboone/data/uboone/larlite_opreco/prod_v08_00_00_01/data_extbnb_reco1_mcc9/extbnb_C2/00/00/74/66/larlite_opreco_7696c796-4f02-4171-b1c7-83b3d9b933cb.root'
p530
aS'/pnfs/uboone/data/uboone/larlite_opreco/prod_v08_00_00_01/data_extbnb_reco1_mcc9/extbnb_C2/00/00/74/66/larlite_opreco_f3683cb8-057c-4744-bdcc-7b9f58080522.root'
p531
aS'/pnfs/uboone/data/uboone/larlite_opreco/prod_v08_00_00_01/data_extbnb_reco1_mcc9/extbnb_C2/00/00/74/69/larlite_opreco_eef84452-b93b-41d9-8e1a-bd2596f33052.root'
p532
aS'/pnfs/uboone/data/uboone/larlite_opreco/prod_v08_00_00_01/data_extbnb_reco1_mcc9/extbnb_C2/00/00/74/61/larlite_opreco_504a97a1-b0eb-4d91-8538-be78842482ee.root'
p533
aS'/pnfs/uboone/data/uboone/larlite_opreco/prod_v08_00_00_01/data_extbnb_reco1_mcc9/extbnb_C2/00/00/74/69/larlite_opreco_e2425f83-e817-4f2a-87b7-6cc9469acf9e.root'
p534
aS'/pnfs/uboone/data/uboone/larlite_opreco/prod_v08_00_00_01/data_extbnb_reco1_mcc9/extbnb_C2/00/00/74/66/larlite_opreco_6909dbab-1a78-4d36-87d1-a16b018f0f96.root'
p535
aS'/pnfs/uboone/data/uboone/larlite_opreco/prod_v08_00_00_01/data_extbnb_reco1_mcc9/extbnb_C2/00/00/74/59/larlite_opreco_3154bfed-629c-4304-bdf0-56c015d9a0f2.root'
p536
aS'/pnfs/uboone/data/uboone/larlite_opreco/prod_v08_00_00_01/data_extbnb_reco1_mcc9/extbnb_C2/00/00/74/66/larlite_opreco_211a9e09-de52-4fcc-a971-50d521f611b8.root'
p537
aS'/pnfs/uboone/data/uboone/larlite_opreco/prod_v08_00_00_01/data_extbnb_reco1_mcc9/extbnb_C2/00/00/74/61/larlite_opreco_a57f9f9c-26aa-4d0c-a9cb-9374f3493e54.root'
p538
aS'/pnfs/uboone/data/uboone/larlite_opreco/prod_v08_00_00_01/data_extbnb_reco1_mcc9/extbnb_C2/00/00/73/91/larlite_opreco_7ff94d3f-e03e-424a-aeda-32932a591fc4.root'
p539
aS'/pnfs/uboone/data/uboone/larlite_opreco/prod_v08_00_00_01/data_extbnb_reco1_mcc9/extbnb_C2/00/00/74/61/larlite_opreco_20a7bdf0-e0d3-4384-b63b-59a98275bec3.root'
p540
aS'/pnfs/uboone/data/uboone/larlite_opreco/prod_v08_00_00_01/data_extbnb_reco1_mcc9/extbnb_C2/00/00/73/98/larlite_opreco_1764583e-6e2d-42b2-8eae-8c1f06a201a2.root'
p541
aS'/pnfs/uboone/data/uboone/larlite_opreco/prod_v08_00_00_01/data_extbnb_reco1_mcc9/extbnb_C2/00/00/74/61/larlite_opreco_adf954f7-79a1-4124-8f36-5b90d8b8fcd4.root'
p542
aS'/pnfs/uboone/data/uboone/larlite_opreco/prod_v08_00_00_01/data_extbnb_reco1_mcc9/extbnb_C2/00/00/74/58/larlite_opreco_bee9a78c-9519-454b-8670-061c78fd5c89.root'
p543
aS'/pnfs/uboone/data/uboone/larlite_opreco/prod_v08_00_00_01/data_extbnb_reco1_mcc9/extbnb_C2/00/00/74/57/larlite_opreco_76731fd8-ae48-4506-8afe-9be7307de25e.root'
p544
aS'/pnfs/uboone/data/uboone/larlite_opreco/prod_v08_00_00_01/data_extbnb_reco1_mcc9/extbnb_C2/00/00/74/64/larlite_opreco_9245d314-91f6-4a3e-ad35-51dab9c7dd2f.root'
p545
aS'/pnfs/uboone/data/uboone/larlite_opreco/prod_v08_00_00_01/data_extbnb_reco1_mcc9/extbnb_C2/00/00/74/66/larlite_opreco_3fa06929-844b-440f-b448-d924dca8225c.root'
p546
aS'/pnfs/uboone/data/uboone/larlite_opreco/prod_v08_00_00_01/data_extbnb_reco1_mcc9/extbnb_C2/00/00/74/03/larlite_opreco_8db20e75-364f-4b89-b484-312e7efb8606.root'
p547
aS'/pnfs/uboone/data/uboone/larlite_opreco/prod_v08_00_00_01/data_extbnb_reco1_mcc9/extbnb_C2/00/00/74/73/larlite_opreco_df70557f-af0d-43d6-b633-f7685c3df1f6.root'
p548
aS'/pnfs/uboone/data/uboone/larlite_opreco/prod_v08_00_00_01/data_extbnb_reco1_mcc9/extbnb_C2/00/00/74/66/larlite_opreco_8c1afa41-99c0-4685-89b9-6a3252afc265.root'
p549
aS'/pnfs/uboone/data/uboone/larlite_opreco/prod_v08_00_00_01/data_extbnb_reco1_mcc9/extbnb_C2/00/00/74/57/larlite_opreco_ec3fbec7-cf3a-42c5-a402-b8fdb9081159.root'
p550
aS'/pnfs/uboone/data/uboone/larlite_opreco/prod_v08_00_00_01/data_extbnb_reco1_mcc9/extbnb_C2/00/00/74/58/larlite_opreco_b256fbd2-c713-48a3-bbfc-e357e1407d19.root'
p551
aS'/pnfs/uboone/data/uboone/larlite_opreco/prod_v08_00_00_01/data_extbnb_reco1_mcc9/extbnb_C2/00/00/73/97/larlite_opreco_b7357d0e-5211-4ede-bc5c-4d198e05e8d4.root'
p552
aS'/pnfs/uboone/data/uboone/larlite_opreco/prod_v08_00_00_01/data_extbnb_reco1_mcc9/extbnb_C2/00/00/74/19/larlite_opreco_1596b4b6-007b-4f3e-ba88-688ce5bf0653.root'
p553
aS'/pnfs/uboone/data/uboone/larlite_opreco/prod_v08_00_00_01/data_extbnb_reco1_mcc9/extbnb_C2/00/00/74/66/larlite_opreco_33397540-4f0a-4e81-9b80-6c4a342169ad.root'
p554
aS'/pnfs/uboone/data/uboone/larlite_opreco/prod_v08_00_00_01/data_extbnb_reco1_mcc9/extbnb_C2/00/00/74/66/larlite_opreco_a7134526-2c19-4baf-87d4-dae8f44d55f4.root'
p555
aS'/pnfs/uboone/data/uboone/larlite_opreco/prod_v08_00_00_01/data_extbnb_reco1_mcc9/extbnb_C2/00/00/74/66/larlite_opreco_e3dea750-3f55-4231-9bba-169a88a13f5d.root'
p556
aS'/pnfs/uboone/data/uboone/larlite_opreco/prod_v08_00_00_01/data_extbnb_reco1_mcc9/extbnb_C2/00/00/74/71/larlite_opreco_d17603dc-e415-43e7-8739-c7a0eafd2108.root'
p557
aS'/pnfs/uboone/data/uboone/larlite_opreco/prod_v08_00_00_01/data_extbnb_reco1_mcc9/extbnb_C2/00/00/74/03/larlite_opreco_a1161f3d-5bd6-42ca-b97b-033ed0d4621b.root'
p558
aS'/pnfs/uboone/data/uboone/larlite_opreco/prod_v08_00_00_01/data_extbnb_reco1_mcc9/extbnb_C2/00/00/73/98/larlite_opreco_322bbe43-4d7c-409f-84a5-4155ff194cd7.root'
p559
aS'/pnfs/uboone/data/uboone/larlite_opreco/prod_v08_00_00_01/data_extbnb_reco1_mcc9/extbnb_C2/00/00/73/98/larlite_opreco_e8726db5-400f-45a3-ab51-5e434b37e2bf.root'
p560
aS'/pnfs/uboone/data/uboone/larlite_opreco/prod_v08_00_00_01/data_extbnb_reco1_mcc9/extbnb_C2/00/00/74/61/larlite_opreco_d39f8700-c106-45b4-9b2c-ce29c6b210ff.root'
p561
aS'/pnfs/uboone/data/uboone/larlite_opreco/prod_v08_00_00_01/data_extbnb_reco1_mcc9/extbnb_C2/00/00/74/03/larlite_opreco_c28cdd31-b624-437b-bcdc-0d9a10214ccf.root'
p562
aS'/pnfs/uboone/data/uboone/larlite_opreco/prod_v08_00_00_01/data_extbnb_reco1_mcc9/extbnb_C2/00/00/74/59/larlite_opreco_b32e500d-4d2c-402f-b802-ca031b9467d1.root'
p563
aS'/pnfs/uboone/data/uboone/larlite_opreco/prod_v08_00_00_01/data_extbnb_reco1_mcc9/extbnb_C2/00/00/74/61/larlite_opreco_7c9eaa0b-ef94-4a5f-8c2b-d0fb32ba14e6.root'
p564
aS'/pnfs/uboone/data/uboone/larlite_opreco/prod_v08_00_00_01/data_extbnb_reco1_mcc9/extbnb_C2/00/00/74/71/larlite_opreco_0c2dd11f-2105-4bd1-baf7-665df519ba45.root'
p565
aS'/pnfs/uboone/data/uboone/larlite_opreco/prod_v08_00_00_01/data_extbnb_reco1_mcc9/extbnb_C2/00/00/74/21/larlite_opreco_9eb6fa35-5499-4796-844a-db2675e9985b.root'
p566
aS'/pnfs/uboone/data/uboone/larlite_opreco/prod_v08_00_00_01/data_extbnb_reco1_mcc9/extbnb_C2/00/00/74/73/larlite_opreco_6d0eae5a-1543-4652-8da7-54395ba3743e.root'
p567
aS'/pnfs/uboone/data/uboone/larlite_opreco/prod_v08_00_00_01/data_extbnb_reco1_mcc9/extbnb_C2/00/00/74/66/larlite_opreco_2c688885-e9aa-4b02-bf1f-00560f20a9d4.root'
p568
aS'/pnfs/uboone/data/uboone/larlite_opreco/prod_v08_00_00_01/data_extbnb_reco1_mcc9/extbnb_C2/00/00/73/98/larlite_opreco_1e314440-56e2-42c0-9cbd-73eb3b36e6ea.root'
p569
aS'/pnfs/uboone/data/uboone/larlite_opreco/prod_v08_00_00_01/data_extbnb_reco1_mcc9/extbnb_C2/00/00/74/61/larlite_opreco_68e24c0f-aa66-49ee-9818-fb9acf681aec.root'
p570
aS'/pnfs/uboone/data/uboone/larlite_opreco/prod_v08_00_00_01/data_extbnb_reco1_mcc9/extbnb_C2/00/00/74/58/larlite_opreco_22e7206f-f533-4969-b2e4-7b811acc9d9b.root'
p571
aS'/pnfs/uboone/data/uboone/larlite_opreco/prod_v08_00_00_01/data_extbnb_reco1_mcc9/extbnb_C2/00/00/73/92/larlite_opreco_feab35f7-31c0-4b7b-b302-f54c24cd5da2.root'
p572
aS'/pnfs/uboone/data/uboone/larlite_opreco/prod_v08_00_00_01/data_extbnb_reco1_mcc9/extbnb_C2/00/00/74/66/larlite_opreco_3d19e51d-42f5-4067-970f-1439be18c132.root'
p573
aS'/pnfs/uboone/data/uboone/larlite_opreco/prod_v08_00_00_01/data_extbnb_reco1_mcc9/extbnb_C2/00/00/74/65/larlite_opreco_1d88957f-246e-4d3d-a586-ff32f68b8e01.root'
p574
aS'/pnfs/uboone/data/uboone/larlite_opreco/prod_v08_00_00_01/data_extbnb_reco1_mcc9/extbnb_C2/00/00/74/00/larlite_opreco_4c8f555e-e674-4b11-94fb-a3c4c7ae3d2c.root'
p575
aS'/pnfs/uboone/data/uboone/larlite_opreco/prod_v08_00_00_01/data_extbnb_reco1_mcc9/extbnb_C2/00/00/74/66/larlite_opreco_e2e67561-e878-4717-9d73-698f3f05a262.root'
p576
aS'/pnfs/uboone/data/uboone/larlite_opreco/prod_v08_00_00_01/data_extbnb_reco1_mcc9/extbnb_C2/00/00/73/93/larlite_opreco_a10c21a2-cea0-4b29-a013-1ba5542a8c7c.root'
p577
aS'/pnfs/uboone/data/uboone/larlite_opreco/prod_v08_00_00_01/data_extbnb_reco1_mcc9/extbnb_C2/00/00/74/66/larlite_opreco_426d27a2-7e38-4000-9806-f40036465453.root'
p578
aS'/pnfs/uboone/data/uboone/larlite_opreco/prod_v08_00_00_01/data_extbnb_reco1_mcc9/extbnb_C2/00/00/74/66/larlite_opreco_46982a45-4e0b-41de-bac0-cedbce3f06d1.root'
p579
aS'/pnfs/uboone/data/uboone/larlite_opreco/prod_v08_00_00_01/data_extbnb_reco1_mcc9/extbnb_C2/00/00/74/66/larlite_opreco_227e3dab-2ccd-4c98-b248-7e79ceeed809.root'
p580
aS'/pnfs/uboone/data/uboone/larlite_opreco/prod_v08_00_00_01/data_extbnb_reco1_mcc9/extbnb_C2/00/00/73/91/larlite_opreco_aafab487-1ed9-4bc7-bcc7-f46a7e12f342.root'
p581
aS'/pnfs/uboone/data/uboone/larlite_opreco/prod_v08_00_00_01/data_extbnb_reco1_mcc9/extbnb_C2/00/00/74/61/larlite_opreco_adafbc5c-4f1a-4082-b836-52f106f9dda7.root'
p582
aS'/pnfs/uboone/data/uboone/larlite_opreco/prod_v08_00_00_01/data_extbnb_reco1_mcc9/extbnb_C2/00/00/74/00/larlite_opreco_e7a3f051-ce2f-45e1-ac8c-9dd8f59c15ea.root'
p583
aS'/pnfs/uboone/data/uboone/larlite_opreco/prod_v08_00_00_01/data_extbnb_reco1_mcc9/extbnb_C2/00/00/74/58/larlite_opreco_3abfbf53-0842-4524-abf7-5afb1f8c1bc0.root'
p584
aS'/pnfs/uboone/data/uboone/larlite_opreco/prod_v08_00_00_01/data_extbnb_reco1_mcc9/extbnb_C2/00/00/73/93/larlite_opreco_2f282ae4-bd1b-4bb6-8555-203d8a22453e.root'
p585
aS'/pnfs/uboone/data/uboone/larlite_opreco/prod_v08_00_00_01/data_extbnb_reco1_mcc9/extbnb_C2/00/00/74/01/larlite_opreco_296f4c30-796e-4a7d-b68c-cc76e4eda3a5.root'
p586
aS'/pnfs/uboone/data/uboone/larlite_opreco/prod_v08_00_00_01/data_extbnb_reco1_mcc9/extbnb_C2/00/00/74/73/larlite_opreco_0aac87b6-9c4e-4f8c-a99d-8a7450581d74.root'
p587
aS'/pnfs/uboone/data/uboone/larlite_opreco/prod_v08_00_00_01/data_extbnb_reco1_mcc9/extbnb_C2/00/00/74/55/larlite_opreco_aea825b6-c6ae-4e5b-b489-ef0d0b164db1.root'
p588
aS'/pnfs/uboone/data/uboone/larlite_opreco/prod_v08_00_00_01/data_extbnb_reco1_mcc9/extbnb_C2/00/00/74/65/larlite_opreco_264020d0-c03e-4d43-84ea-a82a0183bea3.root'
p589
aS'/pnfs/uboone/data/uboone/larlite_opreco/prod_v08_00_00_01/data_extbnb_reco1_mcc9/extbnb_C2/00/00/73/93/larlite_opreco_5c6755a1-9578-43a1-887a-190d3426cc5d.root'
p590
aS'/pnfs/uboone/data/uboone/larlite_opreco/prod_v08_00_00_01/data_extbnb_reco1_mcc9/extbnb_C2/00/00/74/58/larlite_opreco_2a5d0fce-960a-463f-8132-75a3c4f74be8.root'
p591
aS'/pnfs/uboone/data/uboone/larlite_opreco/prod_v08_00_00_01/data_extbnb_reco1_mcc9/extbnb_C2/00/00/74/66/larlite_opreco_20974da4-b877-4e7f-84ff-10f11567cb49.root'
p592
aS'/pnfs/uboone/data/uboone/larlite_opreco/prod_v08_00_00_01/data_extbnb_reco1_mcc9/extbnb_C2/00/00/74/00/larlite_opreco_ce31e9fe-7d41-46b1-8d55-e329fa1a2f40.root'
p593
aS'/pnfs/uboone/data/uboone/larlite_opreco/prod_v08_00_00_01/data_extbnb_reco1_mcc9/extbnb_C2/00/00/74/73/larlite_opreco_fd45a24f-ef20-451b-83d9-4f67d4e01968.root'
p594
aS'/pnfs/uboone/data/uboone/larlite_opreco/prod_v08_00_00_01/data_extbnb_reco1_mcc9/extbnb_C2/00/00/74/61/larlite_opreco_82fbf8f2-6266-4f1f-98d6-00a193c67c6f.root'
p595
aS'/pnfs/uboone/data/uboone/larlite_opreco/prod_v08_00_00_01/data_extbnb_reco1_mcc9/extbnb_C2/00/00/74/18/larlite_opreco_177b8380-85a6-4071-b033-c920eaadd2ad.root'
p596
aS'/pnfs/uboone/data/uboone/larlite_opreco/prod_v08_00_00_01/data_extbnb_reco1_mcc9/extbnb_C2/00/00/73/97/larlite_opreco_fed9f6b7-36cf-4555-bf23-2fcd0679688f.root'
p597
aS'/pnfs/uboone/data/uboone/larlite_opreco/prod_v08_00_00_01/data_extbnb_reco1_mcc9/extbnb_C2/00/00/74/65/larlite_opreco_dee2bd0a-0d25-4a9b-a95c-d8e3b78d253f.root'
p598
aS'/pnfs/uboone/data/uboone/larlite_opreco/prod_v08_00_00_01/data_extbnb_reco1_mcc9/extbnb_C2/00/00/74/66/larlite_opreco_77dd5939-cfef-40cb-a7c5-e753e01ee98f.root'
p599
aS'/pnfs/uboone/data/uboone/larlite_opreco/prod_v08_00_00_01/data_extbnb_reco1_mcc9/extbnb_C2/00/00/73/98/larlite_opreco_3c4025b4-27b7-4b46-b206-738be52b2978.root'
p600
aS'/pnfs/uboone/data/uboone/larlite_opreco/prod_v08_00_00_01/data_extbnb_reco1_mcc9/extbnb_C2/00/00/74/69/larlite_opreco_d82ed6bf-4d37-4f58-83ac-b058006f3f68.root'
p601
aS'/pnfs/uboone/data/uboone/larlite_opreco/prod_v08_00_00_01/data_extbnb_reco1_mcc9/extbnb_C2/00/00/74/61/larlite_opreco_361281d1-79c4-42db-89d4-08017ce8dfe4.root'
p602
aS'/pnfs/uboone/data/uboone/larlite_opreco/prod_v08_00_00_01/data_extbnb_reco1_mcc9/extbnb_C2/00/00/74/00/larlite_opreco_e6fa7fba-f42a-4e6e-928c-7bfeb8d2ee86.root'
p603
aS'/pnfs/uboone/data/uboone/larlite_opreco/prod_v08_00_00_01/data_extbnb_reco1_mcc9/extbnb_C2/00/00/74/20/larlite_opreco_bea55748-c9b8-4b43-aa99-1e89988d692d.root'
p604
aS'/pnfs/uboone/data/uboone/larlite_opreco/prod_v08_00_00_01/data_extbnb_reco1_mcc9/extbnb_C2/00/00/73/93/larlite_opreco_dcdcb964-5f1a-4a5e-b8fc-26718f7bf39a.root'
p605
aS'/pnfs/uboone/data/uboone/larlite_opreco/prod_v08_00_00_01/data_extbnb_reco1_mcc9/extbnb_C2/00/00/74/66/larlite_opreco_8c53308f-c416-4b5a-aaa2-74a5be60d4de.root'
p606
aS'/pnfs/uboone/data/uboone/larlite_opreco/prod_v08_00_00_01/data_extbnb_reco1_mcc9/extbnb_C2/00/00/73/98/larlite_opreco_cb62f2e9-69c6-4fe4-ad19-db48356bfe4e.root'
p607
aS'/pnfs/uboone/data/uboone/larlite_opreco/prod_v08_00_00_01/data_extbnb_reco1_mcc9/extbnb_C2/00/00/74/18/larlite_opreco_fbcb368c-d17d-4bdf-8b7d-e36efe238089.root'
p608
aS'/pnfs/uboone/data/uboone/larlite_opreco/prod_v08_00_00_01/data_extbnb_reco1_mcc9/extbnb_C2/00/00/74/20/larlite_opreco_99b6704d-f02a-481b-8bf7-5d7880aa5abb.root'
p609
aS'/pnfs/uboone/data/uboone/larlite_opreco/prod_v08_00_00_01/data_extbnb_reco1_mcc9/extbnb_C2/00/00/74/61/larlite_opreco_d2409894-ad33-475e-9f53-a97df1ff9436.root'
p610
aS'/pnfs/uboone/data/uboone/larlite_opreco/prod_v08_00_00_01/data_extbnb_reco1_mcc9/extbnb_C2/00/00/74/00/larlite_opreco_21762c8e-493c-461b-bf73-06b920ee3018.root'
p611
aS'/pnfs/uboone/data/uboone/larlite_opreco/prod_v08_00_00_01/data_extbnb_reco1_mcc9/extbnb_C2/00/00/74/66/larlite_opreco_a2310b9a-2610-4723-8a17-eb4824cbb742.root'
p612
aS'/pnfs/uboone/data/uboone/larlite_opreco/prod_v08_00_00_01/data_extbnb_reco1_mcc9/extbnb_C2/00/00/74/41/larlite_opreco_2662fec3-f407-4f7e-bafb-061bbbcfce9b.root'
p613
aS'/pnfs/uboone/data/uboone/larlite_opreco/prod_v08_00_00_01/data_extbnb_reco1_mcc9/extbnb_C2/00/00/74/66/larlite_opreco_1b3c6684-4794-44ca-9646-ec4ad1a9436e.root'
p614
aS'/pnfs/uboone/data/uboone/larlite_opreco/prod_v08_00_00_01/data_extbnb_reco1_mcc9/extbnb_C2/00/00/74/66/larlite_opreco_039203e8-d2a4-4ae2-9a42-4aa3fb8bddc5.root'
p615
aS'/pnfs/uboone/data/uboone/larlite_opreco/prod_v08_00_00_01/data_extbnb_reco1_mcc9/extbnb_C2/00/00/74/61/larlite_opreco_413a6654-6e60-400b-b966-ad5b87806d0c.root'
p616
aS'/pnfs/uboone/data/uboone/larlite_opreco/prod_v08_00_00_01/data_extbnb_reco1_mcc9/extbnb_C2/00/00/74/69/larlite_opreco_deef73dd-ebdf-4f53-b465-ebdcc0fd2ee8.root'
p617
aS'/pnfs/uboone/data/uboone/larlite_opreco/prod_v08_00_00_01/data_extbnb_reco1_mcc9/extbnb_C2/00/00/73/93/larlite_opreco_0f091d9f-16c1-4d84-a26c-5bee059a59ca.root'
p618
aS'/pnfs/uboone/data/uboone/larlite_opreco/prod_v08_00_00_01/data_extbnb_reco1_mcc9/extbnb_C2/00/00/74/66/larlite_opreco_8d4495bc-8843-4ceb-8bc5-b282cd5cbf17.root'
p619
aS'/pnfs/uboone/data/uboone/larlite_opreco/prod_v08_00_00_01/data_extbnb_reco1_mcc9/extbnb_C2/00/00/73/93/larlite_opreco_9c4a2a7d-bb79-467e-95f4-9c11e1ebadfe.root'
p620
aS'/pnfs/uboone/data/uboone/larlite_opreco/prod_v08_00_00_01/data_extbnb_reco1_mcc9/extbnb_C2/00/00/73/93/larlite_opreco_e85f9958-ca60-43e2-8afe-d4d285c535ee.root'
p621
aS'/pnfs/uboone/data/uboone/larlite_opreco/prod_v08_00_00_01/data_extbnb_reco1_mcc9/extbnb_C2/00/00/73/92/larlite_opreco_6e8fc90e-6ac9-47e6-aa6a-2a88d7c0daaa.root'
p622
aS'/pnfs/uboone/data/uboone/larlite_opreco/prod_v08_00_00_01/data_extbnb_reco1_mcc9/extbnb_C2/00/00/74/00/larlite_opreco_bab1a66f-b59e-451b-b3f4-eff21f90e99c.root'
p623
aS'/pnfs/uboone/data/uboone/larlite_opreco/prod_v08_00_00_01/data_extbnb_reco1_mcc9/extbnb_C2/00/00/74/74/larlite_opreco_00a44c4c-b8e0-4c63-87e1-d1c6decec0e2.root'
p624
aS'/pnfs/uboone/data/uboone/larlite_opreco/prod_v08_00_00_01/data_extbnb_reco1_mcc9/extbnb_C2/00/00/74/66/larlite_opreco_a7cf594b-01a2-47a6-807d-96009ba052a8.root'
p625
aS'/pnfs/uboone/data/uboone/larlite_opreco/prod_v08_00_00_01/data_extbnb_reco1_mcc9/extbnb_C2/00/00/74/62/larlite_opreco_681bc575-59cf-433c-bce8-e815c3b4bb1c.root'
p626
aS'/pnfs/uboone/data/uboone/larlite_opreco/prod_v08_00_00_01/data_extbnb_reco1_mcc9/extbnb_C2/00/00/74/61/larlite_opreco_434dd587-edef-440a-8922-996340315caf.root'
p627
aS'/pnfs/uboone/data/uboone/larlite_opreco/prod_v08_00_00_01/data_extbnb_reco1_mcc9/extbnb_C2/00/00/74/00/larlite_opreco_0e4cd1b4-1780-475b-aee8-1616705c3061.root'
p628
aS'/pnfs/uboone/data/uboone/larlite_opreco/prod_v08_00_00_01/data_extbnb_reco1_mcc9/extbnb_C2/00/00/74/65/larlite_opreco_4b707050-9c80-44d7-b652-394cb7394228.root'
p629
aS'/pnfs/uboone/data/uboone/larlite_opreco/prod_v08_00_00_01/data_extbnb_reco1_mcc9/extbnb_C2/00/00/74/61/larlite_opreco_5707055f-201e-44a8-bc39-6c7bef8ff1b9.root'
p630
aS'/pnfs/uboone/data/uboone/larlite_opreco/prod_v08_00_00_01/data_extbnb_reco1_mcc9/extbnb_C2/00/00/74/66/larlite_opreco_1f304ddd-ff6f-495f-8988-0a4bca8d9618.root'
p631
aS'/pnfs/uboone/data/uboone/larlite_opreco/prod_v08_00_00_01/data_extbnb_reco1_mcc9/extbnb_C2/00/00/74/42/larlite_opreco_d6ac3e49-0ec7-4d94-a9a3-5cceeebba18f.root'
p632
aS'/pnfs/uboone/data/uboone/larlite_opreco/prod_v08_00_00_01/data_extbnb_reco1_mcc9/extbnb_C2/00/00/74/03/larlite_opreco_8cf2edad-8560-4471-96a3-9d99fa30159b.root'
p633
aS'/pnfs/uboone/data/uboone/larlite_opreco/prod_v08_00_00_01/data_extbnb_reco1_mcc9/extbnb_C2/00/00/73/98/larlite_opreco_2351ebd7-06b3-446c-bc86-594404ba4053.root'
p634
aS'/pnfs/uboone/data/uboone/larlite_opreco/prod_v08_00_00_01/data_extbnb_reco1_mcc9/extbnb_C2/00/00/74/66/larlite_opreco_73600568-0de5-4580-a3b6-34992fe0e03a.root'
p635
aS'/pnfs/uboone/data/uboone/larlite_opreco/prod_v08_00_00_01/data_extbnb_reco1_mcc9/extbnb_C2/00/00/74/59/larlite_opreco_d226a083-d77c-4107-9238-9ba42f2b430b.root'
p636
aS'/pnfs/uboone/data/uboone/larlite_opreco/prod_v08_00_00_01/data_extbnb_reco1_mcc9/extbnb_C2/00/00/73/91/larlite_opreco_b6093e2b-7076-4a13-8b6c-f3833b41b350.root'
p637
aS'/pnfs/uboone/data/uboone/larlite_opreco/prod_v08_00_00_01/data_extbnb_reco1_mcc9/extbnb_C2/00/00/74/66/larlite_opreco_093488c4-a92b-4060-a0db-dfcce85bbee7.root'
p638
aS'/pnfs/uboone/data/uboone/larlite_opreco/prod_v08_00_00_01/data_extbnb_reco1_mcc9/extbnb_C2/00/00/74/59/larlite_opreco_759895d2-86f7-4ca9-aec6-404c397af89d.root'
p639
aS'/pnfs/uboone/data/uboone/larlite_opreco/prod_v08_00_00_01/data_extbnb_reco1_mcc9/extbnb_C2/00/00/74/69/larlite_opreco_7447b270-13fb-4b45-966c-8cd35dc09add.root'
p640
aS'/pnfs/uboone/data/uboone/larlite_opreco/prod_v08_00_00_01/data_extbnb_reco1_mcc9/extbnb_C2/00/00/74/66/larlite_opreco_3c071ae0-ab42-4598-9c54-7bcafe48b899.root'
p641
aS'/pnfs/uboone/data/uboone/larlite_opreco/prod_v08_00_00_01/data_extbnb_reco1_mcc9/extbnb_C2/00/00/74/61/larlite_opreco_675ca89d-a330-480e-8c31-ce0f572cd3a4.root'
p642
aS'/pnfs/uboone/data/uboone/larlite_opreco/prod_v08_00_00_01/data_extbnb_reco1_mcc9/extbnb_C2/00/00/73/93/larlite_opreco_325deb1d-1657-4a9f-86b4-d0411c9a5abe.root'
p643
aS'/pnfs/uboone/data/uboone/larlite_opreco/prod_v08_00_00_01/data_extbnb_reco1_mcc9/extbnb_C2/00/00/74/00/larlite_opreco_b28e4ae5-ce6f-45b8-be9c-6e1550a36f55.root'
p644
aS'/pnfs/uboone/data/uboone/larlite_opreco/prod_v08_00_00_01/data_extbnb_reco1_mcc9/extbnb_C2/00/00/74/66/larlite_opreco_06d24903-57b4-4161-ad55-a366ea432278.root'
p645
aS'/pnfs/uboone/data/uboone/larlite_opreco/prod_v08_00_00_01/data_extbnb_reco1_mcc9/extbnb_C2/00/00/74/65/larlite_opreco_36c554d3-6ce6-43e0-b42b-226bbfc3ce69.root'
p646
aS'/pnfs/uboone/data/uboone/larlite_opreco/prod_v08_00_00_01/data_extbnb_reco1_mcc9/extbnb_C2/00/00/73/97/larlite_opreco_4a459294-8a9d-4e0f-ad18-0f1d562bd7b5.root'
p647
aS'/pnfs/uboone/data/uboone/larlite_opreco/prod_v08_00_00_01/data_extbnb_reco1_mcc9/extbnb_C2/00/00/74/73/larlite_opreco_9a53d9a7-d7e1-4466-8cb7-70d662c8a572.root'
p648
aS'/pnfs/uboone/data/uboone/larlite_opreco/prod_v08_00_00_01/data_extbnb_reco1_mcc9/extbnb_C2/00/00/74/18/larlite_opreco_dac0a42a-fd3d-48b6-82be-6490b4988b31.root'
p649
aS'/pnfs/uboone/data/uboone/larlite_opreco/prod_v08_00_00_01/data_extbnb_reco1_mcc9/extbnb_C2/00/00/74/63/larlite_opreco_f7a5758f-45ed-4f38-9ae6-137c6f7ca136.root'
p650
aS'/pnfs/uboone/data/uboone/larlite_opreco/prod_v08_00_00_01/data_extbnb_reco1_mcc9/extbnb_C2/00/00/73/98/larlite_opreco_31f1ffb3-8304-4dc4-a676-bafe8c688f30.root'
p651
aS'/pnfs/uboone/data/uboone/larlite_opreco/prod_v08_00_00_01/data_extbnb_reco1_mcc9/extbnb_C2/00/00/74/00/larlite_opreco_47806246-b3d4-448d-9a4c-55ebbf6f2a52.root'
p652
aS'/pnfs/uboone/data/uboone/larlite_opreco/prod_v08_00_00_01/data_extbnb_reco1_mcc9/extbnb_C2/00/00/74/61/larlite_opreco_9b0aa8ae-5d6b-4218-a716-2f716938423c.root'
p653
aS'/pnfs/uboone/data/uboone/larlite_opreco/prod_v08_00_00_01/data_extbnb_reco1_mcc9/extbnb_C2/00/00/74/59/larlite_opreco_7719d36d-40b1-499c-a0a5-e21b0fa3d382.root'
p654
aS'/pnfs/uboone/data/uboone/larlite_opreco/prod_v08_00_00_01/data_extbnb_reco1_mcc9/extbnb_C2/00/00/74/61/larlite_opreco_0e3e141a-95b3-4dcd-98ab-68285707e8dd.root'
p655
aS'/pnfs/uboone/data/uboone/larlite_opreco/prod_v08_00_00_01/data_extbnb_reco1_mcc9/extbnb_C2/00/00/74/69/larlite_opreco_8fd0a773-6e9f-4ca0-988e-3b7f6eeb233a.root'
p656
aS'/pnfs/uboone/data/uboone/larlite_opreco/prod_v08_00_00_01/data_extbnb_reco1_mcc9/extbnb_C2/00/00/74/69/larlite_opreco_973182f1-9440-4dd5-a4c2-5fae17212255.root'
p657
aS'/pnfs/uboone/data/uboone/larlite_opreco/prod_v08_00_00_01/data_extbnb_reco1_mcc9/extbnb_C2/00/00/74/61/larlite_opreco_5122a839-2faa-410e-95f2-afa5d72a6732.root'
p658
aS'/pnfs/uboone/data/uboone/larlite_opreco/prod_v08_00_00_01/data_extbnb_reco1_mcc9/extbnb_C2/00/00/74/00/larlite_opreco_e9906d4f-815b-46a3-b603-532bf3d98eb6.root'
p659
aS'/pnfs/uboone/data/uboone/larlite_opreco/prod_v08_00_00_01/data_extbnb_reco1_mcc9/extbnb_C2/00/00/74/69/larlite_opreco_d1bdfa32-39ac-4069-9e2a-d5287a7064b9.root'
p660
aS'/pnfs/uboone/data/uboone/larlite_opreco/prod_v08_00_00_01/data_extbnb_reco1_mcc9/extbnb_C2/00/00/74/71/larlite_opreco_d41e01d8-6c06-4bb1-8bee-26ee6d50157d.root'
p661
aS'/pnfs/uboone/data/uboone/larlite_opreco/prod_v08_00_00_01/data_extbnb_reco1_mcc9/extbnb_C2/00/00/74/58/larlite_opreco_514f6f9a-70fe-45ab-8903-2543714a47ea.root'
p662
aS'/pnfs/uboone/data/uboone/larlite_opreco/prod_v08_00_00_01/data_extbnb_reco1_mcc9/extbnb_C2/00/00/74/66/larlite_opreco_37b7e72e-eae0-426a-b166-0baa94d235f0.root'
p663
aS'/pnfs/uboone/data/uboone/larlite_opreco/prod_v08_00_00_01/data_extbnb_reco1_mcc9/extbnb_C2/00/00/74/70/larlite_opreco_5e426f3d-5798-4d88-aad6-6c90c68c520c.root'
p664
aS'/pnfs/uboone/data/uboone/larlite_opreco/prod_v08_00_00_01/data_extbnb_reco1_mcc9/extbnb_C2/00/00/74/66/larlite_opreco_df730bd6-4d8a-4326-a4ae-46863483fe71.root'
p665
aS'/pnfs/uboone/data/uboone/larlite_opreco/prod_v08_00_00_01/data_extbnb_reco1_mcc9/extbnb_C2/00/00/73/93/larlite_opreco_dd6ed3c6-2267-4030-8e77-d1380a3b1a7b.root'
p666
aS'/pnfs/uboone/data/uboone/larlite_opreco/prod_v08_00_00_01/data_extbnb_reco1_mcc9/extbnb_C2/00/00/74/20/larlite_opreco_60e4bd48-268b-4a19-9ed7-f9de11f13e0f.root'
p667
aS'/pnfs/uboone/data/uboone/larlite_opreco/prod_v08_00_00_01/data_extbnb_reco1_mcc9/extbnb_C2/00/00/74/61/larlite_opreco_4f5b6d66-017c-48e6-8fc7-5467ccb7192f.root'
p668
aS'/pnfs/uboone/data/uboone/larlite_opreco/prod_v08_00_00_01/data_extbnb_reco1_mcc9/extbnb_C2/00/00/74/61/larlite_opreco_57256f56-0345-4688-8e5a-a9a7056d2976.root'
p669
aS'/pnfs/uboone/data/uboone/larlite_opreco/prod_v08_00_00_01/data_extbnb_reco1_mcc9/extbnb_C2/00/00/73/91/larlite_opreco_65870deb-6b34-4d11-89e0-19fd92bb6962.root'
p670
aS'/pnfs/uboone/data/uboone/larlite_opreco/prod_v08_00_00_01/data_extbnb_reco1_mcc9/extbnb_C2/00/00/74/58/larlite_opreco_55e91e1c-f388-4068-8b12-7fe01ce1eb89.root'
p671
aS'/pnfs/uboone/data/uboone/larlite_opreco/prod_v08_00_00_01/data_extbnb_reco1_mcc9/extbnb_C2/00/00/74/66/larlite_opreco_2ed6078c-bc90-4920-83ea-8c758ef0a2bb.root'
p672
aS'/pnfs/uboone/data/uboone/larlite_opreco/prod_v08_00_00_01/data_extbnb_reco1_mcc9/extbnb_C2/00/00/74/73/larlite_opreco_d0511b31-c43e-4ec3-a22c-75ba01085a15.root'
p673
aS'/pnfs/uboone/data/uboone/larlite_opreco/prod_v08_00_00_01/data_extbnb_reco1_mcc9/extbnb_C2/00/00/74/66/larlite_opreco_26c0e506-93e5-4ffc-9548-41a2f47eb96e.root'
p674
aS'/pnfs/uboone/data/uboone/larlite_opreco/prod_v08_00_00_01/data_extbnb_reco1_mcc9/extbnb_C2/00/00/74/66/larlite_opreco_06b60ad3-f046-4c27-bad0-b1b369693ae0.root'
p675
aS'/pnfs/uboone/data/uboone/larlite_opreco/prod_v08_00_00_01/data_extbnb_reco1_mcc9/extbnb_C2/00/00/74/66/larlite_opreco_df3b8d71-27b8-433a-a134-2a2c5acf5d89.root'
p676
aS'/pnfs/uboone/data/uboone/larlite_opreco/prod_v08_00_00_01/data_extbnb_reco1_mcc9/extbnb_C2/00/00/73/93/larlite_opreco_34bcf9e9-94d6-4975-88c8-91d1237f826e.root'
p677
aS'/pnfs/uboone/data/uboone/larlite_opreco/prod_v08_00_00_01/data_extbnb_reco1_mcc9/extbnb_C2/00/00/74/00/larlite_opreco_040f2715-cfc1-459d-b7ca-c9f816feb679.root'
p678
aS'/pnfs/uboone/data/uboone/larlite_opreco/prod_v08_00_00_01/data_extbnb_reco1_mcc9/extbnb_C2/00/00/73/93/larlite_opreco_5197500d-c4da-4b06-be90-374dad7b143f.root'
p679
aS'/pnfs/uboone/data/uboone/larlite_opreco/prod_v08_00_00_01/data_extbnb_reco1_mcc9/extbnb_C2/00/00/74/61/larlite_opreco_c27c81fc-6d78-4687-b824-a9fe521dd224.root'
p680
aS'/pnfs/uboone/data/uboone/larlite_opreco/prod_v08_00_00_01/data_extbnb_reco1_mcc9/extbnb_C2/00/00/74/73/larlite_opreco_0a22f0b9-b7a8-4aac-a17e-f019dc3ca8e9.root'
p681
aS'/pnfs/uboone/data/uboone/larlite_opreco/prod_v08_00_00_01/data_extbnb_reco1_mcc9/extbnb_C2/00/00/73/93/larlite_opreco_77f9eed1-4f2a-4fad-ae57-c6eb72346ab2.root'
p682
aS'/pnfs/uboone/data/uboone/larlite_opreco/prod_v08_00_00_01/data_extbnb_reco1_mcc9/extbnb_C2/00/00/74/65/larlite_opreco_eb03ae99-db78-439e-bc1f-77e56b7cc7d4.root'
p683
aS'/pnfs/uboone/data/uboone/larlite_opreco/prod_v08_00_00_01/data_extbnb_reco1_mcc9/extbnb_C2/00/00/74/66/larlite_opreco_32119ccd-47ed-4258-8c50-8e923ebe01a5.root'
p684
aS'/pnfs/uboone/data/uboone/larlite_opreco/prod_v08_00_00_01/data_extbnb_reco1_mcc9/extbnb_C2/00/00/74/66/larlite_opreco_3c44a6f0-7dfc-4f8e-afef-4e9bf7224580.root'
p685
aS'/pnfs/uboone/data/uboone/larlite_opreco/prod_v08_00_00_01/data_extbnb_reco1_mcc9/extbnb_C2/00/00/74/73/larlite_opreco_8667ae5a-6b02-47f0-8d8f-a82e624551c3.root'
p686
aS'/pnfs/uboone/data/uboone/larlite_opreco/prod_v08_00_00_01/data_extbnb_reco1_mcc9/extbnb_C2/00/00/74/62/larlite_opreco_4c72d488-a297-47bc-b8e6-a0540199562d.root'
p687
aS'/pnfs/uboone/data/uboone/larlite_opreco/prod_v08_00_00_01/data_extbnb_reco1_mcc9/extbnb_C2/00/00/74/57/larlite_opreco_a198552a-4fe0-4c8b-a346-ce176d96a666.root'
p688
aS'/pnfs/uboone/data/uboone/larlite_opreco/prod_v08_00_00_01/data_extbnb_reco1_mcc9/extbnb_C2/00/00/74/03/larlite_opreco_6dfb0add-f32e-4af9-8864-2d6616974fd2.root'
p689
aS'/pnfs/uboone/data/uboone/larlite_opreco/prod_v08_00_00_01/data_extbnb_reco1_mcc9/extbnb_C2/00/00/74/61/larlite_opreco_cc7cc260-31b9-4153-b6b5-325d49f68bc8.root'
p690
aS'/pnfs/uboone/data/uboone/larlite_opreco/prod_v08_00_00_01/data_extbnb_reco1_mcc9/extbnb_C2/00/00/74/66/larlite_opreco_01fd557b-a6c2-4294-b7b8-4b25b7be18a0.root'
p691
aS'/pnfs/uboone/data/uboone/larlite_opreco/prod_v08_00_00_01/data_extbnb_reco1_mcc9/extbnb_C2/00/00/74/61/larlite_opreco_8df78898-29f7-48d2-aa55-02a61a6156d6.root'
p692
aS'/pnfs/uboone/data/uboone/larlite_opreco/prod_v08_00_00_01/data_extbnb_reco1_mcc9/extbnb_C2/00/00/74/61/larlite_opreco_60d02a5e-dd44-4fb6-9a99-c427c0731132.root'
p693
aS'/pnfs/uboone/data/uboone/larlite_opreco/prod_v08_00_00_01/data_extbnb_reco1_mcc9/extbnb_C2/00/00/74/73/larlite_opreco_048ca81f-8fb6-4b5f-b962-8e35fd345513.root'
p694
aS'/pnfs/uboone/data/uboone/larlite_opreco/prod_v08_00_00_01/data_extbnb_reco1_mcc9/extbnb_C2/00/00/74/73/larlite_opreco_69d9cfdd-18bd-4189-af23-f0f4cd28338b.root'
p695
aS'/pnfs/uboone/data/uboone/larlite_opreco/prod_v08_00_00_01/data_extbnb_reco1_mcc9/extbnb_C2/00/00/73/93/larlite_opreco_fd900a25-7ae0-4dc8-9fe8-a3a6e4145911.root'
p696
aS'/pnfs/uboone/data/uboone/larlite_opreco/prod_v08_00_00_01/data_extbnb_reco1_mcc9/extbnb_C2/00/00/73/92/larlite_opreco_92305d1b-26db-4184-b773-3bc60a9c4d08.root'
p697
aS'/pnfs/uboone/data/uboone/larlite_opreco/prod_v08_00_00_01/data_extbnb_reco1_mcc9/extbnb_C2/00/00/74/66/larlite_opreco_22d96b13-c5c5-4407-965e-58237e3bf236.root'
p698
aS'/pnfs/uboone/data/uboone/larlite_opreco/prod_v08_00_00_01/data_extbnb_reco1_mcc9/extbnb_C2/00/00/74/66/larlite_opreco_de415a89-a171-45f9-97e1-c9add825110a.root'
p699
aS'/pnfs/uboone/data/uboone/larlite_opreco/prod_v08_00_00_01/data_extbnb_reco1_mcc9/extbnb_C2/00/00/74/61/larlite_opreco_d1b9e5f2-8879-4868-aa63-83cecbbe85bd.root'
p700
aS'/pnfs/uboone/data/uboone/larlite_opreco/prod_v08_00_00_01/data_extbnb_reco1_mcc9/extbnb_C2/00/00/74/73/larlite_opreco_92d0a3fb-c6ef-4ea1-9ec7-766009a723ed.root'
p701
aS'/pnfs/uboone/data/uboone/larlite_opreco/prod_v08_00_00_01/data_extbnb_reco1_mcc9/extbnb_C2/00/00/74/62/larlite_opreco_ce465390-4954-44e4-92b7-1cbfd0382412.root'
p702
aS'/pnfs/uboone/data/uboone/larlite_opreco/prod_v08_00_00_01/data_extbnb_reco1_mcc9/extbnb_C2/00/00/74/00/larlite_opreco_4bdadb5d-c05f-4e1a-ab0e-ad00b74610c8.root'
p703
aS'/pnfs/uboone/data/uboone/larlite_opreco/prod_v08_00_00_01/data_extbnb_reco1_mcc9/extbnb_C2/00/00/74/73/larlite_opreco_7d4703d5-bf64-468a-8fa4-1486360192d9.root'
p704
aS'/pnfs/uboone/data/uboone/larlite_opreco/prod_v08_00_00_01/data_extbnb_reco1_mcc9/extbnb_C2/00/00/74/61/larlite_opreco_ecb76d64-30f5-4ef6-a85d-e192e1e70e70.root'
p705
aS'/pnfs/uboone/data/uboone/larlite_opreco/prod_v08_00_00_01/data_extbnb_reco1_mcc9/extbnb_C2/00/00/74/66/larlite_opreco_9c9c8f30-e5d6-4add-b521-745a0401db2d.root'
p706
aS'/pnfs/uboone/data/uboone/larlite_opreco/prod_v08_00_00_01/data_extbnb_reco1_mcc9/extbnb_C2/00/00/73/93/larlite_opreco_1cbaebff-122c-4721-a792-e64f8fa991ff.root'
p707
aS'/pnfs/uboone/data/uboone/larlite_opreco/prod_v08_00_00_01/data_extbnb_reco1_mcc9/extbnb_C2/00/00/73/93/larlite_opreco_5d551503-e895-4b76-9ccd-2923655f9c21.root'
p708
aS'/pnfs/uboone/data/uboone/larlite_opreco/prod_v08_00_00_01/data_extbnb_reco1_mcc9/extbnb_C2/00/00/74/66/larlite_opreco_d1afbd94-4a12-400d-ab4b-bc49ac31bd24.root'
p709
aS'/pnfs/uboone/data/uboone/larlite_opreco/prod_v08_00_00_01/data_extbnb_reco1_mcc9/extbnb_C2/00/00/73/91/larlite_opreco_1a116abd-4fb6-49d5-bd2a-6af236a2cb5b.root'
p710
aS'/pnfs/uboone/data/uboone/larlite_opreco/prod_v08_00_00_01/data_extbnb_reco1_mcc9/extbnb_C2/00/00/73/97/larlite_opreco_25417d38-9973-423a-b7fb-cd3314e3ec0b.root'
p711
aS'/pnfs/uboone/data/uboone/larlite_opreco/prod_v08_00_00_01/data_extbnb_reco1_mcc9/extbnb_C2/00/00/73/91/larlite_opreco_7436f1f8-a999-4371-9d2d-10325d60b21e.root'
p712
aS'/pnfs/uboone/data/uboone/larlite_opreco/prod_v08_00_00_01/data_extbnb_reco1_mcc9/extbnb_C2/00/00/74/21/larlite_opreco_c455179c-ce5d-4802-a2e8-489319aa4669.root'
p713
aS'/pnfs/uboone/data/uboone/larlite_opreco/prod_v08_00_00_01/data_extbnb_reco1_mcc9/extbnb_C2/00/00/74/57/larlite_opreco_311adf34-f40e-47ca-b2a8-db9f8d3f73c3.root'
p714
aS'/pnfs/uboone/data/uboone/larlite_opreco/prod_v08_00_00_01/data_extbnb_reco1_mcc9/extbnb_C2/00/00/74/73/larlite_opreco_5e5888da-557e-48b1-97fd-331c4ebed084.root'
p715
aS'/pnfs/uboone/data/uboone/larlite_opreco/prod_v08_00_00_01/data_extbnb_reco1_mcc9/extbnb_C2/00/00/74/66/larlite_opreco_d3bc9053-41cd-4d6f-bc34-8b5928084c1f.root'
p716
aS'/pnfs/uboone/data/uboone/larlite_opreco/prod_v08_00_00_01/data_extbnb_reco1_mcc9/extbnb_C2/00/00/74/69/larlite_opreco_5fc3778b-a2f4-4385-b900-320f39db7e99.root'
p717
aS'/pnfs/uboone/data/uboone/larlite_opreco/prod_v08_00_00_01/data_extbnb_reco1_mcc9/extbnb_C2/00/00/74/66/larlite_opreco_ea3c9e55-c6d4-4383-8ad7-3f84b55423f9.root'
p718
aS'/pnfs/uboone/data/uboone/larlite_opreco/prod_v08_00_00_01/data_extbnb_reco1_mcc9/extbnb_C2/00/00/74/20/larlite_opreco_3f3c2f0c-5618-4fae-87db-262538b7da92.root'
p719
aS'/pnfs/uboone/data/uboone/larlite_opreco/prod_v08_00_00_01/data_extbnb_reco1_mcc9/extbnb_C2/00/00/73/93/larlite_opreco_25b42365-4477-49a5-a912-054a137be087.root'
p720
aS'/pnfs/uboone/data/uboone/larlite_opreco/prod_v08_00_00_01/data_extbnb_reco1_mcc9/extbnb_C2/00/00/74/57/larlite_opreco_2e997f5a-e95d-4f7a-8f05-7bec94c07b64.root'
p721
aS'/pnfs/uboone/data/uboone/larlite_opreco/prod_v08_00_00_01/data_extbnb_reco1_mcc9/extbnb_C2/00/00/74/61/larlite_opreco_b576e38d-5ebc-47fc-8c38-e890227d95ca.root'
p722
aS'/pnfs/uboone/data/uboone/larlite_opreco/prod_v08_00_00_01/data_extbnb_reco1_mcc9/extbnb_C2/00/00/74/66/larlite_opreco_749cecd4-3ad9-4085-a958-fef1ca46c998.root'
p723
aS'/pnfs/uboone/data/uboone/larlite_opreco/prod_v08_00_00_01/data_extbnb_reco1_mcc9/extbnb_C2/00/00/74/66/larlite_opreco_cd1773e4-4258-4145-a965-8c65c585c6e4.root'
p724
aS'/pnfs/uboone/data/uboone/larlite_opreco/prod_v08_00_00_01/data_extbnb_reco1_mcc9/extbnb_C2/00/00/74/69/larlite_opreco_f2577adc-7de3-46ea-8ee6-7be5ddea7bcf.root'
p725
aS'/pnfs/uboone/data/uboone/larlite_opreco/prod_v08_00_00_01/data_extbnb_reco1_mcc9/extbnb_C2/00/00/74/66/larlite_opreco_ce1824cd-1fca-493c-aee0-bd17d37f2a2c.root'
p726
aS'/pnfs/uboone/data/uboone/larlite_opreco/prod_v08_00_00_01/data_extbnb_reco1_mcc9/extbnb_C2/00/00/74/66/larlite_opreco_f452ef9c-62f6-4dfc-8d51-14f50ad9d74f.root'
p727
aS'/pnfs/uboone/data/uboone/larlite_opreco/prod_v08_00_00_01/data_extbnb_reco1_mcc9/extbnb_C2/00/00/74/00/larlite_opreco_a09c1302-35b5-4f73-b24e-12b3cdcb29d6.root'
p728
aS'/pnfs/uboone/data/uboone/larlite_opreco/prod_v08_00_00_01/data_extbnb_reco1_mcc9/extbnb_C2/00/00/74/61/larlite_opreco_c15dd66f-e4cd-4daf-8094-4f160d06d1f0.root'
p729
aS'/pnfs/uboone/data/uboone/larlite_opreco/prod_v08_00_00_01/data_extbnb_reco1_mcc9/extbnb_C2/00/00/74/00/larlite_opreco_71d6b2cc-1f22-46e3-806f-8942dc7b2702.root'
p730
aS'/pnfs/uboone/data/uboone/larlite_opreco/prod_v08_00_00_01/data_extbnb_reco1_mcc9/extbnb_C2/00/00/74/71/larlite_opreco_19c85aed-c548-429e-86e5-b40d188439f2.root'
p731
aS'/pnfs/uboone/data/uboone/larlite_opreco/prod_v08_00_00_01/data_extbnb_reco1_mcc9/extbnb_C2/00/00/74/58/larlite_opreco_ab30a0b0-55c9-48c9-bcac-4e02601dee25.root'
p732
aS'/pnfs/uboone/data/uboone/larlite_opreco/prod_v08_00_00_01/data_extbnb_reco1_mcc9/extbnb_C2/00/00/74/68/larlite_opreco_638bb68e-c31c-447e-a42e-771c0a3e0780.root'
p733
aS'/pnfs/uboone/data/uboone/larlite_opreco/prod_v08_00_00_01/data_extbnb_reco1_mcc9/extbnb_C2/00/00/74/66/larlite_opreco_1cce1334-a14e-46ed-bdb7-b481482b111a.root'
p734
aS'/pnfs/uboone/data/uboone/larlite_opreco/prod_v08_00_00_01/data_extbnb_reco1_mcc9/extbnb_C2/00/00/74/20/larlite_opreco_c54da5e3-e3a9-4646-8791-d12b0bd7b6b9.root'
p735
aS'/pnfs/uboone/data/uboone/larlite_opreco/prod_v08_00_00_01/data_extbnb_reco1_mcc9/extbnb_C2/00/00/73/91/larlite_opreco_c0b2a161-0f83-45d8-9eea-cf118efb35e8.root'
p736
aS'/pnfs/uboone/data/uboone/larlite_opreco/prod_v08_00_00_01/data_extbnb_reco1_mcc9/extbnb_C2/00/00/73/91/larlite_opreco_212fa123-81e7-469c-9325-d2ca4e78201a.root'
p737
aS'/pnfs/uboone/data/uboone/larlite_opreco/prod_v08_00_00_01/data_extbnb_reco1_mcc9/extbnb_C2/00/00/74/66/larlite_opreco_985e088b-728c-4c22-8b22-6ba996be39a5.root'
p738
aS'/pnfs/uboone/data/uboone/larlite_opreco/prod_v08_00_00_01/data_extbnb_reco1_mcc9/extbnb_C2/00/00/74/61/larlite_opreco_4fceedf7-4393-4353-a063-bdb80e64009c.root'
p739
aS'/pnfs/uboone/data/uboone/larlite_opreco/prod_v08_00_00_01/data_extbnb_reco1_mcc9/extbnb_C2/00/00/74/66/larlite_opreco_3c61d24d-4c3d-485e-9728-c94c2f20aeec.root'
p740
aS'/pnfs/uboone/data/uboone/larlite_opreco/prod_v08_00_00_01/data_extbnb_reco1_mcc9/extbnb_C2/00/00/74/00/larlite_opreco_0216a973-de7d-450c-9d27-e671bf41e040.root'
p741
aS'/pnfs/uboone/data/uboone/larlite_opreco/prod_v08_00_00_01/data_extbnb_reco1_mcc9/extbnb_C2/00/00/73/92/larlite_opreco_c82bf160-e8b3-435d-bb28-f398cf6cca70.root'
p742
aS'/pnfs/uboone/data/uboone/larlite_opreco/prod_v08_00_00_01/data_extbnb_reco1_mcc9/extbnb_C2/00/00/74/71/larlite_opreco_cd1c1ce9-7426-4fb5-9fc8-d78e361d89c6.root'
p743
aS'/pnfs/uboone/data/uboone/larlite_opreco/prod_v08_00_00_01/data_extbnb_reco1_mcc9/extbnb_C2/00/00/74/57/larlite_opreco_060a37df-e7f4-4a1e-8edb-bf5bc6c23a0c.root'
p744
aS'/pnfs/uboone/data/uboone/larlite_opreco/prod_v08_00_00_01/data_extbnb_reco1_mcc9/extbnb_C2/00/00/73/93/larlite_opreco_8e938491-ccdc-424c-9170-fd0e07b90055.root'
p745
aS'/pnfs/uboone/data/uboone/larlite_opreco/prod_v08_00_00_01/data_extbnb_reco1_mcc9/extbnb_C2/00/00/74/73/larlite_opreco_029dad4e-b5ba-473a-b358-0d228c880bdb.root'
p746
aS'/pnfs/uboone/data/uboone/larlite_opreco/prod_v08_00_00_01/data_extbnb_reco1_mcc9/extbnb_C2/00/00/74/61/larlite_opreco_988e8411-ed17-4831-83cb-3d4cdf607379.root'
p747
aS'/pnfs/uboone/data/uboone/larlite_opreco/prod_v08_00_00_01/data_extbnb_reco1_mcc9/extbnb_C2/00/00/74/20/larlite_opreco_9887b41f-750e-4652-9826-c90c5c6ed55b.root'
p748
aS'/pnfs/uboone/data/uboone/larlite_opreco/prod_v08_00_00_01/data_extbnb_reco1_mcc9/extbnb_C2/00/00/74/71/larlite_opreco_d574af69-ddcf-4d5e-b948-68d60fd226d7.root'
p749
aS'/pnfs/uboone/data/uboone/larlite_opreco/prod_v08_00_00_01/data_extbnb_reco1_mcc9/extbnb_C2/00/00/74/26/larlite_opreco_1438758d-a01a-4b89-8d1e-2c0e6993297c.root'
p750
aS'/pnfs/uboone/data/uboone/larlite_opreco/prod_v08_00_00_01/data_extbnb_reco1_mcc9/extbnb_C2/00/00/74/71/larlite_opreco_d5e6d73d-2ca2-41c4-b447-34b5095510c8.root'
p751
aS'/pnfs/uboone/data/uboone/larlite_opreco/prod_v08_00_00_01/data_extbnb_reco1_mcc9/extbnb_C2/00/00/74/64/larlite_opreco_c6399771-ab15-4d77-bcc3-a4f20f5449e3.root'
p752
aS'/pnfs/uboone/data/uboone/larlite_opreco/prod_v08_00_00_01/data_extbnb_reco1_mcc9/extbnb_C2/00/00/74/66/larlite_opreco_4d5df50f-ee0a-4f1c-9566-52b8d5f08e95.root'
p753
aS'/pnfs/uboone/data/uboone/larlite_opreco/prod_v08_00_00_01/data_extbnb_reco1_mcc9/extbnb_C2/00/00/74/61/larlite_opreco_dedb89f8-00be-41e7-811f-37201dd58908.root'
p754
aS'/pnfs/uboone/data/uboone/larlite_opreco/prod_v08_00_00_01/data_extbnb_reco1_mcc9/extbnb_C2/00/00/74/73/larlite_opreco_f7f95413-2989-483a-a384-8d97ee1b3d63.root'
p755
aS'/pnfs/uboone/data/uboone/larlite_opreco/prod_v08_00_00_01/data_extbnb_reco1_mcc9/extbnb_C2/00/00/74/73/larlite_opreco_3f3758b5-158d-43ee-84d1-7a5e6062b79b.root'
p756
aS'/pnfs/uboone/data/uboone/larlite_opreco/prod_v08_00_00_01/data_extbnb_reco1_mcc9/extbnb_C2/00/00/73/92/larlite_opreco_3f7cfd2f-ca5c-408a-b9ee-d73e8f787b8f.root'
p757
aS'/pnfs/uboone/data/uboone/larlite_opreco/prod_v08_00_00_01/data_extbnb_reco1_mcc9/extbnb_C2/00/00/74/65/larlite_opreco_bcfd86cd-b03e-43a9-90f6-384aef5718fd.root'
p758
aS'/pnfs/uboone/data/uboone/larlite_opreco/prod_v08_00_00_01/data_extbnb_reco1_mcc9/extbnb_C2/00/00/74/00/larlite_opreco_36904b8c-71f4-4d43-a73c-be53acba9b67.root'
p759
aS'/pnfs/uboone/data/uboone/larlite_opreco/prod_v08_00_00_01/data_extbnb_reco1_mcc9/extbnb_C2/00/00/74/58/larlite_opreco_2a9f077d-32a2-4dca-b834-1613a08fa970.root'
p760
aS'/pnfs/uboone/data/uboone/larlite_opreco/prod_v08_00_00_01/data_extbnb_reco1_mcc9/extbnb_C2/00/00/74/66/larlite_opreco_04f7f68c-74da-40d6-aae2-b00f273cb0d8.root'
p761
aS'/pnfs/uboone/data/uboone/larlite_opreco/prod_v08_00_00_01/data_extbnb_reco1_mcc9/extbnb_C2/00/00/74/71/larlite_opreco_c791a941-64e1-4aeb-925b-21f5d328d8f3.root'
p762
aS'/pnfs/uboone/data/uboone/larlite_opreco/prod_v08_00_00_01/data_extbnb_reco1_mcc9/extbnb_C2/00/00/74/61/larlite_opreco_2a7cfb7c-3abc-4279-bf4c-04c7e3eb3d5f.root'
p763
aS'/pnfs/uboone/data/uboone/larlite_opreco/prod_v08_00_00_01/data_extbnb_reco1_mcc9/extbnb_C2/00/00/74/69/larlite_opreco_803a2b04-420b-4531-ad0e-58b6bab414cc.root'
p764
aS'/pnfs/uboone/data/uboone/larlite_opreco/prod_v08_00_00_01/data_extbnb_reco1_mcc9/extbnb_C2/00/00/74/66/larlite_opreco_17af2d87-e9f2-4100-b193-04d07897f10b.root'
p765
aS'/pnfs/uboone/data/uboone/larlite_opreco/prod_v08_00_00_01/data_extbnb_reco1_mcc9/extbnb_C2/00/00/74/66/larlite_opreco_562c0b84-457f-4c60-8e4b-8d9d30ffc6d7.root'
p766
aS'/pnfs/uboone/data/uboone/larlite_opreco/prod_v08_00_00_01/data_extbnb_reco1_mcc9/extbnb_C2/00/00/74/66/larlite_opreco_8b472729-b892-4471-a040-7a33798adfd3.root'
p767
aS'/pnfs/uboone/data/uboone/larlite_opreco/prod_v08_00_00_01/data_extbnb_reco1_mcc9/extbnb_C2/00/00/74/66/larlite_opreco_6c2f9198-a2aa-4094-9ed1-d30be5481de3.root'
p768
aS'/pnfs/uboone/data/uboone/larlite_opreco/prod_v08_00_00_01/data_extbnb_reco1_mcc9/extbnb_C2/00/00/73/91/larlite_opreco_3a2ec88e-94fe-4b63-a874-bbb9bcdcfe75.root'
p769
aS'/pnfs/uboone/data/uboone/larlite_opreco/prod_v08_00_00_01/data_extbnb_reco1_mcc9/extbnb_C2/00/00/74/58/larlite_opreco_c9e40f91-2825-4e0b-af29-2a23048307f6.root'
p770
aS'/pnfs/uboone/data/uboone/larlite_opreco/prod_v08_00_00_01/data_extbnb_reco1_mcc9/extbnb_C2/00/00/74/66/larlite_opreco_71f28c3d-b0b7-4564-a5b9-7b3d5b80d4d4.root'
p771
aS'/pnfs/uboone/data/uboone/larlite_opreco/prod_v08_00_00_01/data_extbnb_reco1_mcc9/extbnb_C2/00/00/74/69/larlite_opreco_bb3db957-f469-4102-95b8-139ec53ae33c.root'
p772
aS'/pnfs/uboone/data/uboone/larlite_opreco/prod_v08_00_00_01/data_extbnb_reco1_mcc9/extbnb_C2/00/00/74/61/larlite_opreco_8da19cdf-719a-4e3b-92c4-be05bd188527.root'
p773
aS'/pnfs/uboone/data/uboone/larlite_opreco/prod_v08_00_00_01/data_extbnb_reco1_mcc9/extbnb_C2/00/00/74/66/larlite_opreco_ed7dd594-f382-4059-a6b6-4b367d97f467.root'
p774
aS'/pnfs/uboone/data/uboone/larlite_opreco/prod_v08_00_00_01/data_extbnb_reco1_mcc9/extbnb_C2/00/00/74/66/larlite_opreco_43d89b29-ce1b-4a39-84fc-83a24f5ee2d4.root'
p775
aS'/pnfs/uboone/data/uboone/larlite_opreco/prod_v08_00_00_01/data_extbnb_reco1_mcc9/extbnb_C2/00/00/74/73/larlite_opreco_48d4738b-31bf-4367-a3a1-e964e2ae8677.root'
p776
aS'/pnfs/uboone/data/uboone/larlite_opreco/prod_v08_00_00_01/data_extbnb_reco1_mcc9/extbnb_C2/00/00/74/57/larlite_opreco_104f54d8-97f4-4e33-ac23-922e01955e32.root'
p777
aS'/pnfs/uboone/data/uboone/larlite_opreco/prod_v08_00_00_01/data_extbnb_reco1_mcc9/extbnb_C2/00/00/74/66/larlite_opreco_8d6df610-4176-4832-ab1a-302def4d86a0.root'
p778
aS'/pnfs/uboone/data/uboone/larlite_opreco/prod_v08_00_00_01/data_extbnb_reco1_mcc9/extbnb_C2/00/00/74/00/larlite_opreco_0b55adb1-41f8-4075-b40a-515884e18cad.root'
p779
aS'/pnfs/uboone/data/uboone/larlite_opreco/prod_v08_00_00_01/data_extbnb_reco1_mcc9/extbnb_C2/00/00/73/93/larlite_opreco_f82ca461-66e1-46e5-8f85-085be5b2cd17.root'
p780
aS'/pnfs/uboone/data/uboone/larlite_opreco/prod_v08_00_00_01/data_extbnb_reco1_mcc9/extbnb_C2/00/00/74/61/larlite_opreco_456708c8-54f5-431f-8be2-65a9d6235ec9.root'
p781
aS'/pnfs/uboone/data/uboone/larlite_opreco/prod_v08_00_00_01/data_extbnb_reco1_mcc9/extbnb_C2/00/00/74/18/larlite_opreco_aa7b17a4-bf3b-4a35-9aa5-baa2069f7277.root'
p782
aS'/pnfs/uboone/data/uboone/larlite_opreco/prod_v08_00_00_01/data_extbnb_reco1_mcc9/extbnb_C2/00/00/73/98/larlite_opreco_21d4a23b-fd66-48a0-92a3-e9ede746b98d.root'
p783
aS'/pnfs/uboone/data/uboone/larlite_opreco/prod_v08_00_00_01/data_extbnb_reco1_mcc9/extbnb_C2/00/00/74/61/larlite_opreco_efbfd586-6241-4015-81c3-54521d78d1da.root'
p784
aS'/pnfs/uboone/data/uboone/larlite_opreco/prod_v08_00_00_01/data_extbnb_reco1_mcc9/extbnb_C2/00/00/74/73/larlite_opreco_10f6c77e-99bd-4505-aa0a-4125deff4eff.root'
p785
aS'/pnfs/uboone/data/uboone/larlite_opreco/prod_v08_00_00_01/data_extbnb_reco1_mcc9/extbnb_C2/00/00/74/59/larlite_opreco_f6bd8193-7b7f-435c-977c-593de64286e3.root'
p786
aS'/pnfs/uboone/data/uboone/larlite_opreco/prod_v08_00_00_01/data_extbnb_reco1_mcc9/extbnb_C2/00/00/74/69/larlite_opreco_0c75ff6c-1277-480c-8840-c6863d54f357.root'
p787
aS'/pnfs/uboone/data/uboone/larlite_opreco/prod_v08_00_00_01/data_extbnb_reco1_mcc9/extbnb_C2/00/00/73/93/larlite_opreco_6b88b552-c615-4820-90ef-252048e2b39b.root'
p788
aS'/pnfs/uboone/data/uboone/larlite_opreco/prod_v08_00_00_01/data_extbnb_reco1_mcc9/extbnb_C2/00/00/74/61/larlite_opreco_1aec913b-3052-4b02-b85f-45a9c395f7cf.root'
p789
aS'/pnfs/uboone/data/uboone/larlite_opreco/prod_v08_00_00_01/data_extbnb_reco1_mcc9/extbnb_C2/00/00/74/66/larlite_opreco_4523d3c0-1c7c-4811-9de0-de5b8b75ce4f.root'
p790
aS'/pnfs/uboone/data/uboone/larlite_opreco/prod_v08_00_00_01/data_extbnb_reco1_mcc9/extbnb_C2/00/00/73/93/larlite_opreco_85cab46c-5b48-4c7f-b229-d84e3a8927b9.root'
p791
aS'/pnfs/uboone/data/uboone/larlite_opreco/prod_v08_00_00_01/data_extbnb_reco1_mcc9/extbnb_C2/00/00/74/69/larlite_opreco_fdf5b09c-8538-47a4-b5b7-3df6602ee10f.root'
p792
aS'/pnfs/uboone/data/uboone/larlite_opreco/prod_v08_00_00_01/data_extbnb_reco1_mcc9/extbnb_C2/00/00/74/66/larlite_opreco_a444064e-8b74-4482-9254-cf8057517462.root'
p793
aS'/pnfs/uboone/data/uboone/larlite_opreco/prod_v08_00_00_01/data_extbnb_reco1_mcc9/extbnb_C2/00/00/74/69/larlite_opreco_b72135bd-a249-4cc6-882c-1ccb707f147f.root'
p794
aS'/pnfs/uboone/data/uboone/larlite_opreco/prod_v08_00_00_01/data_extbnb_reco1_mcc9/extbnb_C2/00/00/74/66/larlite_opreco_44369f26-9c25-4e9a-96dc-c7a02d6fd1da.root'
p795
aS'/pnfs/uboone/data/uboone/larlite_opreco/prod_v08_00_00_01/data_extbnb_reco1_mcc9/extbnb_C2/00/00/74/61/larlite_opreco_96ffde6c-422b-4435-bdd8-c3bd1d05e0a2.root'
p796
aS'/pnfs/uboone/data/uboone/larlite_opreco/prod_v08_00_00_01/data_extbnb_reco1_mcc9/extbnb_C2/00/00/74/66/larlite_opreco_865e6077-5e53-439f-85c6-1c383c0a6f4a.root'
p797
aS'/pnfs/uboone/data/uboone/larlite_opreco/prod_v08_00_00_01/data_extbnb_reco1_mcc9/extbnb_C2/00/00/74/00/larlite_opreco_ae3b40d9-02a2-4066-a528-7de3cd94232b.root'
p798
aS'/pnfs/uboone/data/uboone/larlite_opreco/prod_v08_00_00_01/data_extbnb_reco1_mcc9/extbnb_C2/00/00/73/97/larlite_opreco_9e59ef64-73c5-4c5a-970c-159e6ff0f11a.root'
p799
aS'/pnfs/uboone/data/uboone/larlite_opreco/prod_v08_00_00_01/data_extbnb_reco1_mcc9/extbnb_C2/00/00/74/61/larlite_opreco_d6a9d6e3-30e5-411f-af2b-73ed64888e36.root'
p800
aS'/pnfs/uboone/data/uboone/larlite_opreco/prod_v08_00_00_01/data_extbnb_reco1_mcc9/extbnb_C2/00/00/74/66/larlite_opreco_c8c774bc-bf14-4428-860f-345231830cd8.root'
p801
aS'/pnfs/uboone/data/uboone/larlite_opreco/prod_v08_00_00_01/data_extbnb_reco1_mcc9/extbnb_C2/00/00/74/73/larlite_opreco_bb018fa4-8afb-4647-8fb7-21551b99046c.root'
p802
aS'/pnfs/uboone/data/uboone/larlite_opreco/prod_v08_00_00_01/data_extbnb_reco1_mcc9/extbnb_C2/00/00/74/71/larlite_opreco_17af45ef-eb53-4651-9b6d-89fcaa352f38.root'
p803
aS'/pnfs/uboone/data/uboone/larlite_opreco/prod_v08_00_00_01/data_extbnb_reco1_mcc9/extbnb_C2/00/00/74/63/larlite_opreco_3877a497-d90c-4a27-8e60-a3df36c2acc8.root'
p804
aS'/pnfs/uboone/data/uboone/larlite_opreco/prod_v08_00_00_01/data_extbnb_reco1_mcc9/extbnb_C2/00/00/73/91/larlite_opreco_a53485a2-e0e7-4a89-9ac0-d5d447caef71.root'
p805
aS'/pnfs/uboone/data/uboone/larlite_opreco/prod_v08_00_00_01/data_extbnb_reco1_mcc9/extbnb_C2/00/00/74/69/larlite_opreco_69445312-e886-4e68-85ce-73461bf1d773.root'
p806
aS'/pnfs/uboone/data/uboone/larlite_opreco/prod_v08_00_00_01/data_extbnb_reco1_mcc9/extbnb_C2/00/00/74/66/larlite_opreco_07b3714b-4c0e-4ee7-a281-a51aecc8da8c.root'
p807
aS'/pnfs/uboone/data/uboone/larlite_opreco/prod_v08_00_00_01/data_extbnb_reco1_mcc9/extbnb_C2/00/00/74/71/larlite_opreco_c7e6da07-b7a0-40f2-9624-dc914b0bcd97.root'
p808
aS'/pnfs/uboone/data/uboone/larlite_opreco/prod_v08_00_00_01/data_extbnb_reco1_mcc9/extbnb_C2/00/00/74/66/larlite_opreco_71a20e74-6382-4885-b130-9f979c02ce9a.root'
p809
aS'/pnfs/uboone/data/uboone/larlite_opreco/prod_v08_00_00_01/data_extbnb_reco1_mcc9/extbnb_C2/00/00/73/98/larlite_opreco_f8e017de-db67-46d7-b52c-47307a360373.root'
p810
aS'/pnfs/uboone/data/uboone/larlite_opreco/prod_v08_00_00_01/data_extbnb_reco1_mcc9/extbnb_C2/00/00/73/92/larlite_opreco_9df0d641-5ac7-43ce-9c99-3a80b9549edb.root'
p811
aS'/pnfs/uboone/data/uboone/larlite_opreco/prod_v08_00_00_01/data_extbnb_reco1_mcc9/extbnb_C2/00/00/74/71/larlite_opreco_7f972723-fbaa-4cd2-b1b6-d49a45a06e60.root'
p812
aS'/pnfs/uboone/data/uboone/larlite_opreco/prod_v08_00_00_01/data_extbnb_reco1_mcc9/extbnb_C2/00/00/74/66/larlite_opreco_ece28851-8faf-4381-a218-ee247a6c0482.root'
p813
aS'/pnfs/uboone/data/uboone/larlite_opreco/prod_v08_00_00_01/data_extbnb_reco1_mcc9/extbnb_C2/00/00/74/66/larlite_opreco_5993f25c-0c50-4371-83fa-2c6e0373fc56.root'
p814
aS'/pnfs/uboone/data/uboone/larlite_opreco/prod_v08_00_00_01/data_extbnb_reco1_mcc9/extbnb_C2/00/00/74/62/larlite_opreco_028744b3-e205-4e75-842d-269d547ab67f.root'
p815
aS'/pnfs/uboone/data/uboone/larlite_opreco/prod_v08_00_00_01/data_extbnb_reco1_mcc9/extbnb_C2/00/00/74/64/larlite_opreco_6abc7e9b-1314-4f6f-83b9-75d0873e5f8b.root'
p816
aS'/pnfs/uboone/data/uboone/larlite_opreco/prod_v08_00_00_01/data_extbnb_reco1_mcc9/extbnb_C2/00/00/74/66/larlite_opreco_a0597685-c9e6-44b2-9d1b-838240362e9e.root'
p817
aS'/pnfs/uboone/data/uboone/larlite_opreco/prod_v08_00_00_01/data_extbnb_reco1_mcc9/extbnb_C2/00/00/74/57/larlite_opreco_f5a3f0c3-9fe1-4bc2-9321-4b442b10364a.root'
p818
aS'/pnfs/uboone/data/uboone/larlite_opreco/prod_v08_00_00_01/data_extbnb_reco1_mcc9/extbnb_C2/00/00/74/61/larlite_opreco_d6408e90-f1d8-4ade-a8d0-445de97b998a.root'
p819
aS'/pnfs/uboone/data/uboone/larlite_opreco/prod_v08_00_00_01/data_extbnb_reco1_mcc9/extbnb_C2/00/00/74/61/larlite_opreco_d307f377-7674-4e02-8c93-07c7b8c22f34.root'
p820
aS'/pnfs/uboone/data/uboone/larlite_opreco/prod_v08_00_00_01/data_extbnb_reco1_mcc9/extbnb_C2/00/00/74/03/larlite_opreco_8dbe0d6a-85e5-4cbd-a762-c40c7a6f164a.root'
p821
aS'/pnfs/uboone/data/uboone/larlite_opreco/prod_v08_00_00_01/data_extbnb_reco1_mcc9/extbnb_C2/00/00/74/61/larlite_opreco_1a907e63-6e49-499d-bc21-3ea1743275a6.root'
p822
aS'/pnfs/uboone/data/uboone/larlite_opreco/prod_v08_00_00_01/data_extbnb_reco1_mcc9/extbnb_C2/00/00/73/91/larlite_opreco_2e27ed55-beed-4b6f-b331-d99231c48e92.root'
p823
aS'/pnfs/uboone/data/uboone/larlite_opreco/prod_v08_00_00_01/data_extbnb_reco1_mcc9/extbnb_C2/00/00/73/91/larlite_opreco_59eb653a-e7bf-4972-be4e-6d2f7868efbd.root'
p824
aS'/pnfs/uboone/data/uboone/larlite_opreco/prod_v08_00_00_01/data_extbnb_reco1_mcc9/extbnb_C2/00/00/73/27/larlite_opreco_904084fd-badb-417b-a5fd-d78bfa611a62.root'
p825
aS'/pnfs/uboone/data/uboone/larlite_opreco/prod_v08_00_00_01/data_extbnb_reco1_mcc9/extbnb_C2/00/00/74/66/larlite_opreco_0a340ba8-d1a3-498c-a79f-20b90d847a14.root'
p826
aS'/pnfs/uboone/data/uboone/larlite_opreco/prod_v08_00_00_01/data_extbnb_reco1_mcc9/extbnb_C2/00/00/74/42/larlite_opreco_e191abc4-cd60-44a2-8c1b-763b01986d03.root'
p827
aS'/pnfs/uboone/data/uboone/larlite_opreco/prod_v08_00_00_01/data_extbnb_reco1_mcc9/extbnb_C2/00/00/74/73/larlite_opreco_385157ea-3ee7-47d5-9abe-a5c22e9ed73e.root'
p828
aS'/pnfs/uboone/data/uboone/larlite_opreco/prod_v08_00_00_01/data_extbnb_reco1_mcc9/extbnb_C2/00/00/74/66/larlite_opreco_8a38d018-2918-45ed-b33d-3a3148b6d6f9.root'
p829
aS'/pnfs/uboone/data/uboone/larlite_opreco/prod_v08_00_00_01/data_extbnb_reco1_mcc9/extbnb_C2/00/00/74/61/larlite_opreco_3f4dcb54-abc1-434e-8a4a-ecc6a92c29af.root'
p830
aS'/pnfs/uboone/data/uboone/larlite_opreco/prod_v08_00_00_01/data_extbnb_reco1_mcc9/extbnb_C2/00/00/73/92/larlite_opreco_76bf6456-24cf-45b8-903c-29e1ab7b6405.root'
p831
aS'/pnfs/uboone/data/uboone/larlite_opreco/prod_v08_00_00_01/data_extbnb_reco1_mcc9/extbnb_C2/00/00/74/73/larlite_opreco_a8e65707-ea04-4389-b938-3b31c73c85c5.root'
p832
aS'/pnfs/uboone/data/uboone/larlite_opreco/prod_v08_00_00_01/data_extbnb_reco1_mcc9/extbnb_C2/00/00/74/59/larlite_opreco_afb6da2d-98bb-4285-bd6b-727f047e44ca.root'
p833
aS'/pnfs/uboone/data/uboone/larlite_opreco/prod_v08_00_00_01/data_extbnb_reco1_mcc9/extbnb_C2/00/00/74/36/larlite_opreco_21770525-3abe-4074-8835-5adae819e51f.root'
p834
aS'/pnfs/uboone/data/uboone/larlite_opreco/prod_v08_00_00_01/data_extbnb_reco1_mcc9/extbnb_C2/00/00/74/66/larlite_opreco_8e9c6f44-b039-4507-a285-daaf46754df2.root'
p835
aS'/pnfs/uboone/data/uboone/larlite_opreco/prod_v08_00_00_01/data_extbnb_reco1_mcc9/extbnb_C2/00/00/74/66/larlite_opreco_9bd6ec7b-6736-4728-9986-2ce8a2fd5ece.root'
p836
aS'/pnfs/uboone/data/uboone/larlite_opreco/prod_v08_00_00_01/data_extbnb_reco1_mcc9/extbnb_C2/00/00/74/64/larlite_opreco_1fc507c1-f319-4362-939e-7dbb1a3b3aaf.root'
p837
aS'/pnfs/uboone/data/uboone/larlite_opreco/prod_v08_00_00_01/data_extbnb_reco1_mcc9/extbnb_C2/00/00/74/66/larlite_opreco_7a2ebfee-1cd1-4ad5-a847-6adb025e738b.root'
p838
aS'/pnfs/uboone/data/uboone/larlite_opreco/prod_v08_00_00_01/data_extbnb_reco1_mcc9/extbnb_C2/00/00/74/65/larlite_opreco_c79cd6c5-7851-403f-a821-db8e9842e032.root'
p839
aS'/pnfs/uboone/data/uboone/larlite_opreco/prod_v08_00_00_01/data_extbnb_reco1_mcc9/extbnb_C2/00/00/73/97/larlite_opreco_94784048-3c3c-4eee-a5bc-b8ab66528189.root'
p840
aS'/pnfs/uboone/data/uboone/larlite_opreco/prod_v08_00_00_01/data_extbnb_reco1_mcc9/extbnb_C2/00/00/74/62/larlite_opreco_b7e54a39-b21e-4211-87be-b3851f58f939.root'
p841
aS'/pnfs/uboone/data/uboone/larlite_opreco/prod_v08_00_00_01/data_extbnb_reco1_mcc9/extbnb_C2/00/00/74/66/larlite_opreco_4df7ede1-04e3-42d8-a128-0438276c2d52.root'
p842
aS'/pnfs/uboone/data/uboone/larlite_opreco/prod_v08_00_00_01/data_extbnb_reco1_mcc9/extbnb_C2/00/00/74/66/larlite_opreco_783bcb16-f397-40b5-902c-d9bca77c7027.root'
p843
aS'/pnfs/uboone/data/uboone/larlite_opreco/prod_v08_00_00_01/data_extbnb_reco1_mcc9/extbnb_C2/00/00/73/93/larlite_opreco_676ae08a-f292-4a19-8dac-75c730875a0b.root'
p844
aS'/pnfs/uboone/data/uboone/larlite_opreco/prod_v08_00_00_01/data_extbnb_reco1_mcc9/extbnb_C2/00/00/73/91/larlite_opreco_22b7c4a5-e19e-40af-94e6-943236f863e5.root'
p845
aS'/pnfs/uboone/data/uboone/larlite_opreco/prod_v08_00_00_01/data_extbnb_reco1_mcc9/extbnb_C2/00/00/74/57/larlite_opreco_f64fac2c-0bc3-45c7-9689-99fac66c4a74.root'
p846
aS'/pnfs/uboone/data/uboone/larlite_opreco/prod_v08_00_00_01/data_extbnb_reco1_mcc9/extbnb_C2/00/00/73/91/larlite_opreco_fa412205-ab8d-4b5b-9715-d2da93e05abe.root'
p847
aS'/pnfs/uboone/data/uboone/larlite_opreco/prod_v08_00_00_01/data_extbnb_reco1_mcc9/extbnb_C2/00/00/74/00/larlite_opreco_5ac09965-9766-4d96-8595-be99f045cb19.root'
p848
aS'/pnfs/uboone/data/uboone/larlite_opreco/prod_v08_00_00_01/data_extbnb_reco1_mcc9/extbnb_C2/00/00/73/91/larlite_opreco_21a34f2e-47c1-48b9-b29a-28902deb855c.root'
p849
aS'/pnfs/uboone/data/uboone/larlite_opreco/prod_v08_00_00_01/data_extbnb_reco1_mcc9/extbnb_C2/00/00/74/66/larlite_opreco_b49f5b7e-9e1d-48f9-bd28-41a4f49d526f.root'
p850
aS'/pnfs/uboone/data/uboone/larlite_opreco/prod_v08_00_00_01/data_extbnb_reco1_mcc9/extbnb_C2/00/00/73/91/larlite_opreco_02c2a380-b881-4605-b6c6-ab2b1525a7bd.root'
p851
aS'/pnfs/uboone/data/uboone/larlite_opreco/prod_v08_00_00_01/data_extbnb_reco1_mcc9/extbnb_C2/00/00/73/92/larlite_opreco_400a2b7d-3130-4956-992f-68252472ddab.root'
p852
aS'/pnfs/uboone/data/uboone/larlite_opreco/prod_v08_00_00_01/data_extbnb_reco1_mcc9/extbnb_C2/00/00/74/61/larlite_opreco_727cf323-7dc0-4aeb-ae33-981027d95f0d.root'
p853
aS'/pnfs/uboone/data/uboone/larlite_opreco/prod_v08_00_00_01/data_extbnb_reco1_mcc9/extbnb_C2/00/00/74/66/larlite_opreco_9f22b6ef-97b9-40f2-a79b-55bbd63d7f86.root'
p854
aS'/pnfs/uboone/data/uboone/larlite_opreco/prod_v08_00_00_01/data_extbnb_reco1_mcc9/extbnb_C2/00/00/74/00/larlite_opreco_b0cfbc2b-4b83-4a3c-bbce-9f44401972a7.root'
p855
aS'/pnfs/uboone/data/uboone/larlite_opreco/prod_v08_00_00_01/data_extbnb_reco1_mcc9/extbnb_C2/00/00/74/61/larlite_opreco_25c66f2f-a476-4210-976f-5bb5704289e8.root'
p856
aS'/pnfs/uboone/data/uboone/larlite_opreco/prod_v08_00_00_01/data_extbnb_reco1_mcc9/extbnb_C2/00/00/74/66/larlite_opreco_2cb7f24c-2e86-4de7-ad5f-8bb030701e75.root'
p857
aS'/pnfs/uboone/data/uboone/larlite_opreco/prod_v08_00_00_01/data_extbnb_reco1_mcc9/extbnb_C2/00/00/74/66/larlite_opreco_acbbac34-d6bb-48a8-a6dd-f7d513f86417.root'
p858
aS'/pnfs/uboone/data/uboone/larlite_opreco/prod_v08_00_00_01/data_extbnb_reco1_mcc9/extbnb_C2/00/00/73/91/larlite_opreco_3e87e64f-14b6-44c1-9b75-ac81fdcb9101.root'
p859
aS'/pnfs/uboone/data/uboone/larlite_opreco/prod_v08_00_00_01/data_extbnb_reco1_mcc9/extbnb_C2/00/00/74/66/larlite_opreco_e8b6a7f8-4fc4-4523-b932-3bff35b48d37.root'
p860
aS'/pnfs/uboone/data/uboone/larlite_opreco/prod_v08_00_00_01/data_extbnb_reco1_mcc9/extbnb_C2/00/00/73/98/larlite_opreco_acf73cc6-0077-49b9-b320-8d032422d734.root'
p861
aS'/pnfs/uboone/data/uboone/larlite_opreco/prod_v08_00_00_01/data_extbnb_reco1_mcc9/extbnb_C2/00/00/73/91/larlite_opreco_bed7cb5e-657c-4063-be70-8ec6234aa34f.root'
p862
aS'/pnfs/uboone/data/uboone/larlite_opreco/prod_v08_00_00_01/data_extbnb_reco1_mcc9/extbnb_C2/00/00/74/18/larlite_opreco_48db1bc0-8c55-4e52-a3a1-cbb516448f6f.root'
p863
aS'/pnfs/uboone/data/uboone/larlite_opreco/prod_v08_00_00_01/data_extbnb_reco1_mcc9/extbnb_C2/00/00/74/03/larlite_opreco_bc6ce116-44a8-41af-a935-4b09941605a5.root'
p864
aS'/pnfs/uboone/data/uboone/larlite_opreco/prod_v08_00_00_01/data_extbnb_reco1_mcc9/extbnb_C2/00/00/74/00/larlite_opreco_0574ba5d-f0c6-40c8-a887-01265d9e7d5f.root'
p865
aS'/pnfs/uboone/data/uboone/larlite_opreco/prod_v08_00_00_01/data_extbnb_reco1_mcc9/extbnb_C2/00/00/73/93/larlite_opreco_e9de19e2-9316-4044-adb6-4456a3d222bb.root'
p866
aS'/pnfs/uboone/data/uboone/larlite_opreco/prod_v08_00_00_01/data_extbnb_reco1_mcc9/extbnb_C2/00/00/74/61/larlite_opreco_066e7e00-9d4c-4f38-8487-3f9f39ecc339.root'
p867
aS'/pnfs/uboone/data/uboone/larlite_opreco/prod_v08_00_00_01/data_extbnb_reco1_mcc9/extbnb_C2/00/00/74/03/larlite_opreco_1a32e428-aa0e-4f83-b5c6-fb5b98d0ecdd.root'
p868
aS'/pnfs/uboone/data/uboone/larlite_opreco/prod_v08_00_00_01/data_extbnb_reco1_mcc9/extbnb_C2/00/00/73/45/larlite_opreco_d3d9da8b-55c9-48e1-8b4e-e1c8cba9c6f0.root'
p869
aS'/pnfs/uboone/data/uboone/larlite_opreco/prod_v08_00_00_01/data_extbnb_reco1_mcc9/extbnb_C2/00/00/74/66/larlite_opreco_c0471d6d-3d9f-44dc-9394-35bb75567539.root'
p870
aS'/pnfs/uboone/data/uboone/larlite_opreco/prod_v08_00_00_01/data_extbnb_reco1_mcc9/extbnb_C2/00/00/74/00/larlite_opreco_e2869fc1-aa5d-4b23-8974-e344a5479619.root'
p871
aS'/pnfs/uboone/data/uboone/larlite_opreco/prod_v08_00_00_01/data_extbnb_reco1_mcc9/extbnb_C2/00/00/74/63/larlite_opreco_52d3a688-adbb-4208-83de-fff89455d7df.root'
p872
aS'/pnfs/uboone/data/uboone/larlite_opreco/prod_v08_00_00_01/data_extbnb_reco1_mcc9/extbnb_C2/00/00/74/71/larlite_opreco_1b965a11-fa43-45f2-8c04-e700224220d0.root'
p873
aS'/pnfs/uboone/data/uboone/larlite_opreco/prod_v08_00_00_01/data_extbnb_reco1_mcc9/extbnb_C2/00/00/74/03/larlite_opreco_6b9e6335-e904-4447-b9ea-d62033145429.root'
p874
aS'/pnfs/uboone/data/uboone/larlite_opreco/prod_v08_00_00_01/data_extbnb_reco1_mcc9/extbnb_C2/00/00/74/61/larlite_opreco_1912f6f3-aa59-48e8-9598-7971afbb59ee.root'
p875
aS'/pnfs/uboone/data/uboone/larlite_opreco/prod_v08_00_00_01/data_extbnb_reco1_mcc9/extbnb_C2/00/00/73/94/larlite_opreco_2cd72ffc-4358-4c1f-855c-6f184465d109.root'
p876
aS'/pnfs/uboone/data/uboone/larlite_opreco/prod_v08_00_00_01/data_extbnb_reco1_mcc9/extbnb_C2/00/00/74/00/larlite_opreco_edcdd87c-b2d2-4bb1-b9a0-157b86c65302.root'
p877
aS'/pnfs/uboone/data/uboone/larlite_opreco/prod_v08_00_00_01/data_extbnb_reco1_mcc9/extbnb_C2/00/00/74/73/larlite_opreco_8a8f432b-5edb-463e-ae1a-e993eb272b41.root'
p878
aS'/pnfs/uboone/data/uboone/larlite_opreco/prod_v08_00_00_01/data_extbnb_reco1_mcc9/extbnb_C2/00/00/74/61/larlite_opreco_62be6834-9a2f-4a50-a78b-818b20adf0f4.root'
p879
aS'/pnfs/uboone/data/uboone/larlite_opreco/prod_v08_00_00_01/data_extbnb_reco1_mcc9/extbnb_C2/00/00/74/57/larlite_opreco_07bb6141-ea10-4243-be48-e3a5b852ac89.root'
p880
aS'/pnfs/uboone/data/uboone/larlite_opreco/prod_v08_00_00_01/data_extbnb_reco1_mcc9/extbnb_C2/00/00/74/69/larlite_opreco_c306b16a-7ece-43f1-9f5f-80b472181f3f.root'
p881
aS'/pnfs/uboone/data/uboone/larlite_opreco/prod_v08_00_00_01/data_extbnb_reco1_mcc9/extbnb_C2/00/00/74/19/larlite_opreco_56fe5ec3-a81b-4388-99f5-4ccbdfd08be3.root'
p882
aS'/pnfs/uboone/data/uboone/larlite_opreco/prod_v08_00_00_01/data_extbnb_reco1_mcc9/extbnb_C2/00/00/74/55/larlite_opreco_319e4ac8-95b3-4352-8479-3948ab2419a7.root'
p883
aS'/pnfs/uboone/data/uboone/larlite_opreco/prod_v08_00_00_01/data_extbnb_reco1_mcc9/extbnb_C2/00/00/74/59/larlite_opreco_2f79c32d-7e2d-45ae-bf31-a453cee86c38.root'
p884
aS'/pnfs/uboone/data/uboone/larlite_opreco/prod_v08_00_00_01/data_extbnb_reco1_mcc9/extbnb_C2/00/00/74/61/larlite_opreco_bcc89c4e-ccc1-4902-82f1-04af40b0420e.root'
p885
aS'/pnfs/uboone/data/uboone/larlite_opreco/prod_v08_00_00_01/data_extbnb_reco1_mcc9/extbnb_C2/00/00/74/68/larlite_opreco_ef0fcb26-7b8b-400d-89e4-3b86ecd7b8c0.root'
p886
aS'/pnfs/uboone/data/uboone/larlite_opreco/prod_v08_00_00_01/data_extbnb_reco1_mcc9/extbnb_C2/00/00/74/73/larlite_opreco_33fbdf03-4e47-4064-b2af-380fc700c9d8.root'
p887
aS'/pnfs/uboone/data/uboone/larlite_opreco/prod_v08_00_00_01/data_extbnb_reco1_mcc9/extbnb_C2/00/00/74/69/larlite_opreco_954aa00f-c8be-45ee-8801-cf6d30ff3e6b.root'
p888
aS'/pnfs/uboone/data/uboone/larlite_opreco/prod_v08_00_00_01/data_extbnb_reco1_mcc9/extbnb_C2/00/00/74/17/larlite_opreco_9f451d81-3a30-4c9f-b18e-d6e1315b7570.root'
p889
aS'/pnfs/uboone/data/uboone/larlite_opreco/prod_v08_00_00_01/data_extbnb_reco1_mcc9/extbnb_C2/00/00/74/00/larlite_opreco_03fbecbb-169d-484f-9878-7bfc06419896.root'
p890
aS'/pnfs/uboone/data/uboone/larlite_opreco/prod_v08_00_00_01/data_extbnb_reco1_mcc9/extbnb_C2/00/00/74/03/larlite_opreco_c747ecde-36a2-4ebe-a65d-4aae17e94eec.root'
p891
aS'/pnfs/uboone/data/uboone/larlite_opreco/prod_v08_00_00_01/data_extbnb_reco1_mcc9/extbnb_C2/00/00/73/97/larlite_opreco_23f1f045-d9ca-4644-aeea-34043dea1744.root'
p892
aS'/pnfs/uboone/data/uboone/larlite_opreco/prod_v08_00_00_01/data_extbnb_reco1_mcc9/extbnb_C2/00/00/74/20/larlite_opreco_897ae20d-8a42-4381-a31b-3725979eac2d.root'
p893
aS'/pnfs/uboone/data/uboone/larlite_opreco/prod_v08_00_00_01/data_extbnb_reco1_mcc9/extbnb_C2/00/00/74/66/larlite_opreco_8afa6e29-8bb2-409c-b240-3ef365b71725.root'
p894
aS'/pnfs/uboone/data/uboone/larlite_opreco/prod_v08_00_00_01/data_extbnb_reco1_mcc9/extbnb_C2/00/00/74/03/larlite_opreco_3382e108-4eaf-42d6-b05f-692ebcb04322.root'
p895
aS'/pnfs/uboone/data/uboone/larlite_opreco/prod_v08_00_00_01/data_extbnb_reco1_mcc9/extbnb_C2/00/00/74/57/larlite_opreco_6034d545-6179-4241-84a5-9108770df745.root'
p896
aS'/pnfs/uboone/data/uboone/larlite_opreco/prod_v08_00_00_01/data_extbnb_reco1_mcc9/extbnb_C2/00/00/73/49/larlite_opreco_47e0cf82-2513-481c-a2ae-5c133aa94556.root'
p897
aS'/pnfs/uboone/data/uboone/larlite_opreco/prod_v08_00_00_01/data_extbnb_reco1_mcc9/extbnb_C2/00/00/74/61/larlite_opreco_8eb70f67-e202-4d38-ac64-d033eac787b5.root'
p898
aS'/pnfs/uboone/data/uboone/larlite_opreco/prod_v08_00_00_01/data_extbnb_reco1_mcc9/extbnb_C2/00/00/74/15/larlite_opreco_bbbc4ed6-f20f-4575-b71e-80855bf26e54.root'
p899
aS'/pnfs/uboone/data/uboone/larlite_opreco/prod_v08_00_00_01/data_extbnb_reco1_mcc9/extbnb_C2/00/00/74/58/larlite_opreco_82f6f77a-375c-4d4b-bd11-c02ffa161bd8.root'
p900
aS'/pnfs/uboone/data/uboone/larlite_opreco/prod_v08_00_00_01/data_extbnb_reco1_mcc9/extbnb_C2/00/00/73/93/larlite_opreco_f9c32258-0943-4105-b23f-4d395594e583.root'
p901
aS'/pnfs/uboone/data/uboone/larlite_opreco/prod_v08_00_00_01/data_extbnb_reco1_mcc9/extbnb_C2/00/00/73/91/larlite_opreco_8685e467-730f-4e2c-8cb6-91ec6fbdfd18.root'
p902
aS'/pnfs/uboone/data/uboone/larlite_opreco/prod_v08_00_00_01/data_extbnb_reco1_mcc9/extbnb_C2/00/00/73/97/larlite_opreco_576a1403-25c0-4d3d-82cf-48dabd7d72da.root'
p903
aS'/pnfs/uboone/data/uboone/larlite_opreco/prod_v08_00_00_01/data_extbnb_reco1_mcc9/extbnb_C2/00/00/74/66/larlite_opreco_538391a3-51a3-44da-bee6-46cc62687a49.root'
p904
aS'/pnfs/uboone/data/uboone/larlite_opreco/prod_v08_00_00_01/data_extbnb_reco1_mcc9/extbnb_C2/00/00/74/03/larlite_opreco_b98635f6-7a20-428b-ad77-99f84cb8d29a.root'
p905
aS'/pnfs/uboone/data/uboone/larlite_opreco/prod_v08_00_00_01/data_extbnb_reco1_mcc9/extbnb_C2/00/00/74/66/larlite_opreco_37f33735-259f-40bd-a51a-6b6d102a3c68.root'
p906
aS'/pnfs/uboone/data/uboone/larlite_opreco/prod_v08_00_00_01/data_extbnb_reco1_mcc9/extbnb_C2/00/00/73/97/larlite_opreco_06fa5475-9867-408a-bb4c-afbbc0af4dab.root'
p907
aS'/pnfs/uboone/data/uboone/larlite_opreco/prod_v08_00_00_01/data_extbnb_reco1_mcc9/extbnb_C2/00/00/74/58/larlite_opreco_748b6375-d93c-489e-b246-f7fe360eb6ed.root'
p908
aS'/pnfs/uboone/data/uboone/larlite_opreco/prod_v08_00_00_01/data_extbnb_reco1_mcc9/extbnb_C2/00/00/74/61/larlite_opreco_491725e2-571f-44e4-82f6-1ef4cb52ade0.root'
p909
aS'/pnfs/uboone/data/uboone/larlite_opreco/prod_v08_00_00_01/data_extbnb_reco1_mcc9/extbnb_C2/00/00/74/00/larlite_opreco_13f82fab-27f7-4562-b202-ca78d6742015.root'
p910
aS'/pnfs/uboone/data/uboone/larlite_opreco/prod_v08_00_00_01/data_extbnb_reco1_mcc9/extbnb_C2/00/00/73/94/larlite_opreco_0857bf23-9651-4c7f-9bff-25e704a0960b.root'
p911
aS'/pnfs/uboone/data/uboone/larlite_opreco/prod_v08_00_00_01/data_extbnb_reco1_mcc9/extbnb_C2/00/00/73/91/larlite_opreco_51651441-13a7-488f-b161-b4fbfd015c3e.root'
p912
aS'/pnfs/uboone/data/uboone/larlite_opreco/prod_v08_00_00_01/data_extbnb_reco1_mcc9/extbnb_C2/00/00/74/21/larlite_opreco_3bca4e7e-5247-4cbc-8364-f63253d566bf.root'
p913
aS'/pnfs/uboone/data/uboone/larlite_opreco/prod_v08_00_00_01/data_extbnb_reco1_mcc9/extbnb_C2/00/00/74/01/larlite_opreco_71d671a5-6ef6-4b9f-823b-a2d03630aaa4.root'
p914
aS'/pnfs/uboone/data/uboone/larlite_opreco/prod_v08_00_00_01/data_extbnb_reco1_mcc9/extbnb_C2/00/00/73/93/larlite_opreco_84d8aacb-37a7-4d4a-8aaf-9a8b9d85b59f.root'
p915
aS'/pnfs/uboone/data/uboone/larlite_opreco/prod_v08_00_00_01/data_extbnb_reco1_mcc9/extbnb_C2/00/00/74/65/larlite_opreco_fa394643-d700-4067-8e5c-3cf3572a169b.root'
p916
aS'/pnfs/uboone/data/uboone/larlite_opreco/prod_v08_00_00_01/data_extbnb_reco1_mcc9/extbnb_C2/00/00/73/91/larlite_opreco_f122e38e-02e8-4c30-bf86-deb6d3b91b5d.root'
p917
aS'/pnfs/uboone/data/uboone/larlite_opreco/prod_v08_00_00_01/data_extbnb_reco1_mcc9/extbnb_C2/00/00/74/20/larlite_opreco_7cb6f640-086e-42aa-9bcb-a5a6d3f4ce32.root'
p918
aS'/pnfs/uboone/data/uboone/larlite_opreco/prod_v08_00_00_01/data_extbnb_reco1_mcc9/extbnb_C2/00/00/73/98/larlite_opreco_e316b42f-6787-4516-af14-6094f8036205.root'
p919
aS'/pnfs/uboone/data/uboone/larlite_opreco/prod_v08_00_00_01/data_extbnb_reco1_mcc9/extbnb_C2/00/00/74/66/larlite_opreco_7c95fb53-cec4-4ad7-b537-d567f4cf0c5d.root'
p920
aS'/pnfs/uboone/data/uboone/larlite_opreco/prod_v08_00_00_01/data_extbnb_reco1_mcc9/extbnb_C2/00/00/74/57/larlite_opreco_204df7da-4531-4bdf-8cd7-1d4a3750ec1d.root'
p921
aS'/pnfs/uboone/data/uboone/larlite_opreco/prod_v08_00_00_01/data_extbnb_reco1_mcc9/extbnb_C2/00/00/73/91/larlite_opreco_019b780a-c471-4404-be35-611736730fd9.root'
p922
aS'/pnfs/uboone/data/uboone/larlite_opreco/prod_v08_00_00_01/data_extbnb_reco1_mcc9/extbnb_C2/00/00/74/66/larlite_opreco_9f4a6283-5a70-4609-959d-5c6464c30c8c.root'
p923
aS'/pnfs/uboone/data/uboone/larlite_opreco/prod_v08_00_00_01/data_extbnb_reco1_mcc9/extbnb_C2/00/00/74/66/larlite_opreco_2ddb0649-9964-428c-b0fa-258e669c6259.root'
p924
aS'/pnfs/uboone/data/uboone/larlite_opreco/prod_v08_00_00_01/data_extbnb_reco1_mcc9/extbnb_C2/00/00/74/66/larlite_opreco_a2693133-0e8d-4ac8-b79a-4cb978bc3129.root'
p925
aS'/pnfs/uboone/data/uboone/larlite_opreco/prod_v08_00_00_01/data_extbnb_reco1_mcc9/extbnb_C2/00/00/74/73/larlite_opreco_3a175716-db7e-491c-9246-96808b7c3995.root'
p926
aS'/pnfs/uboone/data/uboone/larlite_opreco/prod_v08_00_00_01/data_extbnb_reco1_mcc9/extbnb_C2/00/00/74/61/larlite_opreco_167e1e9d-19b0-4621-8e18-3b7935a02eec.root'
p927
aS'/pnfs/uboone/data/uboone/larlite_opreco/prod_v08_00_00_01/data_extbnb_reco1_mcc9/extbnb_C2/00/00/73/93/larlite_opreco_89b8d3e3-850e-4eac-82a8-807bc86ed3f4.root'
p928
aS'/pnfs/uboone/data/uboone/larlite_opreco/prod_v08_00_00_01/data_extbnb_reco1_mcc9/extbnb_C2/00/00/74/66/larlite_opreco_23a44275-22db-4f1e-8aad-d9b9ef34de18.root'
p929
aS'/pnfs/uboone/data/uboone/larlite_opreco/prod_v08_00_00_01/data_extbnb_reco1_mcc9/extbnb_C2/00/00/73/91/larlite_opreco_be6c00b1-0d7b-48bc-93ac-ff3d7afadcaa.root'
p930
aS'/pnfs/uboone/data/uboone/larlite_opreco/prod_v08_00_00_01/data_extbnb_reco1_mcc9/extbnb_C2/00/00/73/91/larlite_opreco_44ffcbaa-f431-4612-a55d-ac796594834a.root'
p931
aS'/pnfs/uboone/data/uboone/larlite_opreco/prod_v08_00_00_01/data_extbnb_reco1_mcc9/extbnb_C2/00/00/74/61/larlite_opreco_30a3a580-e8a2-4aa3-9945-3f98abea4e39.root'
p932
aS'/pnfs/uboone/data/uboone/larlite_opreco/prod_v08_00_00_01/data_extbnb_reco1_mcc9/extbnb_C2/00/00/73/91/larlite_opreco_6c40be5d-9adc-44e9-8bd5-120f8e488e18.root'
p933
aS'/pnfs/uboone/data/uboone/larlite_opreco/prod_v08_00_00_01/data_extbnb_reco1_mcc9/extbnb_C2/00/00/73/91/larlite_opreco_adfca959-e25e-4fa6-b911-bcde0e34fb5e.root'
p934
aS'/pnfs/uboone/data/uboone/larlite_opreco/prod_v08_00_00_01/data_extbnb_reco1_mcc9/extbnb_C2/00/00/74/57/larlite_opreco_954a20b7-73dc-43fc-8a87-602d155d98bc.root'
p935
aS'/pnfs/uboone/data/uboone/larlite_opreco/prod_v08_00_00_01/data_extbnb_reco1_mcc9/extbnb_C2/00/00/74/00/larlite_opreco_fbe52e17-6395-4fd6-9c0b-df1558cc8a5f.root'
p936
aS'/pnfs/uboone/data/uboone/larlite_opreco/prod_v08_00_00_01/data_extbnb_reco1_mcc9/extbnb_C2/00/00/73/91/larlite_opreco_33529027-9a8a-4cab-90c9-d576f0145eb0.root'
p937
aS'/pnfs/uboone/data/uboone/larlite_opreco/prod_v08_00_00_01/data_extbnb_reco1_mcc9/extbnb_C2/00/00/73/91/larlite_opreco_084d0265-c577-46e2-afa3-c543c33f3bb5.root'
p938
aS'/pnfs/uboone/data/uboone/larlite_opreco/prod_v08_00_00_01/data_extbnb_reco1_mcc9/extbnb_C2/00/00/74/62/larlite_opreco_19fe7b46-3bb3-4262-88ad-a461e3157297.root'
p939
aS'/pnfs/uboone/data/uboone/larlite_opreco/prod_v08_00_00_01/data_extbnb_reco1_mcc9/extbnb_C2/00/00/73/91/larlite_opreco_3828bc0f-a86a-4dac-9bc1-dec420d41134.root'
p940
aS'/pnfs/uboone/data/uboone/larlite_opreco/prod_v08_00_00_01/data_extbnb_reco1_mcc9/extbnb_C2/00/00/73/27/larlite_opreco_79521d46-76bf-4dce-b879-1f0d4a34207d.root'
p941
aS'/pnfs/uboone/data/uboone/larlite_opreco/prod_v08_00_00_01/data_extbnb_reco1_mcc9/extbnb_C2/00/00/74/00/larlite_opreco_4ed677dc-67b8-42dc-9c31-55eeb43e71ce.root'
p942
aS'/pnfs/uboone/data/uboone/larlite_opreco/prod_v08_00_00_01/data_extbnb_reco1_mcc9/extbnb_C2/00/00/82/91/larlite_opreco_77f06a5f-5259-4c81-a53a-c247b6ed1d6b.root'
p943
aS'/pnfs/uboone/data/uboone/larlite_opreco/prod_v08_00_00_01/data_extbnb_reco1_mcc9/extbnb_C2/00/00/73/34/larlite_opreco_f1d58adf-0e6d-47c5-b52a-aac0b8f19e8d.root'
p944
aS'/pnfs/uboone/data/uboone/larlite_opreco/prod_v08_00_00_01/data_extbnb_reco1_mcc9/extbnb_C2/00/00/73/91/larlite_opreco_c84c40b3-1c4e-47e1-98b3-5626d7a45c3c.root'
p945
aS'/pnfs/uboone/data/uboone/larlite_opreco/prod_v08_00_00_01/data_extbnb_reco1_mcc9/extbnb_C2/00/00/74/66/larlite_opreco_5b1f0fe9-1346-470f-9da3-8d1ae9143ebb.root'
p946
aS'/pnfs/uboone/data/uboone/larlite_opreco/prod_v08_00_00_01/data_extbnb_reco1_mcc9/extbnb_C2/00/00/73/91/larlite_opreco_4febf33e-d1ad-4326-b858-fc47a0a14f5b.root'
p947
aS'/pnfs/uboone/data/uboone/larlite_opreco/prod_v08_00_00_01/data_extbnb_reco1_mcc9/extbnb_C2/00/00/73/26/larlite_opreco_4bd17ee4-c2f2-4e12-9f3c-bafabafbe2c1.root'
p948
aS'/pnfs/uboone/data/uboone/larlite_opreco/prod_v08_00_00_01/data_extbnb_reco1_mcc9/extbnb_C2/00/00/77/29/larlite_opreco_61bf55b5-e106-4f68-bd24-498122e07e47.root'
p949
aS'/pnfs/uboone/data/uboone/larlite_opreco/prod_v08_00_00_01/data_extbnb_reco1_mcc9/extbnb_C2/00/00/83/06/larlite_opreco_de154389-1d52-42ef-81ed-dfb126d796dd.root'
p950
aS'/pnfs/uboone/data/uboone/larlite_opreco/prod_v08_00_00_01/data_extbnb_reco1_mcc9/extbnb_C2/00/00/76/25/larlite_opreco_fc4a37a4-40d2-4e57-9929-7bc73e3bdc93.root'
p951
aS'/pnfs/uboone/data/uboone/larlite_opreco/prod_v08_00_00_01/data_extbnb_reco1_mcc9/extbnb_C2/00/00/74/61/larlite_opreco_62722bee-169a-4999-82bf-b5d7e09cc839.root'
p952
aS'/pnfs/uboone/data/uboone/larlite_opreco/prod_v08_00_00_01/data_extbnb_reco1_mcc9/extbnb_C2/00/00/74/57/larlite_opreco_26ee937b-01aa-467a-863a-5f4a95828db7.root'
p953
a.