(lp0
S'/pnfs/uboone/data/uboone/larcv_wholeview/prod_v08_00_00_01/data_extbnb_reco1_mcc9/extbnb_C2/00/00/73/98/larcv_wholeview_e6926623-32a7-42fd-9832-4790d030ca17.root'
p1
aS'/pnfs/uboone/data/uboone/larcv_wholeview/prod_v08_00_00_01/data_extbnb_reco1_mcc9/extbnb_C2/00/00/74/59/larcv_wholeview_0efbfcc5-b21b-4660-9bf5-ffafd47874bb.root'
p2
aS'/pnfs/uboone/data/uboone/larcv_wholeview/prod_v08_00_00_01/data_extbnb_reco1_mcc9/extbnb_C2/00/00/74/40/larcv_wholeview_f92f86f4-73ad-4325-9db0-9a2333d79aa1.root'
p3
aS'/pnfs/uboone/data/uboone/larcv_wholeview/prod_v08_00_00_01/data_extbnb_reco1_mcc9/extbnb_C2/00/00/74/57/larcv_wholeview_b7232018-b6d7-4df2-8a64-760d1b1e4704.root'
p4
aS'/pnfs/uboone/data/uboone/larcv_wholeview/prod_v08_00_00_01/data_extbnb_reco1_mcc9/extbnb_C2/00/00/73/98/larcv_wholeview_43292957-658a-49fe-872d-03b1724aa3a2.root'
p5
aS'/pnfs/uboone/data/uboone/larcv_wholeview/prod_v08_00_00_01/data_extbnb_reco1_mcc9/extbnb_C2/00/00/74/42/larcv_wholeview_ae7261e7-c67d-4d1f-a8da-4504c89cfffc.root'
p6
aS'/pnfs/uboone/data/uboone/larcv_wholeview/prod_v08_00_00_01/data_extbnb_reco1_mcc9/extbnb_C2/00/00/74/59/larcv_wholeview_eca7be10-b3ac-49b0-9dc7-65a284611718.root'
p7
aS'/pnfs/uboone/data/uboone/larcv_wholeview/prod_v08_00_00_01/data_extbnb_reco1_mcc9/extbnb_C2/00/00/74/57/larcv_wholeview_dd68395b-6503-40f7-a9cf-56cd766a679f.root'
p8
aS'/pnfs/uboone/data/uboone/larcv_wholeview/prod_v08_00_00_01/data_extbnb_reco1_mcc9/extbnb_C2/00/00/74/56/larcv_wholeview_8c937577-85c4-493e-a4fd-6f94ae272b36.root'
p9
aS'/pnfs/uboone/data/uboone/larcv_wholeview/prod_v08_00_00_01/data_extbnb_reco1_mcc9/extbnb_C2/00/00/74/57/larcv_wholeview_0f6d8dd5-7cd5-4962-be6b-5e6b7414474c.root'
p10
aS'/pnfs/uboone/data/uboone/larcv_wholeview/prod_v08_00_00_01/data_extbnb_reco1_mcc9/extbnb_C2/00/00/73/91/larcv_wholeview_dc4bc59a-e195-44d6-8ef2-527cbd451c18.root'
p11
aS'/pnfs/uboone/data/uboone/larcv_wholeview/prod_v08_00_00_01/data_extbnb_reco1_mcc9/extbnb_C2/00/00/74/34/larcv_wholeview_63dfb8c6-cbb8-41a3-9045-1a2dcafd8628.root'
p12
aS'/pnfs/uboone/data/uboone/larcv_wholeview/prod_v08_00_00_01/data_extbnb_reco1_mcc9/extbnb_C2/00/00/74/42/larcv_wholeview_e7cfa548-87c5-47bc-b4db-bfa551ebb8ed.root'
p13
aS'/pnfs/uboone/data/uboone/larcv_wholeview/prod_v08_00_00_01/data_extbnb_reco1_mcc9/extbnb_C2/00/00/74/42/larcv_wholeview_b2cc74f0-1d43-4f2f-84a9-6d2f21e61b4d.root'
p14
aS'/pnfs/uboone/data/uboone/larcv_wholeview/prod_v08_00_00_01/data_extbnb_reco1_mcc9/extbnb_C2/00/00/74/40/larcv_wholeview_3c532604-eff8-4eb4-a658-107ad51b8a96.root'
p15
aS'/pnfs/uboone/data/uboone/larcv_wholeview/prod_v08_00_00_01/data_extbnb_reco1_mcc9/extbnb_C2/00/00/73/92/larcv_wholeview_80b49223-d691-432c-96b0-bb60f76a7764.root'
p16
aS'/pnfs/uboone/data/uboone/larcv_wholeview/prod_v08_00_00_01/data_extbnb_reco1_mcc9/extbnb_C2/00/00/74/00/larcv_wholeview_c59f6167-c2f9-4a83-9ca3-4e3a72f0014c.root'
p17
aS'/pnfs/uboone/data/uboone/larcv_wholeview/prod_v08_00_00_01/data_extbnb_reco1_mcc9/extbnb_C2/00/00/74/42/larcv_wholeview_89cb136c-1916-48bf-9a51-560abb935bb6.root'
p18
aS'/pnfs/uboone/data/uboone/larcv_wholeview/prod_v08_00_00_01/data_extbnb_reco1_mcc9/extbnb_C2/00/00/73/93/larcv_wholeview_1ec5218e-eb4b-43a9-898f-3eb4a46b5b5b.root'
p19
aS'/pnfs/uboone/data/uboone/larcv_wholeview/prod_v08_00_00_01/data_extbnb_reco1_mcc9/extbnb_C2/00/00/74/00/larcv_wholeview_c43e70e2-08c9-42f7-94b4-cf5557fc2ffd.root'
p20
aS'/pnfs/uboone/data/uboone/larcv_wholeview/prod_v08_00_00_01/data_extbnb_reco1_mcc9/extbnb_C2/00/00/74/40/larcv_wholeview_3004d569-6dd3-45da-9d10-d208a01bb197.root'
p21
aS'/pnfs/uboone/data/uboone/larcv_wholeview/prod_v08_00_00_01/data_extbnb_reco1_mcc9/extbnb_C2/00/00/74/62/larcv_wholeview_71ab1662-e974-4c43-8822-86e8179a9f83.root'
p22
aS'/pnfs/uboone/data/uboone/larcv_wholeview/prod_v08_00_00_01/data_extbnb_reco1_mcc9/extbnb_C2/00/00/74/42/larcv_wholeview_edb967a2-8dc7-4b85-a46d-f3ae3dfa0566.root'
p23
aS'/pnfs/uboone/data/uboone/larcv_wholeview/prod_v08_00_00_01/data_extbnb_reco1_mcc9/extbnb_C2/00/00/73/93/larcv_wholeview_569ea0d5-83d5-47ba-af46-4e6ac4e109fb.root'
p24
aS'/pnfs/uboone/data/uboone/larcv_wholeview/prod_v08_00_00_01/data_extbnb_reco1_mcc9/extbnb_C2/00/00/74/42/larcv_wholeview_7b7c2d17-6b6e-4fa5-8274-58f6875f737e.root'
p25
aS'/pnfs/uboone/data/uboone/larcv_wholeview/prod_v08_00_00_01/data_extbnb_reco1_mcc9/extbnb_C2/00/00/74/36/larcv_wholeview_3029b130-c440-40ea-bdda-59f960bba570.root'
p26
aS'/pnfs/uboone/data/uboone/larcv_wholeview/prod_v08_00_00_01/data_extbnb_reco1_mcc9/extbnb_C2/00/00/74/00/larcv_wholeview_72e32609-d681-46fd-b932-e9717da93deb.root'
p27
aS'/pnfs/uboone/data/uboone/larcv_wholeview/prod_v08_00_00_01/data_extbnb_reco1_mcc9/extbnb_C2/00/00/73/93/larcv_wholeview_7a4ed2d2-ac79-40ca-ad17-35b0eca2114c.root'
p28
aS'/pnfs/uboone/data/uboone/larcv_wholeview/prod_v08_00_00_01/data_extbnb_reco1_mcc9/extbnb_C2/00/00/74/57/larcv_wholeview_83407cac-7ef1-4114-a1c3-638740da8579.root'
p29
aS'/pnfs/uboone/data/uboone/larcv_wholeview/prod_v08_00_00_01/data_extbnb_reco1_mcc9/extbnb_C2/00/00/74/38/larcv_wholeview_3e34bdfe-6763-4529-b681-5ed0305c351f.root'
p30
aS'/pnfs/uboone/data/uboone/larcv_wholeview/prod_v08_00_00_01/data_extbnb_reco1_mcc9/extbnb_C2/00/00/74/03/larcv_wholeview_d4867d28-06ff-4679-9dcd-e116ea936338.root'
p31
aS'/pnfs/uboone/data/uboone/larcv_wholeview/prod_v08_00_00_01/data_extbnb_reco1_mcc9/extbnb_C2/00/00/73/93/larcv_wholeview_33faaf16-af23-4d20-962a-e9fed59c1f75.root'
p32
aS'/pnfs/uboone/data/uboone/larcv_wholeview/prod_v08_00_00_01/data_extbnb_reco1_mcc9/extbnb_C2/00/00/74/44/larcv_wholeview_2274c30a-7db1-441f-b15c-3c8962f51f57.root'
p33
aS'/pnfs/uboone/data/uboone/larcv_wholeview/prod_v08_00_00_01/data_extbnb_reco1_mcc9/extbnb_C2/00/00/74/00/larcv_wholeview_1767642e-4dba-400c-9f6c-f8f4392f3109.root'
p34
aS'/pnfs/uboone/data/uboone/larcv_wholeview/prod_v08_00_00_01/data_extbnb_reco1_mcc9/extbnb_C2/00/00/74/00/larcv_wholeview_296e04fd-12ef-430e-8d44-7e008cf71f37.root'
p35
aS'/pnfs/uboone/data/uboone/larcv_wholeview/prod_v08_00_00_01/data_extbnb_reco1_mcc9/extbnb_C2/00/00/74/57/larcv_wholeview_0edeb4c5-b403-4a72-8834-af9a3510c070.root'
p36
aS'/pnfs/uboone/data/uboone/larcv_wholeview/prod_v08_00_00_01/data_extbnb_reco1_mcc9/extbnb_C2/00/00/74/41/larcv_wholeview_93c87ed9-252f-499b-b3de-d70a4693080a.root'
p37
aS'/pnfs/uboone/data/uboone/larcv_wholeview/prod_v08_00_00_01/data_extbnb_reco1_mcc9/extbnb_C2/00/00/73/93/larcv_wholeview_9dde3f1e-af72-4646-915a-214a5b17488c.root'
p38
aS'/pnfs/uboone/data/uboone/larcv_wholeview/prod_v08_00_00_01/data_extbnb_reco1_mcc9/extbnb_C2/00/00/74/57/larcv_wholeview_cf90c297-16d9-435e-b91a-befb51357b96.root'
p39
aS'/pnfs/uboone/data/uboone/larcv_wholeview/prod_v08_00_00_01/data_extbnb_reco1_mcc9/extbnb_C2/00/00/73/49/larcv_wholeview_d194093a-825f-4e19-aeaa-c4dd3a6ed223.root'
p40
aS'/pnfs/uboone/data/uboone/larcv_wholeview/prod_v08_00_00_01/data_extbnb_reco1_mcc9/extbnb_C2/00/00/74/44/larcv_wholeview_a1fc933c-e861-44d1-a9de-bf0e13da0c7c.root'
p41
aS'/pnfs/uboone/data/uboone/larcv_wholeview/prod_v08_00_00_01/data_extbnb_reco1_mcc9/extbnb_C2/00/00/73/98/larcv_wholeview_62d05d33-9c8b-41b2-b1d7-62ca02a0efe3.root'
p42
aS'/pnfs/uboone/data/uboone/larcv_wholeview/prod_v08_00_00_01/data_extbnb_reco1_mcc9/extbnb_C2/00/00/74/57/larcv_wholeview_c20a71ff-6ea1-4329-bc74-081998daa33e.root'
p43
aS'/pnfs/uboone/data/uboone/larcv_wholeview/prod_v08_00_00_01/data_extbnb_reco1_mcc9/extbnb_C2/00/00/74/34/larcv_wholeview_f4a6e6ca-8ea1-452e-80f7-02391ef7b790.root'
p44
aS'/pnfs/uboone/data/uboone/larcv_wholeview/prod_v08_00_00_01/data_extbnb_reco1_mcc9/extbnb_C2/00/00/74/40/larcv_wholeview_54822aa2-21eb-4aae-bf4e-13fa65ae5239.root'
p45
aS'/pnfs/uboone/data/uboone/larcv_wholeview/prod_v08_00_00_01/data_extbnb_reco1_mcc9/extbnb_C2/00/00/74/58/larcv_wholeview_41d7d61e-bda6-4af6-a82d-f142550d19a3.root'
p46
aS'/pnfs/uboone/data/uboone/larcv_wholeview/prod_v08_00_00_01/data_extbnb_reco1_mcc9/extbnb_C2/00/00/74/57/larcv_wholeview_4fcfc209-836e-4af6-8267-7cd7ff0666a3.root'
p47
aS'/pnfs/uboone/data/uboone/larcv_wholeview/prod_v08_00_00_01/data_extbnb_reco1_mcc9/extbnb_C2/00/00/74/42/larcv_wholeview_b1c10de3-5c42-43a9-b961-b979ed1f6298.root'
p48
aS'/pnfs/uboone/data/uboone/larcv_wholeview/prod_v08_00_00_01/data_extbnb_reco1_mcc9/extbnb_C2/00/00/74/42/larcv_wholeview_61efbbe3-2fb7-4d60-88a1-ab509aed9fa7.root'
p49
aS'/pnfs/uboone/data/uboone/larcv_wholeview/prod_v08_00_00_01/data_extbnb_reco1_mcc9/extbnb_C2/00/00/74/61/larcv_wholeview_df75053b-0527-4297-abe5-3ff939d316d7.root'
p50
aS'/pnfs/uboone/data/uboone/larcv_wholeview/prod_v08_00_00_01/data_extbnb_reco1_mcc9/extbnb_C2/00/00/74/42/larcv_wholeview_6c34790d-a284-46ba-90e9-55edf7e65e0e.root'
p51
aS'/pnfs/uboone/data/uboone/larcv_wholeview/prod_v08_00_00_01/data_extbnb_reco1_mcc9/extbnb_C2/00/00/74/55/larcv_wholeview_5c711c6d-d1d8-4184-8705-e7c2e0500708.root'
p52
aS'/pnfs/uboone/data/uboone/larcv_wholeview/prod_v08_00_00_01/data_extbnb_reco1_mcc9/extbnb_C2/00/00/74/00/larcv_wholeview_dc05b940-970c-44b7-b82a-ee7a1f2d5527.root'
p53
aS'/pnfs/uboone/data/uboone/larcv_wholeview/prod_v08_00_00_01/data_extbnb_reco1_mcc9/extbnb_C2/00/00/74/57/larcv_wholeview_a5d2dab1-20ba-41b5-a768-a0306b54b0ad.root'
p54
aS'/pnfs/uboone/data/uboone/larcv_wholeview/prod_v08_00_00_01/data_extbnb_reco1_mcc9/extbnb_C2/00/00/73/49/larcv_wholeview_57a50de8-8e7e-4680-a702-126c5f03715d.root'
p55
aS'/pnfs/uboone/data/uboone/larcv_wholeview/prod_v08_00_00_01/data_extbnb_reco1_mcc9/extbnb_C2/00/00/74/58/larcv_wholeview_bcd7b412-6f94-4235-a13c-25388e8e06c4.root'
p56
aS'/pnfs/uboone/data/uboone/larcv_wholeview/prod_v08_00_00_01/data_extbnb_reco1_mcc9/extbnb_C2/00/00/74/03/larcv_wholeview_fcda80fb-cd1d-4612-adfb-1b003e6c2e96.root'
p57
aS'/pnfs/uboone/data/uboone/larcv_wholeview/prod_v08_00_00_01/data_extbnb_reco1_mcc9/extbnb_C2/00/00/74/00/larcv_wholeview_bdc7b464-d51b-43bd-8905-57d5287d01ef.root'
p58
aS'/pnfs/uboone/data/uboone/larcv_wholeview/prod_v08_00_00_01/data_extbnb_reco1_mcc9/extbnb_C2/00/00/74/44/larcv_wholeview_98945731-7aab-405f-83d9-ceca84d5922c.root'
p59
aS'/pnfs/uboone/data/uboone/larcv_wholeview/prod_v08_00_00_01/data_extbnb_reco1_mcc9/extbnb_C2/00/00/74/56/larcv_wholeview_e8fd7091-5d70-4e00-a1c2-bbf70fd14bad.root'
p60
aS'/pnfs/uboone/data/uboone/larcv_wholeview/prod_v08_00_00_01/data_extbnb_reco1_mcc9/extbnb_C2/00/00/74/57/larcv_wholeview_0f3339f8-9cdb-475b-ad1d-8385743ceda1.root'
p61
aS'/pnfs/uboone/data/uboone/larcv_wholeview/prod_v08_00_00_01/data_extbnb_reco1_mcc9/extbnb_C2/00/00/74/36/larcv_wholeview_c7742cce-2bed-4125-943d-45fdef7dccf8.root'
p62
aS'/pnfs/uboone/data/uboone/larcv_wholeview/prod_v08_00_00_01/data_extbnb_reco1_mcc9/extbnb_C2/00/00/74/61/larcv_wholeview_56ac0236-5600-41ee-bb76-f1ce8008e781.root'
p63
aS'/pnfs/uboone/data/uboone/larcv_wholeview/prod_v08_00_00_01/data_extbnb_reco1_mcc9/extbnb_C2/00/00/74/61/larcv_wholeview_b70b751d-507a-4b58-955b-530a354a22c3.root'
p64
aS'/pnfs/uboone/data/uboone/larcv_wholeview/prod_v08_00_00_01/data_extbnb_reco1_mcc9/extbnb_C2/00/00/74/57/larcv_wholeview_65d8bd08-1496-4747-a78c-1b9075b02489.root'
p65
aS'/pnfs/uboone/data/uboone/larcv_wholeview/prod_v08_00_00_01/data_extbnb_reco1_mcc9/extbnb_C2/00/00/73/49/larcv_wholeview_297d4d8d-ad44-4b40-a156-86aa3419c6ef.root'
p66
aS'/pnfs/uboone/data/uboone/larcv_wholeview/prod_v08_00_00_01/data_extbnb_reco1_mcc9/extbnb_C2/00/00/74/40/larcv_wholeview_266d5f07-19d4-449d-8187-a15791fbfe16.root'
p67
aS'/pnfs/uboone/data/uboone/larcv_wholeview/prod_v08_00_00_01/data_extbnb_reco1_mcc9/extbnb_C2/00/00/74/57/larcv_wholeview_654e0c8d-9a4f-4052-af63-373dd45e73c8.root'
p68
aS'/pnfs/uboone/data/uboone/larcv_wholeview/prod_v08_00_00_01/data_extbnb_reco1_mcc9/extbnb_C2/00/00/74/00/larcv_wholeview_8ccd1c45-5f52-4404-b877-f12e7014ec26.root'
p69
aS'/pnfs/uboone/data/uboone/larcv_wholeview/prod_v08_00_00_01/data_extbnb_reco1_mcc9/extbnb_C2/00/00/74/57/larcv_wholeview_2c09331e-6038-4385-a0a0-858d75ce7a86.root'
p70
aS'/pnfs/uboone/data/uboone/larcv_wholeview/prod_v08_00_00_01/data_extbnb_reco1_mcc9/extbnb_C2/00/00/74/57/larcv_wholeview_c121e3a4-0760-4f84-9e8e-52e78c0549fb.root'
p71
aS'/pnfs/uboone/data/uboone/larcv_wholeview/prod_v08_00_00_01/data_extbnb_reco1_mcc9/extbnb_C2/00/00/74/56/larcv_wholeview_33fb5128-afb2-49fe-aa54-ba2ab547cd53.root'
p72
aS'/pnfs/uboone/data/uboone/larcv_wholeview/prod_v08_00_00_01/data_extbnb_reco1_mcc9/extbnb_C2/00/00/74/42/larcv_wholeview_b3429134-bbdf-44b5-b4a3-6fd4b7fe3f03.root'
p73
aS'/pnfs/uboone/data/uboone/larcv_wholeview/prod_v08_00_00_01/data_extbnb_reco1_mcc9/extbnb_C2/00/00/74/57/larcv_wholeview_843ca808-cdf0-4d78-ba8d-9aa55bf2b4c0.root'
p74
aS'/pnfs/uboone/data/uboone/larcv_wholeview/prod_v08_00_00_01/data_extbnb_reco1_mcc9/extbnb_C2/00/00/74/57/larcv_wholeview_4ff60db5-4875-430b-a63b-63d49765c171.root'
p75
aS'/pnfs/uboone/data/uboone/larcv_wholeview/prod_v08_00_00_01/data_extbnb_reco1_mcc9/extbnb_C2/00/00/74/36/larcv_wholeview_62633dba-7f42-4f68-8329-0ff2199eaf36.root'
p76
aS'/pnfs/uboone/data/uboone/larcv_wholeview/prod_v08_00_00_01/data_extbnb_reco1_mcc9/extbnb_C2/00/00/73/98/larcv_wholeview_1a16a969-cd7c-4834-95ca-4aa90aaa215a.root'
p77
aS'/pnfs/uboone/data/uboone/larcv_wholeview/prod_v08_00_00_01/data_extbnb_reco1_mcc9/extbnb_C2/00/00/74/42/larcv_wholeview_dbeae841-e41d-4521-9359-a0cc78313794.root'
p78
aS'/pnfs/uboone/data/uboone/larcv_wholeview/prod_v08_00_00_01/data_extbnb_reco1_mcc9/extbnb_C2/00/00/74/40/larcv_wholeview_c0873f27-d61f-440d-afdd-bf5ae662d1ae.root'
p79
aS'/pnfs/uboone/data/uboone/larcv_wholeview/prod_v08_00_00_01/data_extbnb_reco1_mcc9/extbnb_C2/00/00/73/91/larcv_wholeview_cdd575ed-5b81-43b1-a08e-d0ca45e9447c.root'
p80
aS'/pnfs/uboone/data/uboone/larcv_wholeview/prod_v08_00_00_01/data_extbnb_reco1_mcc9/extbnb_C2/00/00/74/00/larcv_wholeview_bea32526-7870-4e52-85b5-1f1f3a539586.root'
p81
aS'/pnfs/uboone/data/uboone/larcv_wholeview/prod_v08_00_00_01/data_extbnb_reco1_mcc9/extbnb_C2/00/00/74/44/larcv_wholeview_28b062f2-fbb2-4948-ac24-2053e6697340.root'
p82
aS'/pnfs/uboone/data/uboone/larcv_wholeview/prod_v08_00_00_01/data_extbnb_reco1_mcc9/extbnb_C2/00/00/74/65/larcv_wholeview_3020123b-5a00-4637-b1c3-f14e191b0e77.root'
p83
aS'/pnfs/uboone/data/uboone/larcv_wholeview/prod_v08_00_00_01/data_extbnb_reco1_mcc9/extbnb_C2/00/00/73/93/larcv_wholeview_0638d676-4128-4010-8038-b4b57f5eecc5.root'
p84
aS'/pnfs/uboone/data/uboone/larcv_wholeview/prod_v08_00_00_01/data_extbnb_reco1_mcc9/extbnb_C2/00/00/73/91/larcv_wholeview_6eed8fe5-01f8-4177-b822-60483384bfe6.root'
p85
aS'/pnfs/uboone/data/uboone/larcv_wholeview/prod_v08_00_00_01/data_extbnb_reco1_mcc9/extbnb_C2/00/00/74/57/larcv_wholeview_5c31002b-7cc1-4c4a-9666-db6a8e6f9494.root'
p86
aS'/pnfs/uboone/data/uboone/larcv_wholeview/prod_v08_00_00_01/data_extbnb_reco1_mcc9/extbnb_C2/00/00/74/59/larcv_wholeview_c2e4cae8-8a14-41d4-afb8-7a12b39281cb.root'
p87
aS'/pnfs/uboone/data/uboone/larcv_wholeview/prod_v08_00_00_01/data_extbnb_reco1_mcc9/extbnb_C2/00/00/73/94/larcv_wholeview_0abc1987-1485-4c85-b3f3-9b06af550bdb.root'
p88
aS'/pnfs/uboone/data/uboone/larcv_wholeview/prod_v08_00_00_01/data_extbnb_reco1_mcc9/extbnb_C2/00/00/74/42/larcv_wholeview_fb14ba31-d035-44bc-8338-bd659329926e.root'
p89
aS'/pnfs/uboone/data/uboone/larcv_wholeview/prod_v08_00_00_01/data_extbnb_reco1_mcc9/extbnb_C2/00/00/73/91/larcv_wholeview_82ca04e5-672e-4e34-b1b7-781dcc8cad86.root'
p90
aS'/pnfs/uboone/data/uboone/larcv_wholeview/prod_v08_00_00_01/data_extbnb_reco1_mcc9/extbnb_C2/00/00/73/98/larcv_wholeview_67c40e8e-07c3-4b63-a05d-3f10dc7e1e67.root'
p91
aS'/pnfs/uboone/data/uboone/larcv_wholeview/prod_v08_00_00_01/data_extbnb_reco1_mcc9/extbnb_C2/00/00/74/57/larcv_wholeview_dcdd7009-52d3-44a3-99b7-1718ee30daeb.root'
p92
aS'/pnfs/uboone/data/uboone/larcv_wholeview/prod_v08_00_00_01/data_extbnb_reco1_mcc9/extbnb_C2/00/00/73/93/larcv_wholeview_5948d518-056e-4d60-b6f3-3c058bdf3f72.root'
p93
aS'/pnfs/uboone/data/uboone/larcv_wholeview/prod_v08_00_00_01/data_extbnb_reco1_mcc9/extbnb_C2/00/00/74/03/larcv_wholeview_fed3edec-ff63-4e7a-9de0-1a7224018435.root'
p94
aS'/pnfs/uboone/data/uboone/larcv_wholeview/prod_v08_00_00_01/data_extbnb_reco1_mcc9/extbnb_C2/00/00/74/57/larcv_wholeview_c8fa83e9-cf48-4534-9265-30c4b08e0395.root'
p95
aS'/pnfs/uboone/data/uboone/larcv_wholeview/prod_v08_00_00_01/data_extbnb_reco1_mcc9/extbnb_C2/00/00/74/44/larcv_wholeview_ef8b382e-d2d8-49c4-a0e0-f75fcc5f3060.root'
p96
aS'/pnfs/uboone/data/uboone/larcv_wholeview/prod_v08_00_00_01/data_extbnb_reco1_mcc9/extbnb_C2/00/00/74/40/larcv_wholeview_20a621fc-557b-4a63-a29a-f68b31cc2775.root'
p97
aS'/pnfs/uboone/data/uboone/larcv_wholeview/prod_v08_00_00_01/data_extbnb_reco1_mcc9/extbnb_C2/00/00/74/44/larcv_wholeview_72d913a1-0e4c-4397-8ff6-8cea07b42b31.root'
p98
aS'/pnfs/uboone/data/uboone/larcv_wholeview/prod_v08_00_00_01/data_extbnb_reco1_mcc9/extbnb_C2/00/00/74/58/larcv_wholeview_6080755d-7fd6-4bd1-81e3-b87a7d09b556.root'
p99
aS'/pnfs/uboone/data/uboone/larcv_wholeview/prod_v08_00_00_01/data_extbnb_reco1_mcc9/extbnb_C2/00/00/74/00/larcv_wholeview_ab6ed385-0933-4c61-93c2-47b45749c320.root'
p100
aS'/pnfs/uboone/data/uboone/larcv_wholeview/prod_v08_00_00_01/data_extbnb_reco1_mcc9/extbnb_C2/00/00/73/49/larcv_wholeview_a5a574ff-9c96-4874-a711-d90a94b6602b.root'
p101
aS'/pnfs/uboone/data/uboone/larcv_wholeview/prod_v08_00_00_01/data_extbnb_reco1_mcc9/extbnb_C2/00/00/73/93/larcv_wholeview_8dd2da0f-b120-4491-8be2-7d0bbbc076d0.root'
p102
aS'/pnfs/uboone/data/uboone/larcv_wholeview/prod_v08_00_00_01/data_extbnb_reco1_mcc9/extbnb_C2/00/00/73/98/larcv_wholeview_f8f66aa7-d2b8-48aa-933e-f8dc9f2606bb.root'
p103
aS'/pnfs/uboone/data/uboone/larcv_wholeview/prod_v08_00_00_01/data_extbnb_reco1_mcc9/extbnb_C2/00/00/74/38/larcv_wholeview_c6a13d88-1552-4437-b91b-cba3a7e86ab7.root'
p104
aS'/pnfs/uboone/data/uboone/larcv_wholeview/prod_v08_00_00_01/data_extbnb_reco1_mcc9/extbnb_C2/00/00/74/61/larcv_wholeview_6d474540-f5d9-45da-a9d4-2768d6c29773.root'
p105
aS'/pnfs/uboone/data/uboone/larcv_wholeview/prod_v08_00_00_01/data_extbnb_reco1_mcc9/extbnb_C2/00/00/74/42/larcv_wholeview_5a396f9c-3665-4bf7-922a-cae4dcd80329.root'
p106
aS'/pnfs/uboone/data/uboone/larcv_wholeview/prod_v08_00_00_01/data_extbnb_reco1_mcc9/extbnb_C2/00/00/74/00/larcv_wholeview_45460fbc-6dfd-43b3-97dd-39b83096d0c5.root'
p107
aS'/pnfs/uboone/data/uboone/larcv_wholeview/prod_v08_00_00_01/data_extbnb_reco1_mcc9/extbnb_C2/00/00/74/57/larcv_wholeview_8564ff51-b7fb-4ab2-bd47-15363ec521c4.root'
p108
aS'/pnfs/uboone/data/uboone/larcv_wholeview/prod_v08_00_00_01/data_extbnb_reco1_mcc9/extbnb_C2/00/00/74/59/larcv_wholeview_3cc19ca1-d8c0-43db-a911-29d1552bf79b.root'
p109
aS'/pnfs/uboone/data/uboone/larcv_wholeview/prod_v08_00_00_01/data_extbnb_reco1_mcc9/extbnb_C2/00/00/74/41/larcv_wholeview_88ed809a-6df0-408f-b395-08a31ab0cfeb.root'
p110
aS'/pnfs/uboone/data/uboone/larcv_wholeview/prod_v08_00_00_01/data_extbnb_reco1_mcc9/extbnb_C2/00/00/74/00/larcv_wholeview_38c1a9e2-8565-41a6-8da1-90ac9154ba94.root'
p111
aS'/pnfs/uboone/data/uboone/larcv_wholeview/prod_v08_00_00_01/data_extbnb_reco1_mcc9/extbnb_C2/00/00/74/42/larcv_wholeview_64668ac8-0045-4cdc-aae1-e1bfd6716cf3.root'
p112
aS'/pnfs/uboone/data/uboone/larcv_wholeview/prod_v08_00_00_01/data_extbnb_reco1_mcc9/extbnb_C2/00/00/74/55/larcv_wholeview_6a4ef716-8bf7-4678-81e9-a6af01c4dd0f.root'
p113
aS'/pnfs/uboone/data/uboone/larcv_wholeview/prod_v08_00_00_01/data_extbnb_reco1_mcc9/extbnb_C2/00/00/74/42/larcv_wholeview_c1e4ffdd-4959-463c-885f-616148027381.root'
p114
aS'/pnfs/uboone/data/uboone/larcv_wholeview/prod_v08_00_00_01/data_extbnb_reco1_mcc9/extbnb_C2/00/00/74/44/larcv_wholeview_0c7f47c2-0167-4a25-9ee7-d8447ad3af3b.root'
p115
aS'/pnfs/uboone/data/uboone/larcv_wholeview/prod_v08_00_00_01/data_extbnb_reco1_mcc9/extbnb_C2/00/00/74/57/larcv_wholeview_99645617-125b-452e-ac24-0ad6ce783b1b.root'
p116
aS'/pnfs/uboone/data/uboone/larcv_wholeview/prod_v08_00_00_01/data_extbnb_reco1_mcc9/extbnb_C2/00/00/74/42/larcv_wholeview_849b99fd-1812-44fc-968a-57e330ba79fa.root'
p117
aS'/pnfs/uboone/data/uboone/larcv_wholeview/prod_v08_00_00_01/data_extbnb_reco1_mcc9/extbnb_C2/00/00/73/92/larcv_wholeview_85773ca0-8b8d-45ba-ae1f-524262c1568d.root'
p118
aS'/pnfs/uboone/data/uboone/larcv_wholeview/prod_v08_00_00_01/data_extbnb_reco1_mcc9/extbnb_C2/00/00/74/43/larcv_wholeview_d24f1762-c7d9-474a-b65a-4c977c3d2e60.root'
p119
aS'/pnfs/uboone/data/uboone/larcv_wholeview/prod_v08_00_00_01/data_extbnb_reco1_mcc9/extbnb_C2/00/00/74/00/larcv_wholeview_a61dc39b-a77e-4c46-b06e-5969eede761f.root'
p120
aS'/pnfs/uboone/data/uboone/larcv_wholeview/prod_v08_00_00_01/data_extbnb_reco1_mcc9/extbnb_C2/00/00/74/41/larcv_wholeview_bef4d973-7676-4a1d-b294-acdaf1cebbec.root'
p121
aS'/pnfs/uboone/data/uboone/larcv_wholeview/prod_v08_00_00_01/data_extbnb_reco1_mcc9/extbnb_C2/00/00/74/59/larcv_wholeview_5c8401c0-5f0e-4210-a3d9-75a2232ad466.root'
p122
aS'/pnfs/uboone/data/uboone/larcv_wholeview/prod_v08_00_00_01/data_extbnb_reco1_mcc9/extbnb_C2/00/00/74/57/larcv_wholeview_095c7e26-5950-4d94-9386-606148210618.root'
p123
aS'/pnfs/uboone/data/uboone/larcv_wholeview/prod_v08_00_00_01/data_extbnb_reco1_mcc9/extbnb_C2/00/00/74/64/larcv_wholeview_3d412b74-84d9-470a-b7e6-dcc7325edef5.root'
p124
aS'/pnfs/uboone/data/uboone/larcv_wholeview/prod_v08_00_00_01/data_extbnb_reco1_mcc9/extbnb_C2/00/00/74/00/larcv_wholeview_7b67164f-b0aa-4a1d-9842-f670ef9dbb58.root'
p125
aS'/pnfs/uboone/data/uboone/larcv_wholeview/prod_v08_00_00_01/data_extbnb_reco1_mcc9/extbnb_C2/00/00/73/49/larcv_wholeview_4d71ec48-d755-45ac-8976-955087413f0c.root'
p126
aS'/pnfs/uboone/data/uboone/larcv_wholeview/prod_v08_00_00_01/data_extbnb_reco1_mcc9/extbnb_C2/00/00/73/49/larcv_wholeview_368f7233-9bcc-4204-8968-6be56cf757e3.root'
p127
aS'/pnfs/uboone/data/uboone/larcv_wholeview/prod_v08_00_00_01/data_extbnb_reco1_mcc9/extbnb_C2/00/00/73/94/larcv_wholeview_50c01567-0314-4b30-b6ee-09b1e102e9c5.root'
p128
aS'/pnfs/uboone/data/uboone/larcv_wholeview/prod_v08_00_00_01/data_extbnb_reco1_mcc9/extbnb_C2/00/00/74/56/larcv_wholeview_ef76cade-4799-4b2e-b27f-3cd4871dd081.root'
p129
aS'/pnfs/uboone/data/uboone/larcv_wholeview/prod_v08_00_00_01/data_extbnb_reco1_mcc9/extbnb_C2/00/00/74/57/larcv_wholeview_152d05de-12b8-4af7-b257-2996f908fe41.root'
p130
aS'/pnfs/uboone/data/uboone/larcv_wholeview/prod_v08_00_00_01/data_extbnb_reco1_mcc9/extbnb_C2/00/00/74/41/larcv_wholeview_2e176be9-6a57-4c11-88e6-4feb4a4007e5.root'
p131
aS'/pnfs/uboone/data/uboone/larcv_wholeview/prod_v08_00_00_01/data_extbnb_reco1_mcc9/extbnb_C2/00/00/74/57/larcv_wholeview_2a061817-2b6e-4ca8-a7ff-9d9b9472ea53.root'
p132
aS'/pnfs/uboone/data/uboone/larcv_wholeview/prod_v08_00_00_01/data_extbnb_reco1_mcc9/extbnb_C2/00/00/74/61/larcv_wholeview_698f1a77-7ed6-4d07-801a-e69c2e0b22f8.root'
p133
aS'/pnfs/uboone/data/uboone/larcv_wholeview/prod_v08_00_00_01/data_extbnb_reco1_mcc9/extbnb_C2/00/00/74/55/larcv_wholeview_960f45ef-2551-4fe9-aef7-762cae1cc246.root'
p134
aS'/pnfs/uboone/data/uboone/larcv_wholeview/prod_v08_00_00_01/data_extbnb_reco1_mcc9/extbnb_C2/00/00/73/93/larcv_wholeview_6b2a562b-2212-45d3-8e68-559d96d5fe42.root'
p135
aS'/pnfs/uboone/data/uboone/larcv_wholeview/prod_v08_00_00_01/data_extbnb_reco1_mcc9/extbnb_C2/00/00/74/57/larcv_wholeview_ac4ec5c9-1816-44b0-804e-1ed4f21d4cbf.root'
p136
aS'/pnfs/uboone/data/uboone/larcv_wholeview/prod_v08_00_00_01/data_extbnb_reco1_mcc9/extbnb_C2/00/00/74/00/larcv_wholeview_a8d9aff3-2526-4378-b4d6-cf8c65bc8941.root'
p137
aS'/pnfs/uboone/data/uboone/larcv_wholeview/prod_v08_00_00_01/data_extbnb_reco1_mcc9/extbnb_C2/00/00/74/57/larcv_wholeview_9aadb2a1-4123-40d4-a993-458e6233fa37.root'
p138
aS'/pnfs/uboone/data/uboone/larcv_wholeview/prod_v08_00_00_01/data_extbnb_reco1_mcc9/extbnb_C2/00/00/73/98/larcv_wholeview_1b4ec889-ad9b-4a39-a5de-24927105d15b.root'
p139
aS'/pnfs/uboone/data/uboone/larcv_wholeview/prod_v08_00_00_01/data_extbnb_reco1_mcc9/extbnb_C2/00/00/73/94/larcv_wholeview_0bd72613-0187-4482-821c-44f04e48a0bc.root'
p140
aS'/pnfs/uboone/data/uboone/larcv_wholeview/prod_v08_00_00_01/data_extbnb_reco1_mcc9/extbnb_C2/00/00/74/57/larcv_wholeview_ff00f041-66ae-4c54-98c1-1b003a05204a.root'
p141
aS'/pnfs/uboone/data/uboone/larcv_wholeview/prod_v08_00_00_01/data_extbnb_reco1_mcc9/extbnb_C2/00/00/73/93/larcv_wholeview_a073d1f6-be8f-4a73-8984-cac9290cb40f.root'
p142
aS'/pnfs/uboone/data/uboone/larcv_wholeview/prod_v08_00_00_01/data_extbnb_reco1_mcc9/extbnb_C2/00/00/74/55/larcv_wholeview_080dc9fe-0666-4aff-8cf6-09698750ba37.root'
p143
aS'/pnfs/uboone/data/uboone/larcv_wholeview/prod_v08_00_00_01/data_extbnb_reco1_mcc9/extbnb_C2/00/00/73/91/larcv_wholeview_ac15a8a9-4f41-4874-9d36-83e7479da256.root'
p144
aS'/pnfs/uboone/data/uboone/larcv_wholeview/prod_v08_00_00_01/data_extbnb_reco1_mcc9/extbnb_C2/00/00/74/64/larcv_wholeview_7f59d99c-696b-4e1c-b518-4fe816b63806.root'
p145
aS'/pnfs/uboone/data/uboone/larcv_wholeview/prod_v08_00_00_01/data_extbnb_reco1_mcc9/extbnb_C2/00/00/73/92/larcv_wholeview_928202e8-24d3-44fb-9784-5de9cce7c57a.root'
p146
aS'/pnfs/uboone/data/uboone/larcv_wholeview/prod_v08_00_00_01/data_extbnb_reco1_mcc9/extbnb_C2/00/00/74/57/larcv_wholeview_ad5ee4e5-03d1-46a6-ae3f-1c7585db2628.root'
p147
aS'/pnfs/uboone/data/uboone/larcv_wholeview/prod_v08_00_00_01/data_extbnb_reco1_mcc9/extbnb_C2/00/00/74/57/larcv_wholeview_6759f5af-176c-4000-8f86-6745c64d2a33.root'
p148
aS'/pnfs/uboone/data/uboone/larcv_wholeview/prod_v08_00_00_01/data_extbnb_reco1_mcc9/extbnb_C2/00/00/74/57/larcv_wholeview_3a83a687-670c-4fc9-b84f-72fa14de3621.root'
p149
aS'/pnfs/uboone/data/uboone/larcv_wholeview/prod_v08_00_00_01/data_extbnb_reco1_mcc9/extbnb_C2/00/00/73/92/larcv_wholeview_e5f8172e-e5c9-4c6f-8fcd-70a856a99c67.root'
p150
aS'/pnfs/uboone/data/uboone/larcv_wholeview/prod_v08_00_00_01/data_extbnb_reco1_mcc9/extbnb_C2/00/00/73/93/larcv_wholeview_43c4f6bf-0633-4798-95d8-d42e4d9c3ffe.root'
p151
aS'/pnfs/uboone/data/uboone/larcv_wholeview/prod_v08_00_00_01/data_extbnb_reco1_mcc9/extbnb_C2/00/00/73/98/larcv_wholeview_2b01ed97-3689-4521-b367-ca9f67ac7427.root'
p152
aS'/pnfs/uboone/data/uboone/larcv_wholeview/prod_v08_00_00_01/data_extbnb_reco1_mcc9/extbnb_C2/00/00/74/42/larcv_wholeview_44c7603e-3e8d-450c-9b55-b2067bb30083.root'
p153
aS'/pnfs/uboone/data/uboone/larcv_wholeview/prod_v08_00_00_01/data_extbnb_reco1_mcc9/extbnb_C2/00/00/74/36/larcv_wholeview_5e738228-7ab0-4af0-b08f-d3a0d0a1960e.root'
p154
aS'/pnfs/uboone/data/uboone/larcv_wholeview/prod_v08_00_00_01/data_extbnb_reco1_mcc9/extbnb_C2/00/00/74/57/larcv_wholeview_0185e4f5-2dec-43c2-9ade-837555600223.root'
p155
aS'/pnfs/uboone/data/uboone/larcv_wholeview/prod_v08_00_00_01/data_extbnb_reco1_mcc9/extbnb_C2/00/00/73/49/larcv_wholeview_6a0116e3-61db-4b31-8f0d-75eb6bc8465f.root'
p156
aS'/pnfs/uboone/data/uboone/larcv_wholeview/prod_v08_00_00_01/data_extbnb_reco1_mcc9/extbnb_C2/00/00/74/03/larcv_wholeview_a44bbf48-a959-4e1c-8102-4720b5f3ca13.root'
p157
aS'/pnfs/uboone/data/uboone/larcv_wholeview/prod_v08_00_00_01/data_extbnb_reco1_mcc9/extbnb_C2/00/00/74/61/larcv_wholeview_fb2a295b-03f7-4641-88f8-229f58ae6b63.root'
p158
aS'/pnfs/uboone/data/uboone/larcv_wholeview/prod_v08_00_00_01/data_extbnb_reco1_mcc9/extbnb_C2/00/00/74/57/larcv_wholeview_69997b9e-acda-4a33-b353-8dd59778ec75.root'
p159
aS'/pnfs/uboone/data/uboone/larcv_wholeview/prod_v08_00_00_01/data_extbnb_reco1_mcc9/extbnb_C2/00/00/74/63/larcv_wholeview_2981a797-af13-44da-8fd1-41009b0761f3.root'
p160
aS'/pnfs/uboone/data/uboone/larcv_wholeview/prod_v08_00_00_01/data_extbnb_reco1_mcc9/extbnb_C2/00/00/74/58/larcv_wholeview_78bf55f8-115e-48d3-baa9-783e527ef270.root'
p161
aS'/pnfs/uboone/data/uboone/larcv_wholeview/prod_v08_00_00_01/data_extbnb_reco1_mcc9/extbnb_C2/00/00/73/93/larcv_wholeview_39a04c33-746f-4017-865b-4db873b6ae16.root'
p162
aS'/pnfs/uboone/data/uboone/larcv_wholeview/prod_v08_00_00_01/data_extbnb_reco1_mcc9/extbnb_C2/00/00/74/61/larcv_wholeview_c95467f7-40c4-43c8-b8a0-407b50eedf2b.root'
p163
aS'/pnfs/uboone/data/uboone/larcv_wholeview/prod_v08_00_00_01/data_extbnb_reco1_mcc9/extbnb_C2/00/00/74/42/larcv_wholeview_6bbbbfd6-da3a-4aec-b05b-d6fb239bf749.root'
p164
aS'/pnfs/uboone/data/uboone/larcv_wholeview/prod_v08_00_00_01/data_extbnb_reco1_mcc9/extbnb_C2/00/00/74/44/larcv_wholeview_448f88e5-c00b-4bc4-9482-ab240566452a.root'
p165
aS'/pnfs/uboone/data/uboone/larcv_wholeview/prod_v08_00_00_01/data_extbnb_reco1_mcc9/extbnb_C2/00/00/74/57/larcv_wholeview_5cf4bb9b-75a1-4aad-979d-ec873fcc83a0.root'
p166
aS'/pnfs/uboone/data/uboone/larcv_wholeview/prod_v08_00_00_01/data_extbnb_reco1_mcc9/extbnb_C2/00/00/74/36/larcv_wholeview_55e79380-c03f-4437-bd6d-01a147738ed3.root'
p167
aS'/pnfs/uboone/data/uboone/larcv_wholeview/prod_v08_00_00_01/data_extbnb_reco1_mcc9/extbnb_C2/00/00/74/03/larcv_wholeview_235072bd-5486-4061-85d9-3c84c0124fa0.root'
p168
aS'/pnfs/uboone/data/uboone/larcv_wholeview/prod_v08_00_00_01/data_extbnb_reco1_mcc9/extbnb_C2/00/00/73/93/larcv_wholeview_eed45d30-4c1c-478e-9889-7be1444e6975.root'
p169
aS'/pnfs/uboone/data/uboone/larcv_wholeview/prod_v08_00_00_01/data_extbnb_reco1_mcc9/extbnb_C2/00/00/73/93/larcv_wholeview_14aa1b93-5ef4-47a3-9b62-2826212f4041.root'
p170
aS'/pnfs/uboone/data/uboone/larcv_wholeview/prod_v08_00_00_01/data_extbnb_reco1_mcc9/extbnb_C2/00/00/74/03/larcv_wholeview_2dd4fc4b-c6f6-41c4-9ca2-a7392ca48f7e.root'
p171
aS'/pnfs/uboone/data/uboone/larcv_wholeview/prod_v08_00_00_01/data_extbnb_reco1_mcc9/extbnb_C2/00/00/74/57/larcv_wholeview_99e5a5cb-d95e-4488-83ce-eff6549aaf5e.root'
p172
aS'/pnfs/uboone/data/uboone/larcv_wholeview/prod_v08_00_00_01/data_extbnb_reco1_mcc9/extbnb_C2/00/00/73/93/larcv_wholeview_a9fae5ed-e2cc-4fcb-abb4-bc8ba1de63c4.root'
p173
aS'/pnfs/uboone/data/uboone/larcv_wholeview/prod_v08_00_00_01/data_extbnb_reco1_mcc9/extbnb_C2/00/00/74/57/larcv_wholeview_757802cd-c333-4270-84d0-99411a3332c9.root'
p174
aS'/pnfs/uboone/data/uboone/larcv_wholeview/prod_v08_00_00_01/data_extbnb_reco1_mcc9/extbnb_C2/00/00/73/91/larcv_wholeview_492f8cd9-2953-4ab8-8e6b-2f7ad7037ec0.root'
p175
aS'/pnfs/uboone/data/uboone/larcv_wholeview/prod_v08_00_00_01/data_extbnb_reco1_mcc9/extbnb_C2/00/00/74/57/larcv_wholeview_9c6ab2a2-cfc9-4bd3-bfe3-d954eb680a02.root'
p176
aS'/pnfs/uboone/data/uboone/larcv_wholeview/prod_v08_00_00_01/data_extbnb_reco1_mcc9/extbnb_C2/00/00/74/42/larcv_wholeview_2dc0fe28-e581-474c-9d6b-92735bf33562.root'
p177
aS'/pnfs/uboone/data/uboone/larcv_wholeview/prod_v08_00_00_01/data_extbnb_reco1_mcc9/extbnb_C2/00/00/74/00/larcv_wholeview_51e935c2-b2b9-4fa2-86bd-a54be6a930e4.root'
p178
aS'/pnfs/uboone/data/uboone/larcv_wholeview/prod_v08_00_00_01/data_extbnb_reco1_mcc9/extbnb_C2/00/00/73/49/larcv_wholeview_b9f4c262-3bb9-4e53-83af-514c2337579c.root'
p179
aS'/pnfs/uboone/data/uboone/larcv_wholeview/prod_v08_00_00_01/data_extbnb_reco1_mcc9/extbnb_C2/00/00/74/44/larcv_wholeview_6fd0d62a-c467-47ec-8291-5aa9aee4d22a.root'
p180
aS'/pnfs/uboone/data/uboone/larcv_wholeview/prod_v08_00_00_01/data_extbnb_reco1_mcc9/extbnb_C2/00/00/74/36/larcv_wholeview_4f684a1b-471d-40b2-9efd-33722f28176a.root'
p181
aS'/pnfs/uboone/data/uboone/larcv_wholeview/prod_v08_00_00_01/data_extbnb_reco1_mcc9/extbnb_C2/00/00/73/91/larcv_wholeview_0b21e543-0fe7-4712-afad-dfa332cee685.root'
p182
aS'/pnfs/uboone/data/uboone/larcv_wholeview/prod_v08_00_00_01/data_extbnb_reco1_mcc9/extbnb_C2/00/00/73/93/larcv_wholeview_d7941d6d-d840-4e96-9066-c279649672e7.root'
p183
aS'/pnfs/uboone/data/uboone/larcv_wholeview/prod_v08_00_00_01/data_extbnb_reco1_mcc9/extbnb_C2/00/00/74/58/larcv_wholeview_746223bb-5444-46dc-b7cb-5f964039e541.root'
p184
aS'/pnfs/uboone/data/uboone/larcv_wholeview/prod_v08_00_00_01/data_extbnb_reco1_mcc9/extbnb_C2/00/00/74/42/larcv_wholeview_c4036397-568b-41da-94f8-26f0011ac293.root'
p185
aS'/pnfs/uboone/data/uboone/larcv_wholeview/prod_v08_00_00_01/data_extbnb_reco1_mcc9/extbnb_C2/00/00/74/65/larcv_wholeview_085a7bd7-93f4-4abc-bf18-87aead890031.root'
p186
aS'/pnfs/uboone/data/uboone/larcv_wholeview/prod_v08_00_00_01/data_extbnb_reco1_mcc9/extbnb_C2/00/00/74/42/larcv_wholeview_9181ee19-5d0a-41de-89f6-243a6d42a1fc.root'
p187
aS'/pnfs/uboone/data/uboone/larcv_wholeview/prod_v08_00_00_01/data_extbnb_reco1_mcc9/extbnb_C2/00/00/74/57/larcv_wholeview_b069c7ae-3d5b-49b1-a356-36e5132594cc.root'
p188
aS'/pnfs/uboone/data/uboone/larcv_wholeview/prod_v08_00_00_01/data_extbnb_reco1_mcc9/extbnb_C2/00/00/74/03/larcv_wholeview_e8283cae-d8a2-4869-ae9c-810e8676f103.root'
p189
aS'/pnfs/uboone/data/uboone/larcv_wholeview/prod_v08_00_00_01/data_extbnb_reco1_mcc9/extbnb_C2/00/00/74/55/larcv_wholeview_2b29e453-e403-4c3d-b898-42ae15c622ef.root'
p190
aS'/pnfs/uboone/data/uboone/larcv_wholeview/prod_v08_00_00_01/data_extbnb_reco1_mcc9/extbnb_C2/00/00/74/00/larcv_wholeview_4946468d-d8dc-4cb3-8be1-f192b7c60f36.root'
p191
aS'/pnfs/uboone/data/uboone/larcv_wholeview/prod_v08_00_00_01/data_extbnb_reco1_mcc9/extbnb_C2/00/00/74/37/larcv_wholeview_2b43d48c-d99f-46a3-8fe2-28a463244574.root'
p192
aS'/pnfs/uboone/data/uboone/larcv_wholeview/prod_v08_00_00_01/data_extbnb_reco1_mcc9/extbnb_C2/00/00/74/55/larcv_wholeview_9437e7c3-dcb9-485b-b5d1-ebe909a6b621.root'
p193
aS'/pnfs/uboone/data/uboone/larcv_wholeview/prod_v08_00_00_01/data_extbnb_reco1_mcc9/extbnb_C2/00/00/73/98/larcv_wholeview_f6b724c2-00af-4203-93da-a2a923bcd890.root'
p194
aS'/pnfs/uboone/data/uboone/larcv_wholeview/prod_v08_00_00_01/data_extbnb_reco1_mcc9/extbnb_C2/00/00/74/58/larcv_wholeview_aab24ae1-c5ff-45d7-abc3-cf1c50ae571a.root'
p195
aS'/pnfs/uboone/data/uboone/larcv_wholeview/prod_v08_00_00_01/data_extbnb_reco1_mcc9/extbnb_C2/00/00/73/93/larcv_wholeview_ef3a6b9b-f386-492e-979d-8a32b454a3ab.root'
p196
aS'/pnfs/uboone/data/uboone/larcv_wholeview/prod_v08_00_00_01/data_extbnb_reco1_mcc9/extbnb_C2/00/00/74/57/larcv_wholeview_f511b536-e3f9-4d10-b9cf-773412e6fcac.root'
p197
aS'/pnfs/uboone/data/uboone/larcv_wholeview/prod_v08_00_00_01/data_extbnb_reco1_mcc9/extbnb_C2/00/00/73/94/larcv_wholeview_e9da5f28-4f0f-41f2-a532-9912b5a91a12.root'
p198
aS'/pnfs/uboone/data/uboone/larcv_wholeview/prod_v08_00_00_01/data_extbnb_reco1_mcc9/extbnb_C2/00/00/74/55/larcv_wholeview_11e577d3-a6c3-4fe9-a96f-9a30aaabb7eb.root'
p199
aS'/pnfs/uboone/data/uboone/larcv_wholeview/prod_v08_00_00_01/data_extbnb_reco1_mcc9/extbnb_C2/00/00/74/03/larcv_wholeview_08936c44-2f86-4b84-ac2c-e40899cb66c9.root'
p200
aS'/pnfs/uboone/data/uboone/larcv_wholeview/prod_v08_00_00_01/data_extbnb_reco1_mcc9/extbnb_C2/00/00/74/61/larcv_wholeview_30f771f3-ad82-4553-8004-f25547270f0c.root'
p201
aS'/pnfs/uboone/data/uboone/larcv_wholeview/prod_v08_00_00_01/data_extbnb_reco1_mcc9/extbnb_C2/00/00/74/32/larcv_wholeview_8f567c2a-9569-427a-84d9-e6554e0fec62.root'
p202
aS'/pnfs/uboone/data/uboone/larcv_wholeview/prod_v08_00_00_01/data_extbnb_reco1_mcc9/extbnb_C2/00/00/74/40/larcv_wholeview_921fede1-8464-4b57-87dd-8d33b698c166.root'
p203
aS'/pnfs/uboone/data/uboone/larcv_wholeview/prod_v08_00_00_01/data_extbnb_reco1_mcc9/extbnb_C2/00/00/73/91/larcv_wholeview_73f6af68-d8c8-4a96-adf9-6275580a7f52.root'
p204
aS'/pnfs/uboone/data/uboone/larcv_wholeview/prod_v08_00_00_01/data_extbnb_reco1_mcc9/extbnb_C2/00/00/74/57/larcv_wholeview_299827df-829b-4dfe-bf94-2944a3ce5ae1.root'
p205
aS'/pnfs/uboone/data/uboone/larcv_wholeview/prod_v08_00_00_01/data_extbnb_reco1_mcc9/extbnb_C2/00/00/73/07/larcv_wholeview_9548119e-0bb6-4c6c-ab07-438b9fd6003e.root'
p206
aS'/pnfs/uboone/data/uboone/larcv_wholeview/prod_v08_00_00_01/data_extbnb_reco1_mcc9/extbnb_C2/00/00/73/91/larcv_wholeview_dddff6d0-f6d5-4376-b9db-592371e5abfc.root'
p207
aS'/pnfs/uboone/data/uboone/larcv_wholeview/prod_v08_00_00_01/data_extbnb_reco1_mcc9/extbnb_C2/00/00/74/43/larcv_wholeview_5ab4c939-e6c5-4102-99d3-9b2c8ee8f321.root'
p208
aS'/pnfs/uboone/data/uboone/larcv_wholeview/prod_v08_00_00_01/data_extbnb_reco1_mcc9/extbnb_C2/00/00/74/42/larcv_wholeview_531c6557-a66a-4eaf-9440-3ab55711d1a4.root'
p209
aS'/pnfs/uboone/data/uboone/larcv_wholeview/prod_v08_00_00_01/data_extbnb_reco1_mcc9/extbnb_C2/00/00/74/57/larcv_wholeview_40594cbe-5c92-4034-b00d-560139fb8db8.root'
p210
aS'/pnfs/uboone/data/uboone/larcv_wholeview/prod_v08_00_00_01/data_extbnb_reco1_mcc9/extbnb_C2/00/00/74/57/larcv_wholeview_cf28947a-4469-4245-a02f-de91ab353ea7.root'
p211
aS'/pnfs/uboone/data/uboone/larcv_wholeview/prod_v08_00_00_01/data_extbnb_reco1_mcc9/extbnb_C2/00/00/74/61/larcv_wholeview_0cefe079-2203-4223-b998-41e103c68309.root'
p212
aS'/pnfs/uboone/data/uboone/larcv_wholeview/prod_v08_00_00_01/data_extbnb_reco1_mcc9/extbnb_C2/00/00/74/42/larcv_wholeview_ebe1fb64-e126-47a4-a566-776d85ae95cb.root'
p213
aS'/pnfs/uboone/data/uboone/larcv_wholeview/prod_v08_00_00_01/data_extbnb_reco1_mcc9/extbnb_C2/00/00/74/57/larcv_wholeview_f6b232e9-521c-4e86-9d06-33ddf8348b59.root'
p214
aS'/pnfs/uboone/data/uboone/larcv_wholeview/prod_v08_00_00_01/data_extbnb_reco1_mcc9/extbnb_C2/00/00/74/43/larcv_wholeview_32943c8c-c635-4c23-8d39-e3b64228f68e.root'
p215
aS'/pnfs/uboone/data/uboone/larcv_wholeview/prod_v08_00_00_01/data_extbnb_reco1_mcc9/extbnb_C2/00/00/74/36/larcv_wholeview_0491c47d-9b0a-4440-bdd6-4f1ad8efce76.root'
p216
aS'/pnfs/uboone/data/uboone/larcv_wholeview/prod_v08_00_00_01/data_extbnb_reco1_mcc9/extbnb_C2/00/00/74/00/larcv_wholeview_0bc98e43-ed33-45be-b5c2-1c1e8572e73a.root'
p217
aS'/pnfs/uboone/data/uboone/larcv_wholeview/prod_v08_00_00_01/data_extbnb_reco1_mcc9/extbnb_C2/00/00/73/93/larcv_wholeview_dec76f10-4a9f-4363-85f1-be15e4371fbb.root'
p218
aS'/pnfs/uboone/data/uboone/larcv_wholeview/prod_v08_00_00_01/data_extbnb_reco1_mcc9/extbnb_C2/00/00/74/58/larcv_wholeview_152657c3-f5d3-4cbb-b216-11884819d4aa.root'
p219
aS'/pnfs/uboone/data/uboone/larcv_wholeview/prod_v08_00_00_01/data_extbnb_reco1_mcc9/extbnb_C2/00/00/74/57/larcv_wholeview_e2e4baa2-a1d2-403c-b1d0-abf2afb7c732.root'
p220
aS'/pnfs/uboone/data/uboone/larcv_wholeview/prod_v08_00_00_01/data_extbnb_reco1_mcc9/extbnb_C2/00/00/74/57/larcv_wholeview_bdf78bd4-ca45-446e-bdf6-ef8c1915c04a.root'
p221
aS'/pnfs/uboone/data/uboone/larcv_wholeview/prod_v08_00_00_01/data_extbnb_reco1_mcc9/extbnb_C2/00/00/74/00/larcv_wholeview_fb0397fa-4cd7-445c-9a12-edd52daaeb48.root'
p222
aS'/pnfs/uboone/data/uboone/larcv_wholeview/prod_v08_00_00_01/data_extbnb_reco1_mcc9/extbnb_C2/00/00/73/93/larcv_wholeview_87413213-5598-416b-b843-09b9834ec308.root'
p223
aS'/pnfs/uboone/data/uboone/larcv_wholeview/prod_v08_00_00_01/data_extbnb_reco1_mcc9/extbnb_C2/00/00/73/91/larcv_wholeview_54429954-d32a-4a97-b5c9-3a51fc4c7167.root'
p224
aS'/pnfs/uboone/data/uboone/larcv_wholeview/prod_v08_00_00_01/data_extbnb_reco1_mcc9/extbnb_C2/00/00/74/57/larcv_wholeview_a5f0bdf1-54e7-4d54-a74d-9a3ce787dff5.root'
p225
aS'/pnfs/uboone/data/uboone/larcv_wholeview/prod_v08_00_00_01/data_extbnb_reco1_mcc9/extbnb_C2/00/00/74/55/larcv_wholeview_82e0d8ae-31d4-409c-a521-e1cf8a1ffebc.root'
p226
aS'/pnfs/uboone/data/uboone/larcv_wholeview/prod_v08_00_00_01/data_extbnb_reco1_mcc9/extbnb_C2/00/00/74/57/larcv_wholeview_6a89d80e-33bd-40c4-9ee2-a21d82e846ac.root'
p227
aS'/pnfs/uboone/data/uboone/larcv_wholeview/prod_v08_00_00_01/data_extbnb_reco1_mcc9/extbnb_C2/00/00/74/58/larcv_wholeview_4abee4c6-bd54-414e-860c-7896cdf6feb0.root'
p228
aS'/pnfs/uboone/data/uboone/larcv_wholeview/prod_v08_00_00_01/data_extbnb_reco1_mcc9/extbnb_C2/00/00/74/39/larcv_wholeview_d6590bf9-b252-4316-b607-ed394a4378fa.root'
p229
aS'/pnfs/uboone/data/uboone/larcv_wholeview/prod_v08_00_00_01/data_extbnb_reco1_mcc9/extbnb_C2/00/00/73/91/larcv_wholeview_b13f6ec1-448c-4499-8314-85429ab63693.root'
p230
aS'/pnfs/uboone/data/uboone/larcv_wholeview/prod_v08_00_00_01/data_extbnb_reco1_mcc9/extbnb_C2/00/00/73/91/larcv_wholeview_dab0d1da-bcd1-4a46-8902-b7d59f73c612.root'
p231
aS'/pnfs/uboone/data/uboone/larcv_wholeview/prod_v08_00_00_01/data_extbnb_reco1_mcc9/extbnb_C2/00/00/74/58/larcv_wholeview_653f9eee-ab93-475f-ad5c-0751c9d807e2.root'
p232
aS'/pnfs/uboone/data/uboone/larcv_wholeview/prod_v08_00_00_01/data_extbnb_reco1_mcc9/extbnb_C2/00/00/73/98/larcv_wholeview_f493a685-ba5e-4e6b-8526-ec8e40c2b453.root'
p233
aS'/pnfs/uboone/data/uboone/larcv_wholeview/prod_v08_00_00_01/data_extbnb_reco1_mcc9/extbnb_C2/00/00/74/44/larcv_wholeview_24d954fc-b94c-46d6-9026-0c3490c1cf92.root'
p234
aS'/pnfs/uboone/data/uboone/larcv_wholeview/prod_v08_00_00_01/data_extbnb_reco1_mcc9/extbnb_C2/00/00/74/57/larcv_wholeview_c0cf2f4b-339e-4442-ba41-70ea6d27733a.root'
p235
aS'/pnfs/uboone/data/uboone/larcv_wholeview/prod_v08_00_00_01/data_extbnb_reco1_mcc9/extbnb_C2/00/00/74/41/larcv_wholeview_b337eee7-9df8-4edf-8fe8-f4d696be388c.root'
p236
aS'/pnfs/uboone/data/uboone/larcv_wholeview/prod_v08_00_00_01/data_extbnb_reco1_mcc9/extbnb_C2/00/00/74/42/larcv_wholeview_b6c3e7c7-681b-48e0-b238-7df85881b22d.root'
p237
aS'/pnfs/uboone/data/uboone/larcv_wholeview/prod_v08_00_00_01/data_extbnb_reco1_mcc9/extbnb_C2/00/00/74/55/larcv_wholeview_70e3c316-9b9d-49b2-8f0b-7806c426f08e.root'
p238
aS'/pnfs/uboone/data/uboone/larcv_wholeview/prod_v08_00_00_01/data_extbnb_reco1_mcc9/extbnb_C2/00/00/74/57/larcv_wholeview_ded7cc48-2dc8-49e6-a1cf-b42628c8d696.root'
p239
aS'/pnfs/uboone/data/uboone/larcv_wholeview/prod_v08_00_00_01/data_extbnb_reco1_mcc9/extbnb_C2/00/00/74/40/larcv_wholeview_44e78b49-d1d1-479f-9926-4e254acdb54e.root'
p240
aS'/pnfs/uboone/data/uboone/larcv_wholeview/prod_v08_00_00_01/data_extbnb_reco1_mcc9/extbnb_C2/00/00/74/61/larcv_wholeview_ea3021c7-c620-4c1b-a8dd-004e1012d0c5.root'
p241
aS'/pnfs/uboone/data/uboone/larcv_wholeview/prod_v08_00_00_01/data_extbnb_reco1_mcc9/extbnb_C2/00/00/74/01/larcv_wholeview_1f90de5d-1231-42e8-95d8-2f97a48a3aa8.root'
p242
aS'/pnfs/uboone/data/uboone/larcv_wholeview/prod_v08_00_00_01/data_extbnb_reco1_mcc9/extbnb_C2/00/00/74/00/larcv_wholeview_ceac17c3-b501-4546-9b90-0f820b71a183.root'
p243
aS'/pnfs/uboone/data/uboone/larcv_wholeview/prod_v08_00_00_01/data_extbnb_reco1_mcc9/extbnb_C2/00/00/74/57/larcv_wholeview_1cdcd15e-6960-48a7-a500-cfd37feba052.root'
p244
aS'/pnfs/uboone/data/uboone/larcv_wholeview/prod_v08_00_00_01/data_extbnb_reco1_mcc9/extbnb_C2/00/00/74/57/larcv_wholeview_53ed59a7-a520-4cbf-a816-84f3b02e6baf.root'
p245
aS'/pnfs/uboone/data/uboone/larcv_wholeview/prod_v08_00_00_01/data_extbnb_reco1_mcc9/extbnb_C2/00/00/74/59/larcv_wholeview_fce73ec8-8be2-4a0c-ad3a-c88be4ede113.root'
p246
aS'/pnfs/uboone/data/uboone/larcv_wholeview/prod_v08_00_00_01/data_extbnb_reco1_mcc9/extbnb_C2/00/00/74/42/larcv_wholeview_0ae8af6a-e3ac-4717-9b1c-430edb18e9f6.root'
p247
aS'/pnfs/uboone/data/uboone/larcv_wholeview/prod_v08_00_00_01/data_extbnb_reco1_mcc9/extbnb_C2/00/00/74/42/larcv_wholeview_83580249-2b8f-4810-9ce5-bb615bf56712.root'
p248
aS'/pnfs/uboone/data/uboone/larcv_wholeview/prod_v08_00_00_01/data_extbnb_reco1_mcc9/extbnb_C2/00/00/73/93/larcv_wholeview_c1f065b2-0c8c-49b9-acdd-8e58ec0f8a03.root'
p249
aS'/pnfs/uboone/data/uboone/larcv_wholeview/prod_v08_00_00_01/data_extbnb_reco1_mcc9/extbnb_C2/00/00/73/93/larcv_wholeview_01d46ddf-c553-4bf3-8d62-dfccbe87fd9d.root'
p250
aS'/pnfs/uboone/data/uboone/larcv_wholeview/prod_v08_00_00_01/data_extbnb_reco1_mcc9/extbnb_C2/00/00/74/00/larcv_wholeview_8b6d576f-d730-44ed-9945-affd5d0e23f5.root'
p251
aS'/pnfs/uboone/data/uboone/larcv_wholeview/prod_v08_00_00_01/data_extbnb_reco1_mcc9/extbnb_C2/00/00/74/43/larcv_wholeview_889927c7-5be8-4660-a2d3-9e9c36fa0400.root'
p252
aS'/pnfs/uboone/data/uboone/larcv_wholeview/prod_v08_00_00_01/data_extbnb_reco1_mcc9/extbnb_C2/00/00/74/00/larcv_wholeview_cb64f785-4c94-4072-a17d-3806eb5fe963.root'
p253
aS'/pnfs/uboone/data/uboone/larcv_wholeview/prod_v08_00_00_01/data_extbnb_reco1_mcc9/extbnb_C2/00/00/74/56/larcv_wholeview_309cc956-f123-4db8-bfa1-fc79400627ef.root'
p254
aS'/pnfs/uboone/data/uboone/larcv_wholeview/prod_v08_00_00_01/data_extbnb_reco1_mcc9/extbnb_C2/00/00/74/57/larcv_wholeview_2b0131b6-4625-45e7-8fb1-d60ece2e2266.root'
p255
aS'/pnfs/uboone/data/uboone/larcv_wholeview/prod_v08_00_00_01/data_extbnb_reco1_mcc9/extbnb_C2/00/00/73/49/larcv_wholeview_258fe90b-7cbc-4291-b07b-d1b77306a821.root'
p256
aS'/pnfs/uboone/data/uboone/larcv_wholeview/prod_v08_00_00_01/data_extbnb_reco1_mcc9/extbnb_C2/00/00/74/55/larcv_wholeview_69bf0f22-991d-4925-8049-60fdf6cdcea6.root'
p257
aS'/pnfs/uboone/data/uboone/larcv_wholeview/prod_v08_00_00_01/data_extbnb_reco1_mcc9/extbnb_C2/00/00/74/57/larcv_wholeview_de917569-89d9-4cea-a34e-1c11a6dc3fe8.root'
p258
aS'/pnfs/uboone/data/uboone/larcv_wholeview/prod_v08_00_00_01/data_extbnb_reco1_mcc9/extbnb_C2/00/00/74/42/larcv_wholeview_d5d9f6ca-7dae-4805-982b-f4c869a8b516.root'
p259
aS'/pnfs/uboone/data/uboone/larcv_wholeview/prod_v08_00_00_01/data_extbnb_reco1_mcc9/extbnb_C2/00/00/74/57/larcv_wholeview_d9b69b8b-602d-4efe-9d4f-dd3ede22ffaf.root'
p260
aS'/pnfs/uboone/data/uboone/larcv_wholeview/prod_v08_00_00_01/data_extbnb_reco1_mcc9/extbnb_C2/00/00/73/98/larcv_wholeview_95b02ae1-c230-4c64-ac43-2454bed431c5.root'
p261
aS'/pnfs/uboone/data/uboone/larcv_wholeview/prod_v08_00_00_01/data_extbnb_reco1_mcc9/extbnb_C2/00/00/74/40/larcv_wholeview_4b56090c-386d-4581-bff9-97c49375d786.root'
p262
aS'/pnfs/uboone/data/uboone/larcv_wholeview/prod_v08_00_00_01/data_extbnb_reco1_mcc9/extbnb_C2/00/00/74/42/larcv_wholeview_3f1f1e34-f376-4237-817d-259d92e149aa.root'
p263
aS'/pnfs/uboone/data/uboone/larcv_wholeview/prod_v08_00_00_01/data_extbnb_reco1_mcc9/extbnb_C2/00/00/74/00/larcv_wholeview_eb95f64c-f3c7-466d-8615-eb615564fa0e.root'
p264
aS'/pnfs/uboone/data/uboone/larcv_wholeview/prod_v08_00_00_01/data_extbnb_reco1_mcc9/extbnb_C2/00/00/74/40/larcv_wholeview_919111cb-6490-40f8-8caa-564a82a45b31.root'
p265
aS'/pnfs/uboone/data/uboone/larcv_wholeview/prod_v08_00_00_01/data_extbnb_reco1_mcc9/extbnb_C2/00/00/74/42/larcv_wholeview_9b2a6d04-00da-4e3a-9087-423dacd1f46b.root'
p266
aS'/pnfs/uboone/data/uboone/larcv_wholeview/prod_v08_00_00_01/data_extbnb_reco1_mcc9/extbnb_C2/00/00/73/92/larcv_wholeview_7bf4dd62-ad91-4d2f-af15-793ec18179a0.root'
p267
aS'/pnfs/uboone/data/uboone/larcv_wholeview/prod_v08_00_00_01/data_extbnb_reco1_mcc9/extbnb_C2/00/00/73/91/larcv_wholeview_233fae03-d81c-4fbc-85ca-b69ef19ab0c6.root'
p268
aS'/pnfs/uboone/data/uboone/larcv_wholeview/prod_v08_00_00_01/data_extbnb_reco1_mcc9/extbnb_C2/00/00/74/56/larcv_wholeview_9da0c3e5-117a-4541-a3c5-e16dc077977e.root'
p269
aS'/pnfs/uboone/data/uboone/larcv_wholeview/prod_v08_00_00_01/data_extbnb_reco1_mcc9/extbnb_C2/00/00/74/56/larcv_wholeview_6f677269-e1a9-4a5a-9eb4-a93c284f9e9f.root'
p270
aS'/pnfs/uboone/data/uboone/larcv_wholeview/prod_v08_00_00_01/data_extbnb_reco1_mcc9/extbnb_C2/00/00/73/98/larcv_wholeview_d3d8e251-79be-43c5-8369-c6cb05143823.root'
p271
aS'/pnfs/uboone/data/uboone/larcv_wholeview/prod_v08_00_00_01/data_extbnb_reco1_mcc9/extbnb_C2/00/00/74/42/larcv_wholeview_2558c6a8-ba3b-447d-ba84-b771525d17be.root'
p272
aS'/pnfs/uboone/data/uboone/larcv_wholeview/prod_v08_00_00_01/data_extbnb_reco1_mcc9/extbnb_C2/00/00/74/61/larcv_wholeview_284d600b-8559-46e1-a295-3dd25af9c246.root'
p273
aS'/pnfs/uboone/data/uboone/larcv_wholeview/prod_v08_00_00_01/data_extbnb_reco1_mcc9/extbnb_C2/00/00/73/97/larcv_wholeview_0f01beb4-0717-4213-91bd-8f23a370c064.root'
p274
aS'/pnfs/uboone/data/uboone/larcv_wholeview/prod_v08_00_00_01/data_extbnb_reco1_mcc9/extbnb_C2/00/00/73/91/larcv_wholeview_ff8a7b9a-84d1-41d2-af0c-09f3e1430a8a.root'
p275
aS'/pnfs/uboone/data/uboone/larcv_wholeview/prod_v08_00_00_01/data_extbnb_reco1_mcc9/extbnb_C2/00/00/74/00/larcv_wholeview_3f3b309e-7cd2-4990-9a73-08d5cdb6f0c6.root'
p276
aS'/pnfs/uboone/data/uboone/larcv_wholeview/prod_v08_00_00_01/data_extbnb_reco1_mcc9/extbnb_C2/00/00/73/91/larcv_wholeview_bdb711cf-5f3b-4df4-927b-9d29f0e73540.root'
p277
aS'/pnfs/uboone/data/uboone/larcv_wholeview/prod_v08_00_00_01/data_extbnb_reco1_mcc9/extbnb_C2/00/00/74/42/larcv_wholeview_c61385b6-4feb-4d04-be58-950307545d01.root'
p278
aS'/pnfs/uboone/data/uboone/larcv_wholeview/prod_v08_00_00_01/data_extbnb_reco1_mcc9/extbnb_C2/00/00/74/57/larcv_wholeview_f0064e48-6ffa-4a5c-8f0d-52d1b9fd02fa.root'
p279
aS'/pnfs/uboone/data/uboone/larcv_wholeview/prod_v08_00_00_01/data_extbnb_reco1_mcc9/extbnb_C2/00/00/74/61/larcv_wholeview_c504c989-3adf-4db7-8b1c-19d5e8ea1b17.root'
p280
aS'/pnfs/uboone/data/uboone/larcv_wholeview/prod_v08_00_00_01/data_extbnb_reco1_mcc9/extbnb_C2/00/00/74/44/larcv_wholeview_07648f88-2fcc-4dd5-8307-c8367c759f89.root'
p281
aS'/pnfs/uboone/data/uboone/larcv_wholeview/prod_v08_00_00_01/data_extbnb_reco1_mcc9/extbnb_C2/00/00/73/93/larcv_wholeview_0a269dda-762f-4296-810a-887ab21840f0.root'
p282
aS'/pnfs/uboone/data/uboone/larcv_wholeview/prod_v08_00_00_01/data_extbnb_reco1_mcc9/extbnb_C2/00/00/74/03/larcv_wholeview_2df20239-5357-4f57-9df8-8fbfaaa29bba.root'
p283
aS'/pnfs/uboone/data/uboone/larcv_wholeview/prod_v08_00_00_01/data_extbnb_reco1_mcc9/extbnb_C2/00/00/73/97/larcv_wholeview_e9dbdfb4-df12-4935-8db1-3ed80c7e2e54.root'
p284
aS'/pnfs/uboone/data/uboone/larcv_wholeview/prod_v08_00_00_01/data_extbnb_reco1_mcc9/extbnb_C2/00/00/73/92/larcv_wholeview_6a534281-611a-4128-be69-439ab15a2805.root'
p285
aS'/pnfs/uboone/data/uboone/larcv_wholeview/prod_v08_00_00_01/data_extbnb_reco1_mcc9/extbnb_C2/00/00/74/42/larcv_wholeview_0b7abad0-3f58-4da6-98b3-5ea54b0f6794.root'
p286
aS'/pnfs/uboone/data/uboone/larcv_wholeview/prod_v08_00_00_01/data_extbnb_reco1_mcc9/extbnb_C2/00/00/74/57/larcv_wholeview_2fd80a75-cda3-4a55-8637-8b60fd221e4c.root'
p287
aS'/pnfs/uboone/data/uboone/larcv_wholeview/prod_v08_00_00_01/data_extbnb_reco1_mcc9/extbnb_C2/00/00/74/44/larcv_wholeview_74b5b540-b19c-47ce-af63-43cc440da3da.root'
p288
aS'/pnfs/uboone/data/uboone/larcv_wholeview/prod_v08_00_00_01/data_extbnb_reco1_mcc9/extbnb_C2/00/00/74/00/larcv_wholeview_df399ca5-94df-4148-b96d-0b316b3e1a99.root'
p289
aS'/pnfs/uboone/data/uboone/larcv_wholeview/prod_v08_00_00_01/data_extbnb_reco1_mcc9/extbnb_C2/00/00/74/34/larcv_wholeview_b1a960c4-5c72-48bd-a16c-7b857a7dfeb9.root'
p290
aS'/pnfs/uboone/data/uboone/larcv_wholeview/prod_v08_00_00_01/data_extbnb_reco1_mcc9/extbnb_C2/00/00/74/57/larcv_wholeview_33eb91c3-47a2-4796-bd7d-95eacad3e181.root'
p291
aS'/pnfs/uboone/data/uboone/larcv_wholeview/prod_v08_00_00_01/data_extbnb_reco1_mcc9/extbnb_C2/00/00/74/36/larcv_wholeview_82acd5ce-d0be-493a-8600-2783eb258510.root'
p292
aS'/pnfs/uboone/data/uboone/larcv_wholeview/prod_v08_00_00_01/data_extbnb_reco1_mcc9/extbnb_C2/00/00/74/36/larcv_wholeview_291b4200-99d8-44f1-8929-1a206463e236.root'
p293
aS'/pnfs/uboone/data/uboone/larcv_wholeview/prod_v08_00_00_01/data_extbnb_reco1_mcc9/extbnb_C2/00/00/74/00/larcv_wholeview_a378131a-78af-42df-9320-aa0070ea089e.root'
p294
aS'/pnfs/uboone/data/uboone/larcv_wholeview/prod_v08_00_00_01/data_extbnb_reco1_mcc9/extbnb_C2/00/00/74/41/larcv_wholeview_50c4beed-11ce-4eeb-be2f-9b15d12e8812.root'
p295
aS'/pnfs/uboone/data/uboone/larcv_wholeview/prod_v08_00_00_01/data_extbnb_reco1_mcc9/extbnb_C2/00/00/74/57/larcv_wholeview_fb7d7d3e-8a70-4ad6-a1bc-9b7976539385.root'
p296
aS'/pnfs/uboone/data/uboone/larcv_wholeview/prod_v08_00_00_01/data_extbnb_reco1_mcc9/extbnb_C2/00/00/74/42/larcv_wholeview_3caead15-1a10-490d-9655-66186485d450.root'
p297
aS'/pnfs/uboone/data/uboone/larcv_wholeview/prod_v08_00_00_01/data_extbnb_reco1_mcc9/extbnb_C2/00/00/74/00/larcv_wholeview_8bab0af0-30a4-430a-840c-01dab6afd886.root'
p298
aS'/pnfs/uboone/data/uboone/larcv_wholeview/prod_v08_00_00_01/data_extbnb_reco1_mcc9/extbnb_C2/00/00/74/42/larcv_wholeview_e27a85da-c13d-44d5-b449-7ec2025874a2.root'
p299
aS'/pnfs/uboone/data/uboone/larcv_wholeview/prod_v08_00_00_01/data_extbnb_reco1_mcc9/extbnb_C2/00/00/74/38/larcv_wholeview_2acb9b5b-e911-42c3-8ab3-9cedd2a923ee.root'
p300
aS'/pnfs/uboone/data/uboone/larcv_wholeview/prod_v08_00_00_01/data_extbnb_reco1_mcc9/extbnb_C2/00/00/74/42/larcv_wholeview_fd9e1f82-80d0-488e-b0d1-961dc5060955.root'
p301
aS'/pnfs/uboone/data/uboone/larcv_wholeview/prod_v08_00_00_01/data_extbnb_reco1_mcc9/extbnb_C2/00/00/74/38/larcv_wholeview_465e08e8-1ced-4335-ab4b-a1b3d0e1122f.root'
p302
aS'/pnfs/uboone/data/uboone/larcv_wholeview/prod_v08_00_00_01/data_extbnb_reco1_mcc9/extbnb_C2/00/00/73/91/larcv_wholeview_d9a70a6c-8e27-404e-bc0c-8c9e26abc1e0.root'
p303
aS'/pnfs/uboone/data/uboone/larcv_wholeview/prod_v08_00_00_01/data_extbnb_reco1_mcc9/extbnb_C2/00/00/74/42/larcv_wholeview_3528b431-7038-4e98-9ec4-5034b301fa8d.root'
p304
aS'/pnfs/uboone/data/uboone/larcv_wholeview/prod_v08_00_00_01/data_extbnb_reco1_mcc9/extbnb_C2/00/00/74/57/larcv_wholeview_84816259-910a-4b9e-8074-beaf81ce94dc.root'
p305
aS'/pnfs/uboone/data/uboone/larcv_wholeview/prod_v08_00_00_01/data_extbnb_reco1_mcc9/extbnb_C2/00/00/74/57/larcv_wholeview_a0036004-e5fa-4191-a5f5-d5b117c2bbf8.root'
p306
aS'/pnfs/uboone/data/uboone/larcv_wholeview/prod_v08_00_00_01/data_extbnb_reco1_mcc9/extbnb_C2/00/00/73/49/larcv_wholeview_a2445e21-941c-45f6-80ac-a40560a29eb4.root'
p307
aS'/pnfs/uboone/data/uboone/larcv_wholeview/prod_v08_00_00_01/data_extbnb_reco1_mcc9/extbnb_C2/00/00/73/93/larcv_wholeview_3ed69fbb-3bea-4190-ade6-8a23fb359106.root'
p308
aS'/pnfs/uboone/data/uboone/larcv_wholeview/prod_v08_00_00_01/data_extbnb_reco1_mcc9/extbnb_C2/00/00/74/59/larcv_wholeview_9103d4c2-3e3d-4831-9f08-f60c40855c6f.root'
p309
aS'/pnfs/uboone/data/uboone/larcv_wholeview/prod_v08_00_00_01/data_extbnb_reco1_mcc9/extbnb_C2/00/00/74/61/larcv_wholeview_97a95f17-1bd5-4e13-9c8f-dad1af8e0f18.root'
p310
aS'/pnfs/uboone/data/uboone/larcv_wholeview/prod_v08_00_00_01/data_extbnb_reco1_mcc9/extbnb_C2/00/00/74/00/larcv_wholeview_30ba180b-20cc-4005-b73d-ade33a5e7e07.root'
p311
aS'/pnfs/uboone/data/uboone/larcv_wholeview/prod_v08_00_00_01/data_extbnb_reco1_mcc9/extbnb_C2/00/00/73/93/larcv_wholeview_b220374b-ebbb-4a08-b6a4-208f2ede4b79.root'
p312
aS'/pnfs/uboone/data/uboone/larcv_wholeview/prod_v08_00_00_01/data_extbnb_reco1_mcc9/extbnb_C2/00/00/74/00/larcv_wholeview_9f4ba4a6-ae97-44f7-ae4f-2454882c08fa.root'
p313
aS'/pnfs/uboone/data/uboone/larcv_wholeview/prod_v08_00_00_01/data_extbnb_reco1_mcc9/extbnb_C2/00/00/74/20/larcv_wholeview_43d59331-c1f8-47bb-82c7-f30bc851bdc8.root'
p314
aS'/pnfs/uboone/data/uboone/larcv_wholeview/prod_v08_00_00_01/data_extbnb_reco1_mcc9/extbnb_C2/00/00/74/43/larcv_wholeview_2a5809cd-e6d5-420c-adb1-96cdb6dbc175.root'
p315
aS'/pnfs/uboone/data/uboone/larcv_wholeview/prod_v08_00_00_01/data_extbnb_reco1_mcc9/extbnb_C2/00/00/74/42/larcv_wholeview_03bb4aaa-6b89-4c01-9a18-c98afd87d1f0.root'
p316
aS'/pnfs/uboone/data/uboone/larcv_wholeview/prod_v08_00_00_01/data_extbnb_reco1_mcc9/extbnb_C2/00/00/74/57/larcv_wholeview_62e8bed8-2a14-4f7a-8680-8e239d2a1e09.root'
p317
aS'/pnfs/uboone/data/uboone/larcv_wholeview/prod_v08_00_00_01/data_extbnb_reco1_mcc9/extbnb_C2/00/00/74/22/larcv_wholeview_8381ed27-d9c2-413e-80dc-4d75776a66c3.root'
p318
aS'/pnfs/uboone/data/uboone/larcv_wholeview/prod_v08_00_00_01/data_extbnb_reco1_mcc9/extbnb_C2/00/00/74/03/larcv_wholeview_f8bcc30f-439d-402e-802f-dc9a7333bcfb.root'
p319
aS'/pnfs/uboone/data/uboone/larcv_wholeview/prod_v08_00_00_01/data_extbnb_reco1_mcc9/extbnb_C2/00/00/74/57/larcv_wholeview_83b210fe-dabc-4045-9e2b-cc5eb4b4c0cb.root'
p320
aS'/pnfs/uboone/data/uboone/larcv_wholeview/prod_v08_00_00_01/data_extbnb_reco1_mcc9/extbnb_C2/00/00/74/70/larcv_wholeview_499b4090-bdba-4564-bc03-ace7abdd7dd5.root'
p321
aS'/pnfs/uboone/data/uboone/larcv_wholeview/prod_v08_00_00_01/data_extbnb_reco1_mcc9/extbnb_C2/00/00/73/49/larcv_wholeview_30edd13f-bbd3-4dc2-a9f5-539b5342c269.root'
p322
aS'/pnfs/uboone/data/uboone/larcv_wholeview/prod_v08_00_00_01/data_extbnb_reco1_mcc9/extbnb_C2/00/00/74/57/larcv_wholeview_825bc9a1-c390-4ade-bff2-da09c1f5b282.root'
p323
aS'/pnfs/uboone/data/uboone/larcv_wholeview/prod_v08_00_00_01/data_extbnb_reco1_mcc9/extbnb_C2/00/00/73/98/larcv_wholeview_ff092be2-6bcd-42dd-beea-83e8cb46c4f2.root'
p324
aS'/pnfs/uboone/data/uboone/larcv_wholeview/prod_v08_00_00_01/data_extbnb_reco1_mcc9/extbnb_C2/00/00/74/42/larcv_wholeview_f7c2f240-0ce2-44f7-821b-3e6200bbe310.root'
p325
aS'/pnfs/uboone/data/uboone/larcv_wholeview/prod_v08_00_00_01/data_extbnb_reco1_mcc9/extbnb_C2/00/00/73/91/larcv_wholeview_b179a276-9a68-49b2-9fe6-a309d5bcd562.root'
p326
aS'/pnfs/uboone/data/uboone/larcv_wholeview/prod_v08_00_00_01/data_extbnb_reco1_mcc9/extbnb_C2/00/00/74/56/larcv_wholeview_d7966ae0-e4c5-4cdb-8e8c-ae775aae7814.root'
p327
aS'/pnfs/uboone/data/uboone/larcv_wholeview/prod_v08_00_00_01/data_extbnb_reco1_mcc9/extbnb_C2/00/00/73/93/larcv_wholeview_d8279143-e943-4a37-a17a-be6faee9aa42.root'
p328
aS'/pnfs/uboone/data/uboone/larcv_wholeview/prod_v08_00_00_01/data_extbnb_reco1_mcc9/extbnb_C2/00/00/74/32/larcv_wholeview_e07274ab-6d29-45c1-beb8-8fe090533f1d.root'
p329
aS'/pnfs/uboone/data/uboone/larcv_wholeview/prod_v08_00_00_01/data_extbnb_reco1_mcc9/extbnb_C2/00/00/74/42/larcv_wholeview_843096a2-f935-4a08-babb-f6be6df1d090.root'
p330
aS'/pnfs/uboone/data/uboone/larcv_wholeview/prod_v08_00_00_01/data_extbnb_reco1_mcc9/extbnb_C2/00/00/74/00/larcv_wholeview_09f7fdf0-66fe-4ba2-9ad4-f791377f151c.root'
p331
aS'/pnfs/uboone/data/uboone/larcv_wholeview/prod_v08_00_00_01/data_extbnb_reco1_mcc9/extbnb_C2/00/00/74/42/larcv_wholeview_963ad73e-9c96-4b25-b8bd-6b2996a68024.root'
p332
aS'/pnfs/uboone/data/uboone/larcv_wholeview/prod_v08_00_00_01/data_extbnb_reco1_mcc9/extbnb_C2/00/00/74/63/larcv_wholeview_6cb5ac83-8e05-4687-ba88-9992c8d0cd24.root'
p333
aS'/pnfs/uboone/data/uboone/larcv_wholeview/prod_v08_00_00_01/data_extbnb_reco1_mcc9/extbnb_C2/00/00/73/98/larcv_wholeview_6f42fbf8-2daf-490c-801b-ce4e4fa9692d.root'
p334
aS'/pnfs/uboone/data/uboone/larcv_wholeview/prod_v08_00_00_01/data_extbnb_reco1_mcc9/extbnb_C2/00/00/74/42/larcv_wholeview_ba2d9535-15ad-4408-8d6c-2adf7dcf5d9d.root'
p335
aS'/pnfs/uboone/data/uboone/larcv_wholeview/prod_v08_00_00_01/data_extbnb_reco1_mcc9/extbnb_C2/00/00/74/44/larcv_wholeview_016f9b99-cec0-40f9-8e1b-6c23717084c6.root'
p336
aS'/pnfs/uboone/data/uboone/larcv_wholeview/prod_v08_00_00_01/data_extbnb_reco1_mcc9/extbnb_C2/00/00/74/36/larcv_wholeview_b1ab9b7b-01bf-4efe-8d29-5a809d1dfcd4.root'
p337
aS'/pnfs/uboone/data/uboone/larcv_wholeview/prod_v08_00_00_01/data_extbnb_reco1_mcc9/extbnb_C2/00/00/73/49/larcv_wholeview_f8a2dd2f-4996-4c6b-b744-5834dfc195b7.root'
p338
aS'/pnfs/uboone/data/uboone/larcv_wholeview/prod_v08_00_00_01/data_extbnb_reco1_mcc9/extbnb_C2/00/00/74/20/larcv_wholeview_63039069-142c-49b8-83c6-2d8551f7f77e.root'
p339
aS'/pnfs/uboone/data/uboone/larcv_wholeview/prod_v08_00_00_01/data_extbnb_reco1_mcc9/extbnb_C2/00/00/74/44/larcv_wholeview_7abfe4fc-4bca-44bc-b86a-44a3b5910404.root'
p340
aS'/pnfs/uboone/data/uboone/larcv_wholeview/prod_v08_00_00_01/data_extbnb_reco1_mcc9/extbnb_C2/00/00/74/57/larcv_wholeview_0b4811ce-f908-48ae-b54a-1b3e8ef8261f.root'
p341
aS'/pnfs/uboone/data/uboone/larcv_wholeview/prod_v08_00_00_01/data_extbnb_reco1_mcc9/extbnb_C2/00/00/74/38/larcv_wholeview_2030b8c2-983d-48e6-98b0-c91012855ec5.root'
p342
aS'/pnfs/uboone/data/uboone/larcv_wholeview/prod_v08_00_00_01/data_extbnb_reco1_mcc9/extbnb_C2/00/00/74/00/larcv_wholeview_e11ef479-b2f0-416c-9aaf-79f4d8caa006.root'
p343
aS'/pnfs/uboone/data/uboone/larcv_wholeview/prod_v08_00_00_01/data_extbnb_reco1_mcc9/extbnb_C2/00/00/74/57/larcv_wholeview_5f29ffa9-3bf4-4e21-9904-4248750e22e9.root'
p344
aS'/pnfs/uboone/data/uboone/larcv_wholeview/prod_v08_00_00_01/data_extbnb_reco1_mcc9/extbnb_C2/00/00/73/91/larcv_wholeview_edcd81fa-bfdf-4c48-99d0-fbb6e15b9cff.root'
p345
aS'/pnfs/uboone/data/uboone/larcv_wholeview/prod_v08_00_00_01/data_extbnb_reco1_mcc9/extbnb_C2/00/00/74/19/larcv_wholeview_e3b17812-5d69-4da4-ac2d-c34d350576f3.root'
p346
aS'/pnfs/uboone/data/uboone/larcv_wholeview/prod_v08_00_00_01/data_extbnb_reco1_mcc9/extbnb_C2/00/00/74/66/larcv_wholeview_af756e78-d108-4172-9493-7b40da897133.root'
p347
aS'/pnfs/uboone/data/uboone/larcv_wholeview/prod_v08_00_00_01/data_extbnb_reco1_mcc9/extbnb_C2/00/00/74/57/larcv_wholeview_1ea0e0dd-d43b-424e-b5cf-c5ba2c1d00d1.root'
p348
aS'/pnfs/uboone/data/uboone/larcv_wholeview/prod_v08_00_00_01/data_extbnb_reco1_mcc9/extbnb_C2/00/00/74/00/larcv_wholeview_b160992d-0391-4eab-b681-f4fbf99882ff.root'
p349
aS'/pnfs/uboone/data/uboone/larcv_wholeview/prod_v08_00_00_01/data_extbnb_reco1_mcc9/extbnb_C2/00/00/74/03/larcv_wholeview_9bc6120c-4148-4704-915d-00507be7b51f.root'
p350
aS'/pnfs/uboone/data/uboone/larcv_wholeview/prod_v08_00_00_01/data_extbnb_reco1_mcc9/extbnb_C2/00/00/74/57/larcv_wholeview_49464346-343a-40a1-adcc-ae69ee529952.root'
p351
aS'/pnfs/uboone/data/uboone/larcv_wholeview/prod_v08_00_00_01/data_extbnb_reco1_mcc9/extbnb_C2/00/00/74/20/larcv_wholeview_c867cd50-e535-40f5-bf80-3bbf395d42e8.root'
p352
aS'/pnfs/uboone/data/uboone/larcv_wholeview/prod_v08_00_00_01/data_extbnb_reco1_mcc9/extbnb_C2/00/00/73/92/larcv_wholeview_f581a86e-927b-4943-9f22-2951404b42d4.root'
p353
aS'/pnfs/uboone/data/uboone/larcv_wholeview/prod_v08_00_00_01/data_extbnb_reco1_mcc9/extbnb_C2/00/00/74/61/larcv_wholeview_30f29fb6-42f4-4373-877d-819df28b7fa1.root'
p354
aS'/pnfs/uboone/data/uboone/larcv_wholeview/prod_v08_00_00_01/data_extbnb_reco1_mcc9/extbnb_C2/00/00/74/21/larcv_wholeview_0dcc9ea9-7c63-46d8-a8f6-81c53a2c53cc.root'
p355
aS'/pnfs/uboone/data/uboone/larcv_wholeview/prod_v08_00_00_01/data_extbnb_reco1_mcc9/extbnb_C2/00/00/74/57/larcv_wholeview_706b5014-1205-406d-be1f-2f7ac3e08c45.root'
p356
aS'/pnfs/uboone/data/uboone/larcv_wholeview/prod_v08_00_00_01/data_extbnb_reco1_mcc9/extbnb_C2/00/00/73/91/larcv_wholeview_91972075-b8f5-4dc9-baf4-ffcb47a6ce61.root'
p357
aS'/pnfs/uboone/data/uboone/larcv_wholeview/prod_v08_00_00_01/data_extbnb_reco1_mcc9/extbnb_C2/00/00/74/40/larcv_wholeview_92c94d1b-0725-420f-8ba1-c6638110f6f6.root'
p358
aS'/pnfs/uboone/data/uboone/larcv_wholeview/prod_v08_00_00_01/data_extbnb_reco1_mcc9/extbnb_C2/00/00/74/42/larcv_wholeview_f0eb3a19-91b1-4ccf-8db0-168efa3da2e8.root'
p359
aS'/pnfs/uboone/data/uboone/larcv_wholeview/prod_v08_00_00_01/data_extbnb_reco1_mcc9/extbnb_C2/00/00/74/57/larcv_wholeview_d41c7264-2c7f-4846-ba23-e79a695d5487.root'
p360
aS'/pnfs/uboone/data/uboone/larcv_wholeview/prod_v08_00_00_01/data_extbnb_reco1_mcc9/extbnb_C2/00/00/73/98/larcv_wholeview_b2b6340d-83ac-4597-a5bd-0420a84990d4.root'
p361
aS'/pnfs/uboone/data/uboone/larcv_wholeview/prod_v08_00_00_01/data_extbnb_reco1_mcc9/extbnb_C2/00/00/74/41/larcv_wholeview_eda97de6-87e5-473e-a074-7c8790402c1f.root'
p362
aS'/pnfs/uboone/data/uboone/larcv_wholeview/prod_v08_00_00_01/data_extbnb_reco1_mcc9/extbnb_C2/00/00/74/40/larcv_wholeview_8980ea0e-9c6c-4068-b4ba-d0f3ea3df97c.root'
p363
aS'/pnfs/uboone/data/uboone/larcv_wholeview/prod_v08_00_00_01/data_extbnb_reco1_mcc9/extbnb_C2/00/00/74/19/larcv_wholeview_a7ae6e75-3931-4f79-8b97-897cb5aa02f1.root'
p364
aS'/pnfs/uboone/data/uboone/larcv_wholeview/prod_v08_00_00_01/data_extbnb_reco1_mcc9/extbnb_C2/00/00/73/98/larcv_wholeview_fbc7c36f-41ad-4168-a33b-fed62fd3dad7.root'
p365
aS'/pnfs/uboone/data/uboone/larcv_wholeview/prod_v08_00_00_01/data_extbnb_reco1_mcc9/extbnb_C2/00/00/74/68/larcv_wholeview_4f7f189e-0189-4b0e-8578-1b3528e0af15.root'
p366
aS'/pnfs/uboone/data/uboone/larcv_wholeview/prod_v08_00_00_01/data_extbnb_reco1_mcc9/extbnb_C2/00/00/74/44/larcv_wholeview_07cd7ef0-2420-467c-9433-ac84230e2207.root'
p367
aS'/pnfs/uboone/data/uboone/larcv_wholeview/prod_v08_00_00_01/data_extbnb_reco1_mcc9/extbnb_C2/00/00/74/69/larcv_wholeview_c307123f-0b7a-48cc-8ccb-c63852431d20.root'
p368
aS'/pnfs/uboone/data/uboone/larcv_wholeview/prod_v08_00_00_01/data_extbnb_reco1_mcc9/extbnb_C2/00/00/73/91/larcv_wholeview_71f8cffb-b833-451a-91fe-8d7154a67e30.root'
p369
aS'/pnfs/uboone/data/uboone/larcv_wholeview/prod_v08_00_00_01/data_extbnb_reco1_mcc9/extbnb_C2/00/00/74/21/larcv_wholeview_6d2dba3b-b3f9-47d3-aac1-ec7e78bdb28f.root'
p370
aS'/pnfs/uboone/data/uboone/larcv_wholeview/prod_v08_00_00_01/data_extbnb_reco1_mcc9/extbnb_C2/00/00/73/91/larcv_wholeview_6f2cc47c-6ec6-4aac-9f26-8ae16637e0c2.root'
p371
aS'/pnfs/uboone/data/uboone/larcv_wholeview/prod_v08_00_00_01/data_extbnb_reco1_mcc9/extbnb_C2/00/00/73/98/larcv_wholeview_1240a5fc-6df2-4477-999d-6cb7564ed575.root'
p372
aS'/pnfs/uboone/data/uboone/larcv_wholeview/prod_v08_00_00_01/data_extbnb_reco1_mcc9/extbnb_C2/00/00/74/66/larcv_wholeview_65d15c74-edea-4808-9348-1cd6a366b11e.root'
p373
aS'/pnfs/uboone/data/uboone/larcv_wholeview/prod_v08_00_00_01/data_extbnb_reco1_mcc9/extbnb_C2/00/00/73/93/larcv_wholeview_8a455986-0df8-40a7-813c-e6266901d1c9.root'
p374
aS'/pnfs/uboone/data/uboone/larcv_wholeview/prod_v08_00_00_01/data_extbnb_reco1_mcc9/extbnb_C2/00/00/74/00/larcv_wholeview_25d6f92d-120d-4fd3-b334-e5d4f1462251.root'
p375
aS'/pnfs/uboone/data/uboone/larcv_wholeview/prod_v08_00_00_01/data_extbnb_reco1_mcc9/extbnb_C2/00/00/74/65/larcv_wholeview_4b8031ec-b006-4e2a-a8e9-f7853413b7a9.root'
p376
aS'/pnfs/uboone/data/uboone/larcv_wholeview/prod_v08_00_00_01/data_extbnb_reco1_mcc9/extbnb_C2/00/00/74/00/larcv_wholeview_41d579d6-36fd-4523-ad05-815af2fc0872.root'
p377
aS'/pnfs/uboone/data/uboone/larcv_wholeview/prod_v08_00_00_01/data_extbnb_reco1_mcc9/extbnb_C2/00/00/74/17/larcv_wholeview_afcfe091-718b-41e7-9f9e-f93ce1c0b8ee.root'
p378
aS'/pnfs/uboone/data/uboone/larcv_wholeview/prod_v08_00_00_01/data_extbnb_reco1_mcc9/extbnb_C2/00/00/73/91/larcv_wholeview_fddbee34-39b1-45d9-9cdf-e65207e78a0f.root'
p379
aS'/pnfs/uboone/data/uboone/larcv_wholeview/prod_v08_00_00_01/data_extbnb_reco1_mcc9/extbnb_C2/00/00/74/61/larcv_wholeview_d2712575-c8e4-4608-ae0d-67fd82fa9924.root'
p380
aS'/pnfs/uboone/data/uboone/larcv_wholeview/prod_v08_00_00_01/data_extbnb_reco1_mcc9/extbnb_C2/00/00/74/57/larcv_wholeview_6f740e6f-e5b5-4cf6-8742-61d6935ef01c.root'
p381
aS'/pnfs/uboone/data/uboone/larcv_wholeview/prod_v08_00_00_01/data_extbnb_reco1_mcc9/extbnb_C2/00/00/74/58/larcv_wholeview_dfc95c16-fa55-45c8-b3e2-f03ae64190fb.root'
p382
aS'/pnfs/uboone/data/uboone/larcv_wholeview/prod_v08_00_00_01/data_extbnb_reco1_mcc9/extbnb_C2/00/00/74/65/larcv_wholeview_1773d175-2b25-4cca-92f4-7bf1673681eb.root'
p383
aS'/pnfs/uboone/data/uboone/larcv_wholeview/prod_v08_00_00_01/data_extbnb_reco1_mcc9/extbnb_C2/00/00/74/03/larcv_wholeview_079bb77c-43a8-4cc9-a823-d36fac0bee6b.root'
p384
aS'/pnfs/uboone/data/uboone/larcv_wholeview/prod_v08_00_00_01/data_extbnb_reco1_mcc9/extbnb_C2/00/00/74/64/larcv_wholeview_16400903-d96a-45bb-92cb-1d294e51f1b7.root'
p385
aS'/pnfs/uboone/data/uboone/larcv_wholeview/prod_v08_00_00_01/data_extbnb_reco1_mcc9/extbnb_C2/00/00/74/42/larcv_wholeview_660746ff-5190-4ce8-8e6f-174d42c5a056.root'
p386
aS'/pnfs/uboone/data/uboone/larcv_wholeview/prod_v08_00_00_01/data_extbnb_reco1_mcc9/extbnb_C2/00/00/74/58/larcv_wholeview_d4a933b5-3da8-48ad-9478-a5fad6ebecd4.root'
p387
aS'/pnfs/uboone/data/uboone/larcv_wholeview/prod_v08_00_00_01/data_extbnb_reco1_mcc9/extbnb_C2/00/00/73/93/larcv_wholeview_857bafcd-fa7f-4f5e-baeb-9da3866d7538.root'
p388
aS'/pnfs/uboone/data/uboone/larcv_wholeview/prod_v08_00_00_01/data_extbnb_reco1_mcc9/extbnb_C2/00/00/74/66/larcv_wholeview_ba800e61-830d-4c58-819b-5bce011f1759.root'
p389
aS'/pnfs/uboone/data/uboone/larcv_wholeview/prod_v08_00_00_01/data_extbnb_reco1_mcc9/extbnb_C2/00/00/74/00/larcv_wholeview_81d60474-96da-4b45-9ca8-45e003f89e04.root'
p390
aS'/pnfs/uboone/data/uboone/larcv_wholeview/prod_v08_00_00_01/data_extbnb_reco1_mcc9/extbnb_C2/00/00/73/91/larcv_wholeview_cb363d7d-e920-44a8-bab9-96413843296f.root'
p391
aS'/pnfs/uboone/data/uboone/larcv_wholeview/prod_v08_00_00_01/data_extbnb_reco1_mcc9/extbnb_C2/00/00/74/57/larcv_wholeview_ec988742-977d-49d2-91c7-3dfca92508e0.root'
p392
aS'/pnfs/uboone/data/uboone/larcv_wholeview/prod_v08_00_00_01/data_extbnb_reco1_mcc9/extbnb_C2/00/00/74/20/larcv_wholeview_a51445c8-3462-4a21-af4e-490c89c7ce34.root'
p393
aS'/pnfs/uboone/data/uboone/larcv_wholeview/prod_v08_00_00_01/data_extbnb_reco1_mcc9/extbnb_C2/00/00/74/21/larcv_wholeview_188cb825-5fd5-4aef-89ba-c4a0345f402f.root'
p394
aS'/pnfs/uboone/data/uboone/larcv_wholeview/prod_v08_00_00_01/data_extbnb_reco1_mcc9/extbnb_C2/00/00/74/19/larcv_wholeview_4168721a-f894-4913-abba-368b198d35b0.root'
p395
aS'/pnfs/uboone/data/uboone/larcv_wholeview/prod_v08_00_00_01/data_extbnb_reco1_mcc9/extbnb_C2/00/00/74/03/larcv_wholeview_6b3a15fb-c3ac-4830-8851-e14e43bfcfdd.root'
p396
aS'/pnfs/uboone/data/uboone/larcv_wholeview/prod_v08_00_00_01/data_extbnb_reco1_mcc9/extbnb_C2/00/00/74/42/larcv_wholeview_bdb8586f-5c93-4faf-83f4-e0f75cfa4484.root'
p397
aS'/pnfs/uboone/data/uboone/larcv_wholeview/prod_v08_00_00_01/data_extbnb_reco1_mcc9/extbnb_C2/00/00/74/36/larcv_wholeview_1cbd0cf5-44f3-4525-9f88-bde2e89685f8.root'
p398
aS'/pnfs/uboone/data/uboone/larcv_wholeview/prod_v08_00_00_01/data_extbnb_reco1_mcc9/extbnb_C2/00/00/74/00/larcv_wholeview_6d0be513-fc6f-4859-a3af-e3f5faef45e6.root'
p399
aS'/pnfs/uboone/data/uboone/larcv_wholeview/prod_v08_00_00_01/data_extbnb_reco1_mcc9/extbnb_C2/00/00/74/71/larcv_wholeview_d72c8273-67d0-4772-bd93-98754ff5b5e6.root'
p400
aS'/pnfs/uboone/data/uboone/larcv_wholeview/prod_v08_00_00_01/data_extbnb_reco1_mcc9/extbnb_C2/00/00/73/91/larcv_wholeview_bdab1aff-29a4-40ba-90a9-1da3c03d9c76.root'
p401
aS'/pnfs/uboone/data/uboone/larcv_wholeview/prod_v08_00_00_01/data_extbnb_reco1_mcc9/extbnb_C2/00/00/74/69/larcv_wholeview_cb65709f-566b-4d95-87e7-bc341d7c6840.root'
p402
aS'/pnfs/uboone/data/uboone/larcv_wholeview/prod_v08_00_00_01/data_extbnb_reco1_mcc9/extbnb_C2/00/00/74/57/larcv_wholeview_95ef5824-211b-4df8-bcdc-8b31961d6b39.root'
p403
aS'/pnfs/uboone/data/uboone/larcv_wholeview/prod_v08_00_00_01/data_extbnb_reco1_mcc9/extbnb_C2/00/00/74/73/larcv_wholeview_1854de87-f210-4306-8ef4-2bb5fed472fa.root'
p404
aS'/pnfs/uboone/data/uboone/larcv_wholeview/prod_v08_00_00_01/data_extbnb_reco1_mcc9/extbnb_C2/00/00/74/57/larcv_wholeview_5fa16c17-f84e-4e7e-8b0a-33d07b27fbad.root'
p405
aS'/pnfs/uboone/data/uboone/larcv_wholeview/prod_v08_00_00_01/data_extbnb_reco1_mcc9/extbnb_C2/00/00/74/66/larcv_wholeview_abeae552-aa6c-4970-87d4-e4562d8dd20d.root'
p406
aS'/pnfs/uboone/data/uboone/larcv_wholeview/prod_v08_00_00_01/data_extbnb_reco1_mcc9/extbnb_C2/00/00/74/57/larcv_wholeview_8195081a-f350-4438-9f87-29777be0a5de.root'
p407
aS'/pnfs/uboone/data/uboone/larcv_wholeview/prod_v08_00_00_01/data_extbnb_reco1_mcc9/extbnb_C2/00/00/74/03/larcv_wholeview_5a84f635-2781-43bb-93b1-745adceb1646.root'
p408
aS'/pnfs/uboone/data/uboone/larcv_wholeview/prod_v08_00_00_01/data_extbnb_reco1_mcc9/extbnb_C2/00/00/74/56/larcv_wholeview_5feafcfd-74ce-49fa-9c19-1dd21e398d41.root'
p409
aS'/pnfs/uboone/data/uboone/larcv_wholeview/prod_v08_00_00_01/data_extbnb_reco1_mcc9/extbnb_C2/00/00/74/66/larcv_wholeview_2ff1e872-be69-40cd-976d-6709d43ad793.root'
p410
aS'/pnfs/uboone/data/uboone/larcv_wholeview/prod_v08_00_00_01/data_extbnb_reco1_mcc9/extbnb_C2/00/00/74/42/larcv_wholeview_192fcf3e-91d1-4d44-8bc9-188913e80e11.root'
p411
aS'/pnfs/uboone/data/uboone/larcv_wholeview/prod_v08_00_00_01/data_extbnb_reco1_mcc9/extbnb_C2/00/00/74/68/larcv_wholeview_c1a6fd7d-7194-45bb-a19e-056d6aab2156.root'
p412
aS'/pnfs/uboone/data/uboone/larcv_wholeview/prod_v08_00_00_01/data_extbnb_reco1_mcc9/extbnb_C2/00/00/74/65/larcv_wholeview_0739ac84-8e09-4958-8e6d-8bc92dc0115b.root'
p413
aS'/pnfs/uboone/data/uboone/larcv_wholeview/prod_v08_00_00_01/data_extbnb_reco1_mcc9/extbnb_C2/00/00/73/98/larcv_wholeview_e2986d0b-0250-4549-aaf2-e57b081c7573.root'
p414
aS'/pnfs/uboone/data/uboone/larcv_wholeview/prod_v08_00_00_01/data_extbnb_reco1_mcc9/extbnb_C2/00/00/74/39/larcv_wholeview_28bc6f66-f861-4edb-897d-8cd79a6cb0ef.root'
p415
aS'/pnfs/uboone/data/uboone/larcv_wholeview/prod_v08_00_00_01/data_extbnb_reco1_mcc9/extbnb_C2/00/00/74/57/larcv_wholeview_a7a0ee48-0472-49d2-ab03-07a48578a6d8.root'
p416
aS'/pnfs/uboone/data/uboone/larcv_wholeview/prod_v08_00_00_01/data_extbnb_reco1_mcc9/extbnb_C2/00/00/74/59/larcv_wholeview_610af489-0e8b-4eb0-89a1-96bda7d203aa.root'
p417
aS'/pnfs/uboone/data/uboone/larcv_wholeview/prod_v08_00_00_01/data_extbnb_reco1_mcc9/extbnb_C2/00/00/74/21/larcv_wholeview_422b37cc-cd32-4744-8e02-889623d06ce7.root'
p418
aS'/pnfs/uboone/data/uboone/larcv_wholeview/prod_v08_00_00_01/data_extbnb_reco1_mcc9/extbnb_C2/00/00/74/20/larcv_wholeview_0de0cb98-0e4e-4280-9603-2d3ac1600031.root'
p419
aS'/pnfs/uboone/data/uboone/larcv_wholeview/prod_v08_00_00_01/data_extbnb_reco1_mcc9/extbnb_C2/00/00/73/93/larcv_wholeview_33784281-d130-4622-ab35-285049653ee3.root'
p420
aS'/pnfs/uboone/data/uboone/larcv_wholeview/prod_v08_00_00_01/data_extbnb_reco1_mcc9/extbnb_C2/00/00/74/65/larcv_wholeview_23f8e2dd-0bb1-460c-ba20-f0f0f715061f.root'
p421
aS'/pnfs/uboone/data/uboone/larcv_wholeview/prod_v08_00_00_01/data_extbnb_reco1_mcc9/extbnb_C2/00/00/73/91/larcv_wholeview_86cd5a73-b8cb-4bf1-92cf-c56bf759511c.root'
p422
aS'/pnfs/uboone/data/uboone/larcv_wholeview/prod_v08_00_00_01/data_extbnb_reco1_mcc9/extbnb_C2/00/00/73/91/larcv_wholeview_a1027f01-1280-47ff-9cfc-7da592a80987.root'
p423
aS'/pnfs/uboone/data/uboone/larcv_wholeview/prod_v08_00_00_01/data_extbnb_reco1_mcc9/extbnb_C2/00/00/73/98/larcv_wholeview_7b5557fd-ac21-4943-af42-153292ea562f.root'
p424
aS'/pnfs/uboone/data/uboone/larcv_wholeview/prod_v08_00_00_01/data_extbnb_reco1_mcc9/extbnb_C2/00/00/74/63/larcv_wholeview_522d6fd0-9677-4431-8c71-ddcaf00b3859.root'
p425
aS'/pnfs/uboone/data/uboone/larcv_wholeview/prod_v08_00_00_01/data_extbnb_reco1_mcc9/extbnb_C2/00/00/74/03/larcv_wholeview_b35b5e9f-4ce8-4161-a2ce-a14e3c7f16e0.root'
p426
aS'/pnfs/uboone/data/uboone/larcv_wholeview/prod_v08_00_00_01/data_extbnb_reco1_mcc9/extbnb_C2/00/00/74/73/larcv_wholeview_520d5a1d-ee0d-44d5-b62b-93f02fb4a3c0.root'
p427
aS'/pnfs/uboone/data/uboone/larcv_wholeview/prod_v08_00_00_01/data_extbnb_reco1_mcc9/extbnb_C2/00/00/74/57/larcv_wholeview_5bdda455-072a-4b4d-8a19-a30ae24c5446.root'
p428
aS'/pnfs/uboone/data/uboone/larcv_wholeview/prod_v08_00_00_01/data_extbnb_reco1_mcc9/extbnb_C2/00/00/74/67/larcv_wholeview_42e3818b-3ba5-4bdc-8cca-51b3e3377fed.root'
p429
aS'/pnfs/uboone/data/uboone/larcv_wholeview/prod_v08_00_00_01/data_extbnb_reco1_mcc9/extbnb_C2/00/00/74/66/larcv_wholeview_2da47767-e372-403f-9cd1-b247ad2d4a58.root'
p430
aS'/pnfs/uboone/data/uboone/larcv_wholeview/prod_v08_00_00_01/data_extbnb_reco1_mcc9/extbnb_C2/00/00/74/00/larcv_wholeview_b2f931c8-2bbe-47f6-b023-e19b12710e9f.root'
p431
aS'/pnfs/uboone/data/uboone/larcv_wholeview/prod_v08_00_00_01/data_extbnb_reco1_mcc9/extbnb_C2/00/00/74/66/larcv_wholeview_6fb76f42-4e8b-4744-b1d5-e94fffb4e058.root'
p432
aS'/pnfs/uboone/data/uboone/larcv_wholeview/prod_v08_00_00_01/data_extbnb_reco1_mcc9/extbnb_C2/00/00/74/61/larcv_wholeview_3f405e15-9b01-4905-8d9f-09d8ee5f6d27.root'
p433
aS'/pnfs/uboone/data/uboone/larcv_wholeview/prod_v08_00_00_01/data_extbnb_reco1_mcc9/extbnb_C2/00/00/74/61/larcv_wholeview_07695f94-d063-4fc9-a9f6-6b678eff3d6e.root'
p434
aS'/pnfs/uboone/data/uboone/larcv_wholeview/prod_v08_00_00_01/data_extbnb_reco1_mcc9/extbnb_C2/00/00/74/57/larcv_wholeview_85307616-3359-4642-a671-3786d1dfeb5a.root'
p435
aS'/pnfs/uboone/data/uboone/larcv_wholeview/prod_v08_00_00_01/data_extbnb_reco1_mcc9/extbnb_C2/00/00/74/59/larcv_wholeview_fb7a9c4c-6150-4b4e-be09-da4dcf7f192f.root'
p436
aS'/pnfs/uboone/data/uboone/larcv_wholeview/prod_v08_00_00_01/data_extbnb_reco1_mcc9/extbnb_C2/00/00/73/34/larcv_wholeview_629afe8f-e7d8-4cd8-b622-85364fc8efee.root'
p437
aS'/pnfs/uboone/data/uboone/larcv_wholeview/prod_v08_00_00_01/data_extbnb_reco1_mcc9/extbnb_C2/00/00/73/91/larcv_wholeview_703f8af7-166c-4619-ad9a-f7dc332e21ff.root'
p438
aS'/pnfs/uboone/data/uboone/larcv_wholeview/prod_v08_00_00_01/data_extbnb_reco1_mcc9/extbnb_C2/00/00/73/93/larcv_wholeview_945ceb9d-8b62-4cf3-9fe5-3958a6a11679.root'
p439
aS'/pnfs/uboone/data/uboone/larcv_wholeview/prod_v08_00_00_01/data_extbnb_reco1_mcc9/extbnb_C2/00/00/74/65/larcv_wholeview_eb16a52e-c920-443a-ab9b-093f04cab563.root'
p440
aS'/pnfs/uboone/data/uboone/larcv_wholeview/prod_v08_00_00_01/data_extbnb_reco1_mcc9/extbnb_C2/00/00/73/90/larcv_wholeview_1d25c447-ce4c-43d2-84f6-c357656752e9.root'
p441
aS'/pnfs/uboone/data/uboone/larcv_wholeview/prod_v08_00_00_01/data_extbnb_reco1_mcc9/extbnb_C2/00/00/73/91/larcv_wholeview_b278d3b4-1bbc-415b-824f-8015911fa4c9.root'
p442
aS'/pnfs/uboone/data/uboone/larcv_wholeview/prod_v08_00_00_01/data_extbnb_reco1_mcc9/extbnb_C2/00/00/74/62/larcv_wholeview_5357ddcf-41ea-4217-aaa2-6f7c3823e928.root'
p443
aS'/pnfs/uboone/data/uboone/larcv_wholeview/prod_v08_00_00_01/data_extbnb_reco1_mcc9/extbnb_C2/00/00/74/00/larcv_wholeview_de2df548-113e-478e-b8f0-7f37895b3756.root'
p444
aS'/pnfs/uboone/data/uboone/larcv_wholeview/prod_v08_00_00_01/data_extbnb_reco1_mcc9/extbnb_C2/00/00/74/57/larcv_wholeview_87334118-c96d-4b3b-8e39-f7827e8608bd.root'
p445
aS'/pnfs/uboone/data/uboone/larcv_wholeview/prod_v08_00_00_01/data_extbnb_reco1_mcc9/extbnb_C2/00/00/74/13/larcv_wholeview_58a73d98-618e-4d24-8f77-fff7e7875711.root'
p446
aS'/pnfs/uboone/data/uboone/larcv_wholeview/prod_v08_00_00_01/data_extbnb_reco1_mcc9/extbnb_C2/00/00/74/42/larcv_wholeview_84514dc7-ef70-41f6-9279-0d8c6debd7b1.root'
p447
aS'/pnfs/uboone/data/uboone/larcv_wholeview/prod_v08_00_00_01/data_extbnb_reco1_mcc9/extbnb_C2/00/00/74/73/larcv_wholeview_885dfb43-fef7-42eb-b836-5d177fd2bc5f.root'
p448
aS'/pnfs/uboone/data/uboone/larcv_wholeview/prod_v08_00_00_01/data_extbnb_reco1_mcc9/extbnb_C2/00/00/74/57/larcv_wholeview_4318667c-b9ae-40cf-a9fb-0185dbef4242.root'
p449
aS'/pnfs/uboone/data/uboone/larcv_wholeview/prod_v08_00_00_01/data_extbnb_reco1_mcc9/extbnb_C2/00/00/74/58/larcv_wholeview_ab5818fe-a36b-45f1-a41e-4648ddfab72c.root'
p450
aS'/pnfs/uboone/data/uboone/larcv_wholeview/prod_v08_00_00_01/data_extbnb_reco1_mcc9/extbnb_C2/00/00/74/65/larcv_wholeview_ee64210f-7652-4301-be22-d332aa52c405.root'
p451
aS'/pnfs/uboone/data/uboone/larcv_wholeview/prod_v08_00_00_01/data_extbnb_reco1_mcc9/extbnb_C2/00/00/74/64/larcv_wholeview_19452feb-e5db-4d7e-a05a-87ac6a1b8008.root'
p452
aS'/pnfs/uboone/data/uboone/larcv_wholeview/prod_v08_00_00_01/data_extbnb_reco1_mcc9/extbnb_C2/00/00/74/42/larcv_wholeview_7bc3d252-be47-4fd9-bdbf-3b923ae716c3.root'
p453
aS'/pnfs/uboone/data/uboone/larcv_wholeview/prod_v08_00_00_01/data_extbnb_reco1_mcc9/extbnb_C2/00/00/73/91/larcv_wholeview_54eea913-0110-45b9-ac67-d0fa2185a90f.root'
p454
aS'/pnfs/uboone/data/uboone/larcv_wholeview/prod_v08_00_00_01/data_extbnb_reco1_mcc9/extbnb_C2/00/00/74/36/larcv_wholeview_6d71eeae-691d-49ae-9a3d-a1de54039220.root'
p455
aS'/pnfs/uboone/data/uboone/larcv_wholeview/prod_v08_00_00_01/data_extbnb_reco1_mcc9/extbnb_C2/00/00/74/55/larcv_wholeview_dd833f51-b07f-4118-83f0-71675524bd8c.root'
p456
aS'/pnfs/uboone/data/uboone/larcv_wholeview/prod_v08_00_00_01/data_extbnb_reco1_mcc9/extbnb_C2/00/00/74/57/larcv_wholeview_ba313e69-966f-467d-a79c-b08776814d27.root'
p457
aS'/pnfs/uboone/data/uboone/larcv_wholeview/prod_v08_00_00_01/data_extbnb_reco1_mcc9/extbnb_C2/00/00/74/61/larcv_wholeview_e5d4472e-ef40-4a65-aa36-6bfe4f3b9e32.root'
p458
aS'/pnfs/uboone/data/uboone/larcv_wholeview/prod_v08_00_00_01/data_extbnb_reco1_mcc9/extbnb_C2/00/00/74/03/larcv_wholeview_3bdaf13f-d693-4186-b95d-42d59db72c55.root'
p459
aS'/pnfs/uboone/data/uboone/larcv_wholeview/prod_v08_00_00_01/data_extbnb_reco1_mcc9/extbnb_C2/00/00/73/91/larcv_wholeview_958b5e32-33db-40cb-857e-c73a425a733b.root'
p460
aS'/pnfs/uboone/data/uboone/larcv_wholeview/prod_v08_00_00_01/data_extbnb_reco1_mcc9/extbnb_C2/00/00/74/66/larcv_wholeview_6a87cfb8-7243-4265-8820-5e1b5b8191cb.root'
p461
aS'/pnfs/uboone/data/uboone/larcv_wholeview/prod_v08_00_00_01/data_extbnb_reco1_mcc9/extbnb_C2/00/00/74/62/larcv_wholeview_8b75e428-44c1-4597-8bf9-e765dd02e084.root'
p462
aS'/pnfs/uboone/data/uboone/larcv_wholeview/prod_v08_00_00_01/data_extbnb_reco1_mcc9/extbnb_C2/00/00/74/66/larcv_wholeview_aee17466-beea-4ee2-88f5-ffc65bb8f8fa.root'
p463
aS'/pnfs/uboone/data/uboone/larcv_wholeview/prod_v08_00_00_01/data_extbnb_reco1_mcc9/extbnb_C2/00/00/74/64/larcv_wholeview_f68b82b1-9aff-4b59-bfc6-ab5dad38c588.root'
p464
aS'/pnfs/uboone/data/uboone/larcv_wholeview/prod_v08_00_00_01/data_extbnb_reco1_mcc9/extbnb_C2/00/00/74/65/larcv_wholeview_10c28e0a-9790-48ae-b7a1-dcc606ef84ed.root'
p465
aS'/pnfs/uboone/data/uboone/larcv_wholeview/prod_v08_00_00_01/data_extbnb_reco1_mcc9/extbnb_C2/00/00/74/71/larcv_wholeview_b103ff3a-3939-409b-9113-ba5977a2c7ad.root'
p466
aS'/pnfs/uboone/data/uboone/larcv_wholeview/prod_v08_00_00_01/data_extbnb_reco1_mcc9/extbnb_C2/00/00/74/58/larcv_wholeview_c0b6d3ca-bcde-49a0-a976-205d07074f23.root'
p467
aS'/pnfs/uboone/data/uboone/larcv_wholeview/prod_v08_00_00_01/data_extbnb_reco1_mcc9/extbnb_C2/00/00/74/57/larcv_wholeview_7d1ed659-a0e2-4264-b52f-0ec0e88a0440.root'
p468
aS'/pnfs/uboone/data/uboone/larcv_wholeview/prod_v08_00_00_01/data_extbnb_reco1_mcc9/extbnb_C2/00/00/74/00/larcv_wholeview_babca2e0-1ffc-43fb-8b06-0f838d414a63.root'
p469
aS'/pnfs/uboone/data/uboone/larcv_wholeview/prod_v08_00_00_01/data_extbnb_reco1_mcc9/extbnb_C2/00/00/74/66/larcv_wholeview_454ebcb4-1245-4863-beb4-4af711e6f14c.root'
p470
aS'/pnfs/uboone/data/uboone/larcv_wholeview/prod_v08_00_00_01/data_extbnb_reco1_mcc9/extbnb_C2/00/00/73/92/larcv_wholeview_45b7b380-bbd2-4a90-99f2-df2d3a850e25.root'
p471
aS'/pnfs/uboone/data/uboone/larcv_wholeview/prod_v08_00_00_01/data_extbnb_reco1_mcc9/extbnb_C2/00/00/73/49/larcv_wholeview_14f00fce-523c-4930-8742-7bf817270990.root'
p472
aS'/pnfs/uboone/data/uboone/larcv_wholeview/prod_v08_00_00_01/data_extbnb_reco1_mcc9/extbnb_C2/00/00/74/61/larcv_wholeview_b18af99f-c34f-4c42-b4d4-2600d42c802b.root'
p473
aS'/pnfs/uboone/data/uboone/larcv_wholeview/prod_v08_00_00_01/data_extbnb_reco1_mcc9/extbnb_C2/00/00/74/20/larcv_wholeview_91639f91-b67e-46dd-86a3-6f38ed0c3b05.root'
p474
aS'/pnfs/uboone/data/uboone/larcv_wholeview/prod_v08_00_00_01/data_extbnb_reco1_mcc9/extbnb_C2/00/00/74/61/larcv_wholeview_fe78bfa8-afd0-43e7-963a-a260932607a8.root'
p475
aS'/pnfs/uboone/data/uboone/larcv_wholeview/prod_v08_00_00_01/data_extbnb_reco1_mcc9/extbnb_C2/00/00/74/66/larcv_wholeview_daaab66c-63f1-44e8-bd2a-0be3dfdb1aac.root'
p476
aS'/pnfs/uboone/data/uboone/larcv_wholeview/prod_v08_00_00_01/data_extbnb_reco1_mcc9/extbnb_C2/00/00/74/62/larcv_wholeview_870e894f-2733-4e18-a26c-dfe52b9cf77c.root'
p477
aS'/pnfs/uboone/data/uboone/larcv_wholeview/prod_v08_00_00_01/data_extbnb_reco1_mcc9/extbnb_C2/00/00/74/66/larcv_wholeview_f2e3d565-09dc-43b5-a875-30c4fda56f64.root'
p478
aS'/pnfs/uboone/data/uboone/larcv_wholeview/prod_v08_00_00_01/data_extbnb_reco1_mcc9/extbnb_C2/00/00/74/64/larcv_wholeview_b86bc6d5-fa45-452c-a6e0-01e11be94285.root'
p479
aS'/pnfs/uboone/data/uboone/larcv_wholeview/prod_v08_00_00_01/data_extbnb_reco1_mcc9/extbnb_C2/00/00/74/66/larcv_wholeview_48cc7403-6e6d-479b-bf88-5c050fe54c8d.root'
p480
aS'/pnfs/uboone/data/uboone/larcv_wholeview/prod_v08_00_00_01/data_extbnb_reco1_mcc9/extbnb_C2/00/00/74/42/larcv_wholeview_9904ff7c-b568-4732-b150-47be0bc426af.root'
p481
aS'/pnfs/uboone/data/uboone/larcv_wholeview/prod_v08_00_00_01/data_extbnb_reco1_mcc9/extbnb_C2/00/00/74/58/larcv_wholeview_fd4796f2-7fcb-467a-a2e7-cbe8dc3f1476.root'
p482
aS'/pnfs/uboone/data/uboone/larcv_wholeview/prod_v08_00_00_01/data_extbnb_reco1_mcc9/extbnb_C2/00/00/74/73/larcv_wholeview_e27bea25-2e2c-4a21-a538-00e993f16b00.root'
p483
aS'/pnfs/uboone/data/uboone/larcv_wholeview/prod_v08_00_00_01/data_extbnb_reco1_mcc9/extbnb_C2/00/00/73/49/larcv_wholeview_20c97de7-89ec-4e81-966e-41ecdbccb8a6.root'
p484
aS'/pnfs/uboone/data/uboone/larcv_wholeview/prod_v08_00_00_01/data_extbnb_reco1_mcc9/extbnb_C2/00/00/74/73/larcv_wholeview_4b5801f1-e913-454b-8e47-4a5004473461.root'
p485
aS'/pnfs/uboone/data/uboone/larcv_wholeview/prod_v08_00_00_01/data_extbnb_reco1_mcc9/extbnb_C2/00/00/74/18/larcv_wholeview_ac74b474-f6dc-443a-a11d-e769a812effb.root'
p486
aS'/pnfs/uboone/data/uboone/larcv_wholeview/prod_v08_00_00_01/data_extbnb_reco1_mcc9/extbnb_C2/00/00/74/66/larcv_wholeview_3715636c-bd59-4247-8c0f-56ba31c500f3.root'
p487
aS'/pnfs/uboone/data/uboone/larcv_wholeview/prod_v08_00_00_01/data_extbnb_reco1_mcc9/extbnb_C2/00/00/74/00/larcv_wholeview_0c933756-0967-4aa6-ae65-54acb9dc1810.root'
p488
aS'/pnfs/uboone/data/uboone/larcv_wholeview/prod_v08_00_00_01/data_extbnb_reco1_mcc9/extbnb_C2/00/00/74/20/larcv_wholeview_12a92f63-1052-4f71-8140-879eaa1e474e.root'
p489
aS'/pnfs/uboone/data/uboone/larcv_wholeview/prod_v08_00_00_01/data_extbnb_reco1_mcc9/extbnb_C2/00/00/73/93/larcv_wholeview_16c97e57-64ad-4da1-8684-f8bbaa3aebec.root'
p490
aS'/pnfs/uboone/data/uboone/larcv_wholeview/prod_v08_00_00_01/data_extbnb_reco1_mcc9/extbnb_C2/00/00/74/58/larcv_wholeview_2dd5159a-f91d-427f-ac52-acb448247d27.root'
p491
aS'/pnfs/uboone/data/uboone/larcv_wholeview/prod_v08_00_00_01/data_extbnb_reco1_mcc9/extbnb_C2/00/00/74/66/larcv_wholeview_1095b9f5-741e-4941-a508-28ce73efe749.root'
p492
aS'/pnfs/uboone/data/uboone/larcv_wholeview/prod_v08_00_00_01/data_extbnb_reco1_mcc9/extbnb_C2/00/00/74/66/larcv_wholeview_564a6895-e457-46c8-bafa-5829fc9d8d45.root'
p493
aS'/pnfs/uboone/data/uboone/larcv_wholeview/prod_v08_00_00_01/data_extbnb_reco1_mcc9/extbnb_C2/00/00/73/49/larcv_wholeview_9204e49f-aa23-4558-b440-92bb0aadff43.root'
p494
aS'/pnfs/uboone/data/uboone/larcv_wholeview/prod_v08_00_00_01/data_extbnb_reco1_mcc9/extbnb_C2/00/00/74/63/larcv_wholeview_4a63b7e0-0b6d-4300-a2ab-6ca8366af99e.root'
p495
aS'/pnfs/uboone/data/uboone/larcv_wholeview/prod_v08_00_00_01/data_extbnb_reco1_mcc9/extbnb_C2/00/00/74/00/larcv_wholeview_f5f41ac6-736f-4698-abfd-e0c676588af5.root'
p496
aS'/pnfs/uboone/data/uboone/larcv_wholeview/prod_v08_00_00_01/data_extbnb_reco1_mcc9/extbnb_C2/00/00/73/93/larcv_wholeview_44e2e9db-7084-4509-bd91-d14765b9fb20.root'
p497
aS'/pnfs/uboone/data/uboone/larcv_wholeview/prod_v08_00_00_01/data_extbnb_reco1_mcc9/extbnb_C2/00/00/74/61/larcv_wholeview_a76bf6ff-a3c6-4752-ac82-05a66082611d.root'
p498
aS'/pnfs/uboone/data/uboone/larcv_wholeview/prod_v08_00_00_01/data_extbnb_reco1_mcc9/extbnb_C2/00/00/74/71/larcv_wholeview_6b9aefe5-1b73-4fb6-b882-0f1a8f117f0c.root'
p499
aS'/pnfs/uboone/data/uboone/larcv_wholeview/prod_v08_00_00_01/data_extbnb_reco1_mcc9/extbnb_C2/00/00/74/59/larcv_wholeview_5bbf16b8-c7f6-4f46-a9be-8ab5cae282c2.root'
p500
aS'/pnfs/uboone/data/uboone/larcv_wholeview/prod_v08_00_00_01/data_extbnb_reco1_mcc9/extbnb_C2/00/00/74/61/larcv_wholeview_8a66b555-4c26-459c-a754-9af0304a2064.root'
p501
aS'/pnfs/uboone/data/uboone/larcv_wholeview/prod_v08_00_00_01/data_extbnb_reco1_mcc9/extbnb_C2/00/00/74/69/larcv_wholeview_1b360457-aa23-4d99-97e4-4994667fc11c.root'
p502
aS'/pnfs/uboone/data/uboone/larcv_wholeview/prod_v08_00_00_01/data_extbnb_reco1_mcc9/extbnb_C2/00/00/73/91/larcv_wholeview_e930a485-c12e-4ac5-a414-94b84dc6c9e4.root'
p503
aS'/pnfs/uboone/data/uboone/larcv_wholeview/prod_v08_00_00_01/data_extbnb_reco1_mcc9/extbnb_C2/00/00/74/66/larcv_wholeview_b1e1d470-f97a-48e8-85d3-f21da13eca19.root'
p504
aS'/pnfs/uboone/data/uboone/larcv_wholeview/prod_v08_00_00_01/data_extbnb_reco1_mcc9/extbnb_C2/00/00/74/66/larcv_wholeview_ccf909c4-4dab-4bfc-9e99-92bc53b44d95.root'
p505
aS'/pnfs/uboone/data/uboone/larcv_wholeview/prod_v08_00_00_01/data_extbnb_reco1_mcc9/extbnb_C2/00/00/74/00/larcv_wholeview_e9d797ff-3104-447d-9f2f-e01a9f846573.root'
p506
aS'/pnfs/uboone/data/uboone/larcv_wholeview/prod_v08_00_00_01/data_extbnb_reco1_mcc9/extbnb_C2/00/00/74/61/larcv_wholeview_d3b16618-d2fe-42ce-8d74-b46441824a94.root'
p507
aS'/pnfs/uboone/data/uboone/larcv_wholeview/prod_v08_00_00_01/data_extbnb_reco1_mcc9/extbnb_C2/00/00/74/20/larcv_wholeview_476039b9-9afc-44ca-96a3-71a0a667cb42.root'
p508
aS'/pnfs/uboone/data/uboone/larcv_wholeview/prod_v08_00_00_01/data_extbnb_reco1_mcc9/extbnb_C2/00/00/73/93/larcv_wholeview_1024b9c5-ff6e-47ca-a871-d658d5b5aa23.root'
p509
aS'/pnfs/uboone/data/uboone/larcv_wholeview/prod_v08_00_00_01/data_extbnb_reco1_mcc9/extbnb_C2/00/00/74/66/larcv_wholeview_385fa688-02b4-4481-a6b0-206b0c78922a.root'
p510
aS'/pnfs/uboone/data/uboone/larcv_wholeview/prod_v08_00_00_01/data_extbnb_reco1_mcc9/extbnb_C2/00/00/74/66/larcv_wholeview_9f9c9a34-cdfa-4f57-a1c5-4eef7644a627.root'
p511
aS'/pnfs/uboone/data/uboone/larcv_wholeview/prod_v08_00_00_01/data_extbnb_reco1_mcc9/extbnb_C2/00/00/74/69/larcv_wholeview_00bfb083-2488-40eb-be1e-d705001c5250.root'
p512
aS'/pnfs/uboone/data/uboone/larcv_wholeview/prod_v08_00_00_01/data_extbnb_reco1_mcc9/extbnb_C2/00/00/73/91/larcv_wholeview_878aa086-6575-4658-8bae-a1786a92bba3.root'
p513
aS'/pnfs/uboone/data/uboone/larcv_wholeview/prod_v08_00_00_01/data_extbnb_reco1_mcc9/extbnb_C2/00/00/74/71/larcv_wholeview_2924fcbc-47df-46b9-b4f9-67970ec975f8.root'
p514
aS'/pnfs/uboone/data/uboone/larcv_wholeview/prod_v08_00_00_01/data_extbnb_reco1_mcc9/extbnb_C2/00/00/74/69/larcv_wholeview_afb243c8-da04-4902-8cf9-6eb058c9a10d.root'
p515
aS'/pnfs/uboone/data/uboone/larcv_wholeview/prod_v08_00_00_01/data_extbnb_reco1_mcc9/extbnb_C2/00/00/74/66/larcv_wholeview_f1699c69-ce45-4b98-bb5d-98c92534fa12.root'
p516
aS'/pnfs/uboone/data/uboone/larcv_wholeview/prod_v08_00_00_01/data_extbnb_reco1_mcc9/extbnb_C2/00/00/73/91/larcv_wholeview_7f627b7d-7bf5-426f-8db2-470325825afe.root'
p517
aS'/pnfs/uboone/data/uboone/larcv_wholeview/prod_v08_00_00_01/data_extbnb_reco1_mcc9/extbnb_C2/00/00/74/66/larcv_wholeview_0d381c76-42b1-4fbd-915b-618fb8a6a69e.root'
p518
aS'/pnfs/uboone/data/uboone/larcv_wholeview/prod_v08_00_00_01/data_extbnb_reco1_mcc9/extbnb_C2/00/00/74/58/larcv_wholeview_e20f2eb9-08b1-4f91-932b-ac073ccdccf2.root'
p519
aS'/pnfs/uboone/data/uboone/larcv_wholeview/prod_v08_00_00_01/data_extbnb_reco1_mcc9/extbnb_C2/00/00/74/57/larcv_wholeview_56d8549e-f721-4246-b1b8-cf3ae6558379.root'
p520
aS'/pnfs/uboone/data/uboone/larcv_wholeview/prod_v08_00_00_01/data_extbnb_reco1_mcc9/extbnb_C2/00/00/74/71/larcv_wholeview_9cdfbdf1-012d-4c4b-8fe2-e8eca20314d6.root'
p521
aS'/pnfs/uboone/data/uboone/larcv_wholeview/prod_v08_00_00_01/data_extbnb_reco1_mcc9/extbnb_C2/00/00/74/36/larcv_wholeview_c28fa010-9b16-4a0a-a87e-776073400649.root'
p522
aS'/pnfs/uboone/data/uboone/larcv_wholeview/prod_v08_00_00_01/data_extbnb_reco1_mcc9/extbnb_C2/00/00/74/66/larcv_wholeview_d737dd6c-a60a-484b-8fcd-6abc7346bb27.root'
p523
aS'/pnfs/uboone/data/uboone/larcv_wholeview/prod_v08_00_00_01/data_extbnb_reco1_mcc9/extbnb_C2/00/00/74/59/larcv_wholeview_3bac1006-1cd3-4f1e-908e-453755b08ea3.root'
p524
aS'/pnfs/uboone/data/uboone/larcv_wholeview/prod_v08_00_00_01/data_extbnb_reco1_mcc9/extbnb_C2/00/00/73/98/larcv_wholeview_afdea2c7-f7b0-4b77-843c-f95cf6f60290.root'
p525
aS'/pnfs/uboone/data/uboone/larcv_wholeview/prod_v08_00_00_01/data_extbnb_reco1_mcc9/extbnb_C2/00/00/73/97/larcv_wholeview_cb5eb4f9-843b-4530-9d85-b9cf287baf2a.root'
p526
aS'/pnfs/uboone/data/uboone/larcv_wholeview/prod_v08_00_00_01/data_extbnb_reco1_mcc9/extbnb_C2/00/00/74/62/larcv_wholeview_9e0c032c-b6a1-4db9-83a6-22c5ba595b69.root'
p527
aS'/pnfs/uboone/data/uboone/larcv_wholeview/prod_v08_00_00_01/data_extbnb_reco1_mcc9/extbnb_C2/00/00/74/66/larcv_wholeview_0fe2c17a-3e13-488f-99d1-ccb4b26fd91a.root'
p528
aS'/pnfs/uboone/data/uboone/larcv_wholeview/prod_v08_00_00_01/data_extbnb_reco1_mcc9/extbnb_C2/00/00/73/50/larcv_wholeview_6cb4544d-9621-461b-8283-7513bf26cf23.root'
p529
aS'/pnfs/uboone/data/uboone/larcv_wholeview/prod_v08_00_00_01/data_extbnb_reco1_mcc9/extbnb_C2/00/00/74/66/larcv_wholeview_32ad9812-3b1f-45f7-aec0-d85a7548d1b2.root'
p530
aS'/pnfs/uboone/data/uboone/larcv_wholeview/prod_v08_00_00_01/data_extbnb_reco1_mcc9/extbnb_C2/00/00/74/66/larcv_wholeview_193b1eae-85b0-43a1-a138-dedb24db4f58.root'
p531
aS'/pnfs/uboone/data/uboone/larcv_wholeview/prod_v08_00_00_01/data_extbnb_reco1_mcc9/extbnb_C2/00/00/73/98/larcv_wholeview_d3a655f0-a865-49db-86a8-e14207d77610.root'
p532
aS'/pnfs/uboone/data/uboone/larcv_wholeview/prod_v08_00_00_01/data_extbnb_reco1_mcc9/extbnb_C2/00/00/74/69/larcv_wholeview_32761f06-fc9e-49a5-819f-37e791bf69af.root'
p533
aS'/pnfs/uboone/data/uboone/larcv_wholeview/prod_v08_00_00_01/data_extbnb_reco1_mcc9/extbnb_C2/00/00/74/61/larcv_wholeview_b8978215-cb82-4cd5-86e8-f03fd694aaa8.root'
p534
aS'/pnfs/uboone/data/uboone/larcv_wholeview/prod_v08_00_00_01/data_extbnb_reco1_mcc9/extbnb_C2/00/00/74/69/larcv_wholeview_46cb6909-a9c6-4054-a41f-e66c57a59d3b.root'
p535
aS'/pnfs/uboone/data/uboone/larcv_wholeview/prod_v08_00_00_01/data_extbnb_reco1_mcc9/extbnb_C2/00/00/74/66/larcv_wholeview_516cbc3c-e021-413b-bbb8-a336a9674a96.root'
p536
aS'/pnfs/uboone/data/uboone/larcv_wholeview/prod_v08_00_00_01/data_extbnb_reco1_mcc9/extbnb_C2/00/00/74/59/larcv_wholeview_dde78428-cb8f-46a7-a16a-4576193264de.root'
p537
aS'/pnfs/uboone/data/uboone/larcv_wholeview/prod_v08_00_00_01/data_extbnb_reco1_mcc9/extbnb_C2/00/00/74/66/larcv_wholeview_6bc80945-9d8c-47ee-9161-df8dc46f55fd.root'
p538
aS'/pnfs/uboone/data/uboone/larcv_wholeview/prod_v08_00_00_01/data_extbnb_reco1_mcc9/extbnb_C2/00/00/74/61/larcv_wholeview_50f42f85-ec00-4082-96c8-52a3e7b1583c.root'
p539
aS'/pnfs/uboone/data/uboone/larcv_wholeview/prod_v08_00_00_01/data_extbnb_reco1_mcc9/extbnb_C2/00/00/74/61/larcv_wholeview_8016ccfd-a984-47ea-a4e1-86e1ef3a9062.root'
p540
aS'/pnfs/uboone/data/uboone/larcv_wholeview/prod_v08_00_00_01/data_extbnb_reco1_mcc9/extbnb_C2/00/00/74/61/larcv_wholeview_1568e85e-e630-4d55-9c0b-ef47e2e45ebb.root'
p541
aS'/pnfs/uboone/data/uboone/larcv_wholeview/prod_v08_00_00_01/data_extbnb_reco1_mcc9/extbnb_C2/00/00/74/58/larcv_wholeview_2988cffd-89c9-4d92-912f-834288e428bb.root'
p542
aS'/pnfs/uboone/data/uboone/larcv_wholeview/prod_v08_00_00_01/data_extbnb_reco1_mcc9/extbnb_C2/00/00/73/98/larcv_wholeview_5105dfe6-5e6e-47d8-af48-b817f4b719ff.root'
p543
aS'/pnfs/uboone/data/uboone/larcv_wholeview/prod_v08_00_00_01/data_extbnb_reco1_mcc9/extbnb_C2/00/00/73/91/larcv_wholeview_92ec6e33-04c9-4764-99ba-f023a83c7fbc.root'
p544
aS'/pnfs/uboone/data/uboone/larcv_wholeview/prod_v08_00_00_01/data_extbnb_reco1_mcc9/extbnb_C2/00/00/74/64/larcv_wholeview_2bb0453d-bfd8-48dd-817f-c32486b6ecbe.root'
p545
aS'/pnfs/uboone/data/uboone/larcv_wholeview/prod_v08_00_00_01/data_extbnb_reco1_mcc9/extbnb_C2/00/00/74/57/larcv_wholeview_20af3d59-b45b-44f3-aa40-0dccb80c8159.root'
p546
aS'/pnfs/uboone/data/uboone/larcv_wholeview/prod_v08_00_00_01/data_extbnb_reco1_mcc9/extbnb_C2/00/00/74/66/larcv_wholeview_7ad0d5e4-00a5-4c95-a276-a5ed0b585530.root'
p547
aS'/pnfs/uboone/data/uboone/larcv_wholeview/prod_v08_00_00_01/data_extbnb_reco1_mcc9/extbnb_C2/00/00/74/03/larcv_wholeview_987daf83-b78c-47a3-a58f-7c7933411bed.root'
p548
aS'/pnfs/uboone/data/uboone/larcv_wholeview/prod_v08_00_00_01/data_extbnb_reco1_mcc9/extbnb_C2/00/00/74/66/larcv_wholeview_5053d172-5615-4514-ab87-6a10fa0e544a.root'
p549
aS'/pnfs/uboone/data/uboone/larcv_wholeview/prod_v08_00_00_01/data_extbnb_reco1_mcc9/extbnb_C2/00/00/74/58/larcv_wholeview_8ed3435b-4309-4275-8c5c-d7350c4843f3.root'
p550
aS'/pnfs/uboone/data/uboone/larcv_wholeview/prod_v08_00_00_01/data_extbnb_reco1_mcc9/extbnb_C2/00/00/74/57/larcv_wholeview_bf388e87-831b-43d2-9d2f-fb00b81998dc.root'
p551
aS'/pnfs/uboone/data/uboone/larcv_wholeview/prod_v08_00_00_01/data_extbnb_reco1_mcc9/extbnb_C2/00/00/73/97/larcv_wholeview_f127ef9d-7d7b-4cf7-a639-af00c7b83cc3.root'
p552
aS'/pnfs/uboone/data/uboone/larcv_wholeview/prod_v08_00_00_01/data_extbnb_reco1_mcc9/extbnb_C2/00/00/74/73/larcv_wholeview_5ca5419d-f8e9-4afa-996f-47d3b4e11819.root'
p553
aS'/pnfs/uboone/data/uboone/larcv_wholeview/prod_v08_00_00_01/data_extbnb_reco1_mcc9/extbnb_C2/00/00/74/19/larcv_wholeview_12cef426-85f1-4b78-be1f-1a8b9de3bf0b.root'
p554
aS'/pnfs/uboone/data/uboone/larcv_wholeview/prod_v08_00_00_01/data_extbnb_reco1_mcc9/extbnb_C2/00/00/74/66/larcv_wholeview_8855b0ec-7c0c-473e-be37-032de6923344.root'
p555
aS'/pnfs/uboone/data/uboone/larcv_wholeview/prod_v08_00_00_01/data_extbnb_reco1_mcc9/extbnb_C2/00/00/74/66/larcv_wholeview_6925af96-238f-45d5-9b91-cb707130e804.root'
p556
aS'/pnfs/uboone/data/uboone/larcv_wholeview/prod_v08_00_00_01/data_extbnb_reco1_mcc9/extbnb_C2/00/00/74/03/larcv_wholeview_9ad99321-422e-46cf-ad94-bf139f14da25.root'
p557
aS'/pnfs/uboone/data/uboone/larcv_wholeview/prod_v08_00_00_01/data_extbnb_reco1_mcc9/extbnb_C2/00/00/74/66/larcv_wholeview_ee888a75-4677-44ee-9ecd-9afc5b391396.root'
p558
aS'/pnfs/uboone/data/uboone/larcv_wholeview/prod_v08_00_00_01/data_extbnb_reco1_mcc9/extbnb_C2/00/00/74/71/larcv_wholeview_0746baea-e9f3-44d5-81ef-4434a8cabdbc.root'
p559
aS'/pnfs/uboone/data/uboone/larcv_wholeview/prod_v08_00_00_01/data_extbnb_reco1_mcc9/extbnb_C2/00/00/73/98/larcv_wholeview_c2c84cf5-e620-479c-a5cd-92b93452532e.root'
p560
aS'/pnfs/uboone/data/uboone/larcv_wholeview/prod_v08_00_00_01/data_extbnb_reco1_mcc9/extbnb_C2/00/00/73/98/larcv_wholeview_8fa85d77-4139-4830-9928-7292c436b6a5.root'
p561
aS'/pnfs/uboone/data/uboone/larcv_wholeview/prod_v08_00_00_01/data_extbnb_reco1_mcc9/extbnb_C2/00/00/74/03/larcv_wholeview_9c1840be-00f5-46fd-9201-0f97a02a4456.root'
p562
aS'/pnfs/uboone/data/uboone/larcv_wholeview/prod_v08_00_00_01/data_extbnb_reco1_mcc9/extbnb_C2/00/00/74/59/larcv_wholeview_2b8e62b8-28f2-4e9a-9aae-cd76dfa6eb37.root'
p563
aS'/pnfs/uboone/data/uboone/larcv_wholeview/prod_v08_00_00_01/data_extbnb_reco1_mcc9/extbnb_C2/00/00/74/61/larcv_wholeview_f2b1f71b-6012-4928-b794-dcc8e81efffd.root'
p564
aS'/pnfs/uboone/data/uboone/larcv_wholeview/prod_v08_00_00_01/data_extbnb_reco1_mcc9/extbnb_C2/00/00/73/98/larcv_wholeview_c92c3104-3beb-4b7d-b732-04561365fbec.root'
p565
aS'/pnfs/uboone/data/uboone/larcv_wholeview/prod_v08_00_00_01/data_extbnb_reco1_mcc9/extbnb_C2/00/00/74/21/larcv_wholeview_665a2622-f0b5-4a3f-9c93-5d9cc26dbbd4.root'
p566
aS'/pnfs/uboone/data/uboone/larcv_wholeview/prod_v08_00_00_01/data_extbnb_reco1_mcc9/extbnb_C2/00/00/74/61/larcv_wholeview_5938ccfa-bdf5-445d-bb96-280ea87adfe8.root'
p567
aS'/pnfs/uboone/data/uboone/larcv_wholeview/prod_v08_00_00_01/data_extbnb_reco1_mcc9/extbnb_C2/00/00/74/66/larcv_wholeview_81a437ae-7e7a-4f94-8452-ed9ef4f647d5.root'
p568
aS'/pnfs/uboone/data/uboone/larcv_wholeview/prod_v08_00_00_01/data_extbnb_reco1_mcc9/extbnb_C2/00/00/74/71/larcv_wholeview_ad6df9d6-d0ba-45c1-af2d-231a3c3bf972.root'
p569
aS'/pnfs/uboone/data/uboone/larcv_wholeview/prod_v08_00_00_01/data_extbnb_reco1_mcc9/extbnb_C2/00/00/74/61/larcv_wholeview_366a5ac5-46e8-4a5c-bd22-288573ab9d09.root'
p570
aS'/pnfs/uboone/data/uboone/larcv_wholeview/prod_v08_00_00_01/data_extbnb_reco1_mcc9/extbnb_C2/00/00/74/65/larcv_wholeview_4a9dfbe1-0d03-4501-b312-50d351807372.root'
p571
aS'/pnfs/uboone/data/uboone/larcv_wholeview/prod_v08_00_00_01/data_extbnb_reco1_mcc9/extbnb_C2/00/00/74/73/larcv_wholeview_96d9be76-d69e-4c42-a630-53adf3dd92e8.root'
p572
aS'/pnfs/uboone/data/uboone/larcv_wholeview/prod_v08_00_00_01/data_extbnb_reco1_mcc9/extbnb_C2/00/00/74/58/larcv_wholeview_e69ef1f5-9628-4eae-9280-20bd26a97932.root'
p573
aS'/pnfs/uboone/data/uboone/larcv_wholeview/prod_v08_00_00_01/data_extbnb_reco1_mcc9/extbnb_C2/00/00/73/92/larcv_wholeview_397edea4-7acc-4241-a40c-b0db53dc0552.root'
p574
aS'/pnfs/uboone/data/uboone/larcv_wholeview/prod_v08_00_00_01/data_extbnb_reco1_mcc9/extbnb_C2/00/00/74/66/larcv_wholeview_32a7e93f-4a98-4936-a69d-248ec9bca09f.root'
p575
aS'/pnfs/uboone/data/uboone/larcv_wholeview/prod_v08_00_00_01/data_extbnb_reco1_mcc9/extbnb_C2/00/00/74/66/larcv_wholeview_52f981b5-e9c3-4b58-b751-326d2e7124b2.root'
p576
aS'/pnfs/uboone/data/uboone/larcv_wholeview/prod_v08_00_00_01/data_extbnb_reco1_mcc9/extbnb_C2/00/00/73/91/larcv_wholeview_bcae8e7b-f199-483a-b371-359e230cca2c.root'
p577
aS'/pnfs/uboone/data/uboone/larcv_wholeview/prod_v08_00_00_01/data_extbnb_reco1_mcc9/extbnb_C2/00/00/74/61/larcv_wholeview_86d3eebe-e19a-460f-bec1-e1c1ca9c41b3.root'
p578
aS'/pnfs/uboone/data/uboone/larcv_wholeview/prod_v08_00_00_01/data_extbnb_reco1_mcc9/extbnb_C2/00/00/74/00/larcv_wholeview_928d1c7b-0171-454d-bfc0-e1b11134e80e.root'
p579
aS'/pnfs/uboone/data/uboone/larcv_wholeview/prod_v08_00_00_01/data_extbnb_reco1_mcc9/extbnb_C2/00/00/74/00/larcv_wholeview_e3da9c9c-dc3f-43f6-81bb-366579dbe3ea.root'
p580
aS'/pnfs/uboone/data/uboone/larcv_wholeview/prod_v08_00_00_01/data_extbnb_reco1_mcc9/extbnb_C2/00/00/74/00/larcv_wholeview_04a4cb53-b55b-4041-8183-f6ea29a83463.root'
p581
aS'/pnfs/uboone/data/uboone/larcv_wholeview/prod_v08_00_00_01/data_extbnb_reco1_mcc9/extbnb_C2/00/00/74/66/larcv_wholeview_d5a7b4a5-ca5a-4b74-bd96-5016c2efcbb3.root'
p582
aS'/pnfs/uboone/data/uboone/larcv_wholeview/prod_v08_00_00_01/data_extbnb_reco1_mcc9/extbnb_C2/00/00/74/66/larcv_wholeview_48c84c32-3149-48c3-a796-2f9092565fe3.root'
p583
aS'/pnfs/uboone/data/uboone/larcv_wholeview/prod_v08_00_00_01/data_extbnb_reco1_mcc9/extbnb_C2/00/00/74/66/larcv_wholeview_21242e1c-5943-4b15-a9a3-200f35df47ef.root'
p584
aS'/pnfs/uboone/data/uboone/larcv_wholeview/prod_v08_00_00_01/data_extbnb_reco1_mcc9/extbnb_C2/00/00/73/93/larcv_wholeview_51e9cd76-b7aa-4abc-9d1f-c054cd7a4df6.root'
p585
aS'/pnfs/uboone/data/uboone/larcv_wholeview/prod_v08_00_00_01/data_extbnb_reco1_mcc9/extbnb_C2/00/00/74/58/larcv_wholeview_d6af2e13-8b4a-4f47-af99-e14d95716511.root'
p586
aS'/pnfs/uboone/data/uboone/larcv_wholeview/prod_v08_00_00_01/data_extbnb_reco1_mcc9/extbnb_C2/00/00/74/73/larcv_wholeview_5e030f63-4e07-4283-bc31-8e1584a32075.root'
p587
aS'/pnfs/uboone/data/uboone/larcv_wholeview/prod_v08_00_00_01/data_extbnb_reco1_mcc9/extbnb_C2/00/00/74/55/larcv_wholeview_c7424101-3c10-4d50-83ce-5bd93b962bba.root'
p588
aS'/pnfs/uboone/data/uboone/larcv_wholeview/prod_v08_00_00_01/data_extbnb_reco1_mcc9/extbnb_C2/00/00/74/66/larcv_wholeview_0743e4aa-8060-4c30-a2a7-3aadcec561bc.root'
p589
aS'/pnfs/uboone/data/uboone/larcv_wholeview/prod_v08_00_00_01/data_extbnb_reco1_mcc9/extbnb_C2/00/00/73/93/larcv_wholeview_bba264ab-bd76-4663-926c-85ab22ba8b2d.root'
p590
aS'/pnfs/uboone/data/uboone/larcv_wholeview/prod_v08_00_00_01/data_extbnb_reco1_mcc9/extbnb_C2/00/00/74/73/larcv_wholeview_b721256d-2cee-4c51-99ae-d4d71ec57433.root'
p591
aS'/pnfs/uboone/data/uboone/larcv_wholeview/prod_v08_00_00_01/data_extbnb_reco1_mcc9/extbnb_C2/00/00/74/61/larcv_wholeview_cd463cbf-7ffd-41f2-a645-2fb4cdcbca4f.root'
p592
aS'/pnfs/uboone/data/uboone/larcv_wholeview/prod_v08_00_00_01/data_extbnb_reco1_mcc9/extbnb_C2/00/00/74/69/larcv_wholeview_999ebd63-6b41-452b-abae-ae3a4c50ec60.root'
p593
aS'/pnfs/uboone/data/uboone/larcv_wholeview/prod_v08_00_00_01/data_extbnb_reco1_mcc9/extbnb_C2/00/00/74/01/larcv_wholeview_6dbdb79f-c93f-47b6-a1c7-154bf5676804.root'
p594
aS'/pnfs/uboone/data/uboone/larcv_wholeview/prod_v08_00_00_01/data_extbnb_reco1_mcc9/extbnb_C2/00/00/73/93/larcv_wholeview_f188ab4d-bcbe-4d63-96c3-f0a455fa21a1.root'
p595
aS'/pnfs/uboone/data/uboone/larcv_wholeview/prod_v08_00_00_01/data_extbnb_reco1_mcc9/extbnb_C2/00/00/74/58/larcv_wholeview_33514df9-25b9-4c2a-a2ea-5828880dccde.root'
p596
aS'/pnfs/uboone/data/uboone/larcv_wholeview/prod_v08_00_00_01/data_extbnb_reco1_mcc9/extbnb_C2/00/00/74/65/larcv_wholeview_98d6e660-01bc-4649-b31b-378962b63915.root'
p597
aS'/pnfs/uboone/data/uboone/larcv_wholeview/prod_v08_00_00_01/data_extbnb_reco1_mcc9/extbnb_C2/00/00/74/65/larcv_wholeview_896e1e11-9d75-4a39-aec0-4e938a66edd5.root'
p598
aS'/pnfs/uboone/data/uboone/larcv_wholeview/prod_v08_00_00_01/data_extbnb_reco1_mcc9/extbnb_C2/00/00/73/97/larcv_wholeview_f926cee2-f15b-40f8-9fa3-82e1bb521e16.root'
p599
aS'/pnfs/uboone/data/uboone/larcv_wholeview/prod_v08_00_00_01/data_extbnb_reco1_mcc9/extbnb_C2/00/00/74/61/larcv_wholeview_50b873bb-2886-4c4f-b20e-6d81c3986f3e.root'
p600
aS'/pnfs/uboone/data/uboone/larcv_wholeview/prod_v08_00_00_01/data_extbnb_reco1_mcc9/extbnb_C2/00/00/73/98/larcv_wholeview_cdc15492-b71b-46af-a7f4-6f51e0474b47.root'
p601
aS'/pnfs/uboone/data/uboone/larcv_wholeview/prod_v08_00_00_01/data_extbnb_reco1_mcc9/extbnb_C2/00/00/74/18/larcv_wholeview_96bd09c5-56fa-430a-8b77-84ece7d04b11.root'
p602
aS'/pnfs/uboone/data/uboone/larcv_wholeview/prod_v08_00_00_01/data_extbnb_reco1_mcc9/extbnb_C2/00/00/74/20/larcv_wholeview_217744f7-77b6-454c-8f9a-8fd56b4d2d8b.root'
p603
aS'/pnfs/uboone/data/uboone/larcv_wholeview/prod_v08_00_00_01/data_extbnb_reco1_mcc9/extbnb_C2/00/00/73/93/larcv_wholeview_29980276-c3a4-4768-ada0-f7c75807f7c0.root'
p604
aS'/pnfs/uboone/data/uboone/larcv_wholeview/prod_v08_00_00_01/data_extbnb_reco1_mcc9/extbnb_C2/00/00/73/98/larcv_wholeview_401b1aaa-c5e5-46cc-afc1-b479e6473065.root'
p605
aS'/pnfs/uboone/data/uboone/larcv_wholeview/prod_v08_00_00_01/data_extbnb_reco1_mcc9/extbnb_C2/00/00/74/66/larcv_wholeview_afe9c533-ff17-4b7b-8caf-da9c71226345.root'
p606
aS'/pnfs/uboone/data/uboone/larcv_wholeview/prod_v08_00_00_01/data_extbnb_reco1_mcc9/extbnb_C2/00/00/74/66/larcv_wholeview_967cbece-9bd6-44b6-8555-84cba2f5c602.root'
p607
aS'/pnfs/uboone/data/uboone/larcv_wholeview/prod_v08_00_00_01/data_extbnb_reco1_mcc9/extbnb_C2/00/00/74/18/larcv_wholeview_80501f32-7e0b-42be-b91f-3acd8b228b9d.root'
p608
aS'/pnfs/uboone/data/uboone/larcv_wholeview/prod_v08_00_00_01/data_extbnb_reco1_mcc9/extbnb_C2/00/00/74/66/larcv_wholeview_0ad06909-4b93-49fe-912a-c89277967e91.root'
p609
aS'/pnfs/uboone/data/uboone/larcv_wholeview/prod_v08_00_00_01/data_extbnb_reco1_mcc9/extbnb_C2/00/00/73/93/larcv_wholeview_da8540c7-805c-4b76-ac5b-5800a4dd6fc0.root'
p610
aS'/pnfs/uboone/data/uboone/larcv_wholeview/prod_v08_00_00_01/data_extbnb_reco1_mcc9/extbnb_C2/00/00/73/93/larcv_wholeview_4dffa687-9393-4b1b-b6bd-3cc42dab74ff.root'
p611
aS'/pnfs/uboone/data/uboone/larcv_wholeview/prod_v08_00_00_01/data_extbnb_reco1_mcc9/extbnb_C2/00/00/74/61/larcv_wholeview_27681aec-d398-4ba8-80c6-6676244ab5cc.root'
p612
aS'/pnfs/uboone/data/uboone/larcv_wholeview/prod_v08_00_00_01/data_extbnb_reco1_mcc9/extbnb_C2/00/00/74/00/larcv_wholeview_81e91cd6-67ae-4641-9b30-05474da1c40e.root'
p613
aS'/pnfs/uboone/data/uboone/larcv_wholeview/prod_v08_00_00_01/data_extbnb_reco1_mcc9/extbnb_C2/00/00/74/69/larcv_wholeview_5e09935b-d57a-4a53-8923-753ad8ee9884.root'
p614
aS'/pnfs/uboone/data/uboone/larcv_wholeview/prod_v08_00_00_01/data_extbnb_reco1_mcc9/extbnb_C2/00/00/74/66/larcv_wholeview_6cba0c8f-0693-4e55-9d51-b9475de15c0b.root'
p615
aS'/pnfs/uboone/data/uboone/larcv_wholeview/prod_v08_00_00_01/data_extbnb_reco1_mcc9/extbnb_C2/00/00/73/92/larcv_wholeview_4e1bc8d8-d363-4507-810d-a557fd121724.root'
p616
aS'/pnfs/uboone/data/uboone/larcv_wholeview/prod_v08_00_00_01/data_extbnb_reco1_mcc9/extbnb_C2/00/00/74/00/larcv_wholeview_40e30b09-4166-4185-8b72-66427446fc09.root'
p617
aS'/pnfs/uboone/data/uboone/larcv_wholeview/prod_v08_00_00_01/data_extbnb_reco1_mcc9/extbnb_C2/00/00/74/66/larcv_wholeview_35f0f840-a4c8-4009-bb66-4cdc158a2c72.root'
p618
aS'/pnfs/uboone/data/uboone/larcv_wholeview/prod_v08_00_00_01/data_extbnb_reco1_mcc9/extbnb_C2/00/00/74/66/larcv_wholeview_6570c5af-d890-44b6-9e1f-0f29093cf906.root'
p619
aS'/pnfs/uboone/data/uboone/larcv_wholeview/prod_v08_00_00_01/data_extbnb_reco1_mcc9/extbnb_C2/00/00/74/61/larcv_wholeview_dd4cdd8d-155a-4628-9376-7a32c8c8049d.root'
p620
aS'/pnfs/uboone/data/uboone/larcv_wholeview/prod_v08_00_00_01/data_extbnb_reco1_mcc9/extbnb_C2/00/00/74/20/larcv_wholeview_445a607f-004b-42fe-95c1-28c63cf84fc5.root'
p621
aS'/pnfs/uboone/data/uboone/larcv_wholeview/prod_v08_00_00_01/data_extbnb_reco1_mcc9/extbnb_C2/00/00/73/93/larcv_wholeview_4f7cd94a-faf5-41b0-821a-49a8e8dd0e0d.root'
p622
aS'/pnfs/uboone/data/uboone/larcv_wholeview/prod_v08_00_00_01/data_extbnb_reco1_mcc9/extbnb_C2/00/00/74/66/larcv_wholeview_6779a9f2-e3c5-42e6-a6c9-9bbc629841a3.root'
p623
aS'/pnfs/uboone/data/uboone/larcv_wholeview/prod_v08_00_00_01/data_extbnb_reco1_mcc9/extbnb_C2/00/00/74/74/larcv_wholeview_62bbfe2b-9594-4711-9171-af7f3f1475be.root'
p624
aS'/pnfs/uboone/data/uboone/larcv_wholeview/prod_v08_00_00_01/data_extbnb_reco1_mcc9/extbnb_C2/00/00/74/00/larcv_wholeview_559e6ff7-6d3d-4bee-aff5-dd0e9c217804.root'
p625
aS'/pnfs/uboone/data/uboone/larcv_wholeview/prod_v08_00_00_01/data_extbnb_reco1_mcc9/extbnb_C2/00/00/74/62/larcv_wholeview_63865933-b334-4613-b303-3c79a57526b4.root'
p626
aS'/pnfs/uboone/data/uboone/larcv_wholeview/prod_v08_00_00_01/data_extbnb_reco1_mcc9/extbnb_C2/00/00/74/41/larcv_wholeview_e29cb0cf-aad2-4b7c-84c4-71527e30c8bc.root'
p627
aS'/pnfs/uboone/data/uboone/larcv_wholeview/prod_v08_00_00_01/data_extbnb_reco1_mcc9/extbnb_C2/00/00/74/65/larcv_wholeview_45ee22d5-ffb3-480c-b7d6-0dc6b190d498.root'
p628
aS'/pnfs/uboone/data/uboone/larcv_wholeview/prod_v08_00_00_01/data_extbnb_reco1_mcc9/extbnb_C2/00/00/74/00/larcv_wholeview_31b44e2f-09db-41f5-8102-16a734836021.root'
p629
aS'/pnfs/uboone/data/uboone/larcv_wholeview/prod_v08_00_00_01/data_extbnb_reco1_mcc9/extbnb_C2/00/00/74/61/larcv_wholeview_895ed92b-616e-4955-abe3-9eb7b527060f.root'
p630
aS'/pnfs/uboone/data/uboone/larcv_wholeview/prod_v08_00_00_01/data_extbnb_reco1_mcc9/extbnb_C2/00/00/74/42/larcv_wholeview_9dd67a38-eb8d-43a9-bcdf-5625af8b1452.root'
p631
aS'/pnfs/uboone/data/uboone/larcv_wholeview/prod_v08_00_00_01/data_extbnb_reco1_mcc9/extbnb_C2/00/00/74/59/larcv_wholeview_7c82cf96-bc1c-4b43-9d67-5e3c1a82f080.root'
p632
aS'/pnfs/uboone/data/uboone/larcv_wholeview/prod_v08_00_00_01/data_extbnb_reco1_mcc9/extbnb_C2/00/00/74/59/larcv_wholeview_231db463-c711-4c84-bcdc-2ee69dc5f093.root'
p633
aS'/pnfs/uboone/data/uboone/larcv_wholeview/prod_v08_00_00_01/data_extbnb_reco1_mcc9/extbnb_C2/00/00/74/66/larcv_wholeview_eb4777b4-31b2-424c-88ab-b327335cc533.root'
p634
aS'/pnfs/uboone/data/uboone/larcv_wholeview/prod_v08_00_00_01/data_extbnb_reco1_mcc9/extbnb_C2/00/00/74/66/larcv_wholeview_ad52c1a9-010a-44f9-9518-7bd55f1e4daf.root'
p635
aS'/pnfs/uboone/data/uboone/larcv_wholeview/prod_v08_00_00_01/data_extbnb_reco1_mcc9/extbnb_C2/00/00/73/91/larcv_wholeview_fb0f0e06-d28d-470e-ad46-af7933d3f9b4.root'
p636
aS'/pnfs/uboone/data/uboone/larcv_wholeview/prod_v08_00_00_01/data_extbnb_reco1_mcc9/extbnb_C2/00/00/74/69/larcv_wholeview_816ea1a6-a71d-468a-9ae1-fc2f8fff25d6.root'
p637
aS'/pnfs/uboone/data/uboone/larcv_wholeview/prod_v08_00_00_01/data_extbnb_reco1_mcc9/extbnb_C2/00/00/74/61/larcv_wholeview_c072753b-f36c-49cc-8c89-729250097dab.root'
p638
aS'/pnfs/uboone/data/uboone/larcv_wholeview/prod_v08_00_00_01/data_extbnb_reco1_mcc9/extbnb_C2/00/00/74/61/larcv_wholeview_dedfcaae-a0f9-45a4-bbe0-b37ebfdfa942.root'
p639
aS'/pnfs/uboone/data/uboone/larcv_wholeview/prod_v08_00_00_01/data_extbnb_reco1_mcc9/extbnb_C2/00/00/74/66/larcv_wholeview_a50613bb-0778-49df-afe2-c7df993039ae.root'
p640
aS'/pnfs/uboone/data/uboone/larcv_wholeview/prod_v08_00_00_01/data_extbnb_reco1_mcc9/extbnb_C2/00/00/74/66/larcv_wholeview_38f194e4-d1da-4d57-afb7-1728487a7a25.root'
p641
aS'/pnfs/uboone/data/uboone/larcv_wholeview/prod_v08_00_00_01/data_extbnb_reco1_mcc9/extbnb_C2/00/00/74/00/larcv_wholeview_7ccc1f61-e94c-41f2-a65c-bd239e0c52cd.root'
p642
aS'/pnfs/uboone/data/uboone/larcv_wholeview/prod_v08_00_00_01/data_extbnb_reco1_mcc9/extbnb_C2/00/00/74/03/larcv_wholeview_9342deea-3aa1-4714-900d-4dab75089767.root'
p643
aS'/pnfs/uboone/data/uboone/larcv_wholeview/prod_v08_00_00_01/data_extbnb_reco1_mcc9/extbnb_C2/00/00/73/93/larcv_wholeview_814517a5-1a25-411f-ae12-253448a509f0.root'
p644
aS'/pnfs/uboone/data/uboone/larcv_wholeview/prod_v08_00_00_01/data_extbnb_reco1_mcc9/extbnb_C2/00/00/73/97/larcv_wholeview_9a4e1cce-ede2-4f15-a561-55fba4898ef7.root'
p645
aS'/pnfs/uboone/data/uboone/larcv_wholeview/prod_v08_00_00_01/data_extbnb_reco1_mcc9/extbnb_C2/00/00/74/66/larcv_wholeview_6ff6e8c0-edf3-4e5b-be79-bf021582d717.root'
p646
aS'/pnfs/uboone/data/uboone/larcv_wholeview/prod_v08_00_00_01/data_extbnb_reco1_mcc9/extbnb_C2/00/00/74/65/larcv_wholeview_ccc0c6f1-5f5b-4c6f-b418-50c42c8038b7.root'
p647
aS'/pnfs/uboone/data/uboone/larcv_wholeview/prod_v08_00_00_01/data_extbnb_reco1_mcc9/extbnb_C2/00/00/73/98/larcv_wholeview_eebc3264-548c-4a3d-9daa-60efabb22ff5.root'
p648
aS'/pnfs/uboone/data/uboone/larcv_wholeview/prod_v08_00_00_01/data_extbnb_reco1_mcc9/extbnb_C2/00/00/74/73/larcv_wholeview_b5c738eb-8ca8-4231-a336-939d5ec7ad4c.root'
p649
aS'/pnfs/uboone/data/uboone/larcv_wholeview/prod_v08_00_00_01/data_extbnb_reco1_mcc9/extbnb_C2/00/00/74/63/larcv_wholeview_5c512f03-999c-4981-be38-852243cfe9ea.root'
p650
aS'/pnfs/uboone/data/uboone/larcv_wholeview/prod_v08_00_00_01/data_extbnb_reco1_mcc9/extbnb_C2/00/00/73/98/larcv_wholeview_83b1fda3-79ad-4461-a0ae-1082789977e4.root'
p651
aS'/pnfs/uboone/data/uboone/larcv_wholeview/prod_v08_00_00_01/data_extbnb_reco1_mcc9/extbnb_C2/00/00/74/18/larcv_wholeview_4b9de186-0cb6-430f-acb8-64a89f87ff05.root'
p652
aS'/pnfs/uboone/data/uboone/larcv_wholeview/prod_v08_00_00_01/data_extbnb_reco1_mcc9/extbnb_C2/00/00/74/00/larcv_wholeview_ad96b6c2-9c3f-4e76-a11e-4046cd149e5f.root'
p653
aS'/pnfs/uboone/data/uboone/larcv_wholeview/prod_v08_00_00_01/data_extbnb_reco1_mcc9/extbnb_C2/00/00/74/61/larcv_wholeview_3197d893-2aa8-4938-8b76-98ad818c6ce3.root'
p654
aS'/pnfs/uboone/data/uboone/larcv_wholeview/prod_v08_00_00_01/data_extbnb_reco1_mcc9/extbnb_C2/00/00/74/59/larcv_wholeview_a331514c-ce41-4ddb-9602-c3fa2fd0cf48.root'
p655
aS'/pnfs/uboone/data/uboone/larcv_wholeview/prod_v08_00_00_01/data_extbnb_reco1_mcc9/extbnb_C2/00/00/74/69/larcv_wholeview_c3bc8bf1-6ea7-451c-8aab-0f0a5bfc79ac.root'
p656
aS'/pnfs/uboone/data/uboone/larcv_wholeview/prod_v08_00_00_01/data_extbnb_reco1_mcc9/extbnb_C2/00/00/74/69/larcv_wholeview_62199a05-19ac-4cca-b87d-cedafdd8fe2b.root'
p657
aS'/pnfs/uboone/data/uboone/larcv_wholeview/prod_v08_00_00_01/data_extbnb_reco1_mcc9/extbnb_C2/00/00/74/61/larcv_wholeview_f20d93aa-0d2c-4ab6-9d4a-7b1402f387da.root'
p658
aS'/pnfs/uboone/data/uboone/larcv_wholeview/prod_v08_00_00_01/data_extbnb_reco1_mcc9/extbnb_C2/00/00/74/70/larcv_wholeview_c5dc9b78-2694-44f4-a70f-3556b456a7d0.root'
p659
aS'/pnfs/uboone/data/uboone/larcv_wholeview/prod_v08_00_00_01/data_extbnb_reco1_mcc9/extbnb_C2/00/00/74/66/larcv_wholeview_ba3b5afb-94da-42d6-942f-a085f90df291.root'
p660
aS'/pnfs/uboone/data/uboone/larcv_wholeview/prod_v08_00_00_01/data_extbnb_reco1_mcc9/extbnb_C2/00/00/74/61/larcv_wholeview_9ca387e7-004d-4e32-9567-916781e65af6.root'
p661
aS'/pnfs/uboone/data/uboone/larcv_wholeview/prod_v08_00_00_01/data_extbnb_reco1_mcc9/extbnb_C2/00/00/74/58/larcv_wholeview_ae97048d-9296-4e3c-9493-606adad1a8d1.root'
p662
aS'/pnfs/uboone/data/uboone/larcv_wholeview/prod_v08_00_00_01/data_extbnb_reco1_mcc9/extbnb_C2/00/00/74/00/larcv_wholeview_06a6c077-871e-4d07-baa7-52132d15d183.root'
p663
aS'/pnfs/uboone/data/uboone/larcv_wholeview/prod_v08_00_00_01/data_extbnb_reco1_mcc9/extbnb_C2/00/00/74/69/larcv_wholeview_86a9f139-9bf2-463a-bef4-66988d1ded98.root'
p664
aS'/pnfs/uboone/data/uboone/larcv_wholeview/prod_v08_00_00_01/data_extbnb_reco1_mcc9/extbnb_C2/00/00/74/71/larcv_wholeview_2a457eb9-ee8f-46f2-bb59-fcbad3121e37.root'
p665
aS'/pnfs/uboone/data/uboone/larcv_wholeview/prod_v08_00_00_01/data_extbnb_reco1_mcc9/extbnb_C2/00/00/73/93/larcv_wholeview_19acf727-d877-4b11-997c-62a859fbb788.root'
p666
aS'/pnfs/uboone/data/uboone/larcv_wholeview/prod_v08_00_00_01/data_extbnb_reco1_mcc9/extbnb_C2/00/00/74/61/larcv_wholeview_229fd896-e85c-4f12-871f-254229154747.root'
p667
aS'/pnfs/uboone/data/uboone/larcv_wholeview/prod_v08_00_00_01/data_extbnb_reco1_mcc9/extbnb_C2/00/00/74/66/larcv_wholeview_4b1be74b-042e-4077-9415-9bfd762e468e.root'
p668
aS'/pnfs/uboone/data/uboone/larcv_wholeview/prod_v08_00_00_01/data_extbnb_reco1_mcc9/extbnb_C2/00/00/74/20/larcv_wholeview_201f812e-fb6d-4362-9509-4bf6bc1e481b.root'
p669
aS'/pnfs/uboone/data/uboone/larcv_wholeview/prod_v08_00_00_01/data_extbnb_reco1_mcc9/extbnb_C2/00/00/74/61/larcv_wholeview_ff73cd4d-3363-4d73-b589-7feaa2771773.root'
p670
aS'/pnfs/uboone/data/uboone/larcv_wholeview/prod_v08_00_00_01/data_extbnb_reco1_mcc9/extbnb_C2/00/00/74/66/larcv_wholeview_36d14a22-db4c-4071-863f-45b963cff783.root'
p671
aS'/pnfs/uboone/data/uboone/larcv_wholeview/prod_v08_00_00_01/data_extbnb_reco1_mcc9/extbnb_C2/00/00/74/66/larcv_wholeview_ead530e1-6217-4eec-aab7-7e384f4c9ba1.root'
p672
aS'/pnfs/uboone/data/uboone/larcv_wholeview/prod_v08_00_00_01/data_extbnb_reco1_mcc9/extbnb_C2/00/00/74/73/larcv_wholeview_543cabf6-b5ae-4d33-a10e-51f190ef19b3.root'
p673
aS'/pnfs/uboone/data/uboone/larcv_wholeview/prod_v08_00_00_01/data_extbnb_reco1_mcc9/extbnb_C2/00/00/74/66/larcv_wholeview_f4876d03-8c26-46b7-b4e8-13ead7d37da1.root'
p674
aS'/pnfs/uboone/data/uboone/larcv_wholeview/prod_v08_00_00_01/data_extbnb_reco1_mcc9/extbnb_C2/00/00/74/58/larcv_wholeview_699a1fe3-d740-45cc-a9ba-2b5a0f235206.root'
p675
aS'/pnfs/uboone/data/uboone/larcv_wholeview/prod_v08_00_00_01/data_extbnb_reco1_mcc9/extbnb_C2/00/00/74/00/larcv_wholeview_2632287b-f756-4bb5-bece-d11202fa396b.root'
p676
aS'/pnfs/uboone/data/uboone/larcv_wholeview/prod_v08_00_00_01/data_extbnb_reco1_mcc9/extbnb_C2/00/00/73/93/larcv_wholeview_23c0a7a4-f2a2-4955-b86e-d78997f5cbcd.root'
p677
aS'/pnfs/uboone/data/uboone/larcv_wholeview/prod_v08_00_00_01/data_extbnb_reco1_mcc9/extbnb_C2/00/00/73/93/larcv_wholeview_d382ec7f-58c1-405c-aafa-87b5bfd812e6.root'
p678
aS'/pnfs/uboone/data/uboone/larcv_wholeview/prod_v08_00_00_01/data_extbnb_reco1_mcc9/extbnb_C2/00/00/73/93/larcv_wholeview_593da54e-948d-4c35-b3b8-95cb0727a8ef.root'
p679
aS'/pnfs/uboone/data/uboone/larcv_wholeview/prod_v08_00_00_01/data_extbnb_reco1_mcc9/extbnb_C2/00/00/74/66/larcv_wholeview_155173db-f469-4934-9bef-e7cb2a8edb1b.root'
p680
aS'/pnfs/uboone/data/uboone/larcv_wholeview/prod_v08_00_00_01/data_extbnb_reco1_mcc9/extbnb_C2/00/00/73/91/larcv_wholeview_1a32a3be-adf1-49b2-8041-1582e8570ab0.root'
p681
aS'/pnfs/uboone/data/uboone/larcv_wholeview/prod_v08_00_00_01/data_extbnb_reco1_mcc9/extbnb_C2/00/00/74/73/larcv_wholeview_7a809912-d06b-4aaa-af71-bd7edc2cdfa5.root'
p682
aS'/pnfs/uboone/data/uboone/larcv_wholeview/prod_v08_00_00_01/data_extbnb_reco1_mcc9/extbnb_C2/00/00/74/61/larcv_wholeview_23f86642-45b9-4248-bbff-d69287ee7831.root'
p683
aS'/pnfs/uboone/data/uboone/larcv_wholeview/prod_v08_00_00_01/data_extbnb_reco1_mcc9/extbnb_C2/00/00/74/66/larcv_wholeview_0f97437d-5af0-4a2a-8d71-44d2abc93037.root'
p684
aS'/pnfs/uboone/data/uboone/larcv_wholeview/prod_v08_00_00_01/data_extbnb_reco1_mcc9/extbnb_C2/00/00/74/65/larcv_wholeview_f73e1569-4b8e-4f9a-9b19-6a03f21404bb.root'
p685
aS'/pnfs/uboone/data/uboone/larcv_wholeview/prod_v08_00_00_01/data_extbnb_reco1_mcc9/extbnb_C2/00/00/74/66/larcv_wholeview_5a3b0983-b63b-42ba-b445-5b8b1e86f8da.root'
p686
aS'/pnfs/uboone/data/uboone/larcv_wholeview/prod_v08_00_00_01/data_extbnb_reco1_mcc9/extbnb_C2/00/00/74/73/larcv_wholeview_582045cd-840d-46ec-ab52-8203b5fd3268.root'
p687
aS'/pnfs/uboone/data/uboone/larcv_wholeview/prod_v08_00_00_01/data_extbnb_reco1_mcc9/extbnb_C2/00/00/74/57/larcv_wholeview_4d54631b-cce3-4217-925e-7902e62741a7.root'
p688
aS'/pnfs/uboone/data/uboone/larcv_wholeview/prod_v08_00_00_01/data_extbnb_reco1_mcc9/extbnb_C2/00/00/74/61/larcv_wholeview_11fae350-da3a-4936-ac55-799103baa7af.root'
p689
aS'/pnfs/uboone/data/uboone/larcv_wholeview/prod_v08_00_00_01/data_extbnb_reco1_mcc9/extbnb_C2/00/00/74/73/larcv_wholeview_1e21ae87-1ffe-410d-b712-514364afcbaf.root'
p690
aS'/pnfs/uboone/data/uboone/larcv_wholeview/prod_v08_00_00_01/data_extbnb_reco1_mcc9/extbnb_C2/00/00/74/66/larcv_wholeview_d1e173fd-65c9-4dba-8615-e9bc3f145421.root'
p691
aS'/pnfs/uboone/data/uboone/larcv_wholeview/prod_v08_00_00_01/data_extbnb_reco1_mcc9/extbnb_C2/00/00/74/62/larcv_wholeview_0d4477cd-460d-4b88-a7f8-36bed262cea1.root'
p692
aS'/pnfs/uboone/data/uboone/larcv_wholeview/prod_v08_00_00_01/data_extbnb_reco1_mcc9/extbnb_C2/00/00/74/73/larcv_wholeview_eb27fa27-f33c-458b-87eb-00b1aa11fb24.root'
p693
aS'/pnfs/uboone/data/uboone/larcv_wholeview/prod_v08_00_00_01/data_extbnb_reco1_mcc9/extbnb_C2/00/00/74/66/larcv_wholeview_c9a7b3f6-e031-4c68-b3fc-829e36b57c2f.root'
p694
aS'/pnfs/uboone/data/uboone/larcv_wholeview/prod_v08_00_00_01/data_extbnb_reco1_mcc9/extbnb_C2/00/00/74/61/larcv_wholeview_c2922749-0d64-425e-9e08-f6976516a667.root'
p695
aS'/pnfs/uboone/data/uboone/larcv_wholeview/prod_v08_00_00_01/data_extbnb_reco1_mcc9/extbnb_C2/00/00/74/73/larcv_wholeview_ea04d8e4-cdde-469d-8fd2-d69af61dd065.root'
p696
aS'/pnfs/uboone/data/uboone/larcv_wholeview/prod_v08_00_00_01/data_extbnb_reco1_mcc9/extbnb_C2/00/00/74/66/larcv_wholeview_602f007f-2f85-4382-95ea-23f080d05b90.root'
p697
aS'/pnfs/uboone/data/uboone/larcv_wholeview/prod_v08_00_00_01/data_extbnb_reco1_mcc9/extbnb_C2/00/00/74/61/larcv_wholeview_2cac030b-a24c-4996-8fca-11c0b6533f96.root'
p698
aS'/pnfs/uboone/data/uboone/larcv_wholeview/prod_v08_00_00_01/data_extbnb_reco1_mcc9/extbnb_C2/00/00/74/03/larcv_wholeview_ca8b95f9-907b-4070-abf0-7af98e0dcbee.root'
p699
aS'/pnfs/uboone/data/uboone/larcv_wholeview/prod_v08_00_00_01/data_extbnb_reco1_mcc9/extbnb_C2/00/00/73/92/larcv_wholeview_9fc6b138-a81d-4fd0-968e-1ac1c363a7c3.root'
p700
aS'/pnfs/uboone/data/uboone/larcv_wholeview/prod_v08_00_00_01/data_extbnb_reco1_mcc9/extbnb_C2/00/00/74/62/larcv_wholeview_fff7abde-858f-47b5-be87-21775173892c.root'
p701
aS'/pnfs/uboone/data/uboone/larcv_wholeview/prod_v08_00_00_01/data_extbnb_reco1_mcc9/extbnb_C2/00/00/73/93/larcv_wholeview_5efac14d-6401-40b5-a02c-c4d137f44c68.root'
p702
aS'/pnfs/uboone/data/uboone/larcv_wholeview/prod_v08_00_00_01/data_extbnb_reco1_mcc9/extbnb_C2/00/00/74/73/larcv_wholeview_f8009d51-92cd-4866-b831-9f6cb08c7d72.root'
p703
aS'/pnfs/uboone/data/uboone/larcv_wholeview/prod_v08_00_00_01/data_extbnb_reco1_mcc9/extbnb_C2/00/00/74/61/larcv_wholeview_f7289020-6368-476a-9432-7f9cec04dfec.root'
p704
aS'/pnfs/uboone/data/uboone/larcv_wholeview/prod_v08_00_00_01/data_extbnb_reco1_mcc9/extbnb_C2/00/00/74/66/larcv_wholeview_5cdbb14e-23c6-4e26-ac7d-418bc0e3adc1.root'
p705
aS'/pnfs/uboone/data/uboone/larcv_wholeview/prod_v08_00_00_01/data_extbnb_reco1_mcc9/extbnb_C2/00/00/74/61/larcv_wholeview_4d086b82-f981-4a72-aa7a-e1afbe82e4e1.root'
p706
aS'/pnfs/uboone/data/uboone/larcv_wholeview/prod_v08_00_00_01/data_extbnb_reco1_mcc9/extbnb_C2/00/00/74/66/larcv_wholeview_6c8b6162-b2c2-4b75-9901-4a971da6f8f7.root'
p707
aS'/pnfs/uboone/data/uboone/larcv_wholeview/prod_v08_00_00_01/data_extbnb_reco1_mcc9/extbnb_C2/00/00/73/93/larcv_wholeview_597d94d9-de8d-4f6d-8ec7-b7a564f062c3.root'
p708
aS'/pnfs/uboone/data/uboone/larcv_wholeview/prod_v08_00_00_01/data_extbnb_reco1_mcc9/extbnb_C2/00/00/73/91/larcv_wholeview_4a56a04c-3d1f-4374-8cde-e5d5e80d236d.root'
p709
aS'/pnfs/uboone/data/uboone/larcv_wholeview/prod_v08_00_00_01/data_extbnb_reco1_mcc9/extbnb_C2/00/00/74/00/larcv_wholeview_e90f7105-7cf5-4ecd-b7cf-98f21873e420.root'
p710
aS'/pnfs/uboone/data/uboone/larcv_wholeview/prod_v08_00_00_01/data_extbnb_reco1_mcc9/extbnb_C2/00/00/74/21/larcv_wholeview_e65dc9ec-5f4e-4150-917f-1b29e5c14b0f.root'
p711
aS'/pnfs/uboone/data/uboone/larcv_wholeview/prod_v08_00_00_01/data_extbnb_reco1_mcc9/extbnb_C2/00/00/73/91/larcv_wholeview_01866731-0931-4b17-8355-771fc42a2915.root'
p712
aS'/pnfs/uboone/data/uboone/larcv_wholeview/prod_v08_00_00_01/data_extbnb_reco1_mcc9/extbnb_C2/00/00/73/93/larcv_wholeview_a22fe7fd-dd83-4f3e-bb71-dc94f1acc860.root'
p713
aS'/pnfs/uboone/data/uboone/larcv_wholeview/prod_v08_00_00_01/data_extbnb_reco1_mcc9/extbnb_C2/00/00/73/97/larcv_wholeview_109688a6-4503-4528-ab55-f024a0bc786c.root'
p714
aS'/pnfs/uboone/data/uboone/larcv_wholeview/prod_v08_00_00_01/data_extbnb_reco1_mcc9/extbnb_C2/00/00/74/69/larcv_wholeview_03911412-ef6f-4295-9043-80bdc9e44462.root'
p715
aS'/pnfs/uboone/data/uboone/larcv_wholeview/prod_v08_00_00_01/data_extbnb_reco1_mcc9/extbnb_C2/00/00/74/66/larcv_wholeview_3285611f-b723-44c0-99d4-79309ad514cc.root'
p716
aS'/pnfs/uboone/data/uboone/larcv_wholeview/prod_v08_00_00_01/data_extbnb_reco1_mcc9/extbnb_C2/00/00/74/57/larcv_wholeview_3dd090d1-d6be-4a28-a492-015f0ce3d5dc.root'
p717
aS'/pnfs/uboone/data/uboone/larcv_wholeview/prod_v08_00_00_01/data_extbnb_reco1_mcc9/extbnb_C2/00/00/74/66/larcv_wholeview_ed409700-dcf5-426a-99ba-af2dede2031a.root'
p718
aS'/pnfs/uboone/data/uboone/larcv_wholeview/prod_v08_00_00_01/data_extbnb_reco1_mcc9/extbnb_C2/00/00/73/93/larcv_wholeview_c3a59762-4fa6-494e-823e-5f144d3c633f.root'
p719
aS'/pnfs/uboone/data/uboone/larcv_wholeview/prod_v08_00_00_01/data_extbnb_reco1_mcc9/extbnb_C2/00/00/74/20/larcv_wholeview_8f38509b-9568-4704-b6cb-c988b6119ac1.root'
p720
aS'/pnfs/uboone/data/uboone/larcv_wholeview/prod_v08_00_00_01/data_extbnb_reco1_mcc9/extbnb_C2/00/00/74/00/larcv_wholeview_76601032-96dc-4a5f-a7f0-7372e6d99961.root'
p721
aS'/pnfs/uboone/data/uboone/larcv_wholeview/prod_v08_00_00_01/data_extbnb_reco1_mcc9/extbnb_C2/00/00/74/61/larcv_wholeview_edf95343-2c33-47e7-afc4-9ae2320f4fb8.root'
p722
aS'/pnfs/uboone/data/uboone/larcv_wholeview/prod_v08_00_00_01/data_extbnb_reco1_mcc9/extbnb_C2/00/00/74/73/larcv_wholeview_2b047b19-cf12-4685-a9c8-4a6b74855e8c.root'
p723
aS'/pnfs/uboone/data/uboone/larcv_wholeview/prod_v08_00_00_01/data_extbnb_reco1_mcc9/extbnb_C2/00/00/74/66/larcv_wholeview_9a9f5f72-7dab-4e0f-af9e-d79bb55e9003.root'
p724
aS'/pnfs/uboone/data/uboone/larcv_wholeview/prod_v08_00_00_01/data_extbnb_reco1_mcc9/extbnb_C2/00/00/74/66/larcv_wholeview_d60c4be3-91e1-447f-989a-e4f0ae93157b.root'
p725
aS'/pnfs/uboone/data/uboone/larcv_wholeview/prod_v08_00_00_01/data_extbnb_reco1_mcc9/extbnb_C2/00/00/74/66/larcv_wholeview_d1402038-7ee4-4d7f-8033-d20dd4cde9ee.root'
p726
aS'/pnfs/uboone/data/uboone/larcv_wholeview/prod_v08_00_00_01/data_extbnb_reco1_mcc9/extbnb_C2/00/00/74/71/larcv_wholeview_82db3079-ffa8-4904-a244-1cbad68287ab.root'
p727
aS'/pnfs/uboone/data/uboone/larcv_wholeview/prod_v08_00_00_01/data_extbnb_reco1_mcc9/extbnb_C2/00/00/74/20/larcv_wholeview_50a13bb4-0b24-4039-9df0-e54853e2c8eb.root'
p728
aS'/pnfs/uboone/data/uboone/larcv_wholeview/prod_v08_00_00_01/data_extbnb_reco1_mcc9/extbnb_C2/00/00/74/61/larcv_wholeview_88941ca2-fb6e-4a8d-825f-f3ffafec9ef5.root'
p729
aS'/pnfs/uboone/data/uboone/larcv_wholeview/prod_v08_00_00_01/data_extbnb_reco1_mcc9/extbnb_C2/00/00/74/58/larcv_wholeview_bd220bf3-1eb5-4edd-9035-b61e01d07758.root'
p730
aS'/pnfs/uboone/data/uboone/larcv_wholeview/prod_v08_00_00_01/data_extbnb_reco1_mcc9/extbnb_C2/00/00/73/91/larcv_wholeview_09f68776-26f3-4f26-a91f-bf7b78bd945d.root'
p731
aS'/pnfs/uboone/data/uboone/larcv_wholeview/prod_v08_00_00_01/data_extbnb_reco1_mcc9/extbnb_C2/00/00/74/68/larcv_wholeview_6413a2ff-8ecd-4a69-ae36-e5a5862de14d.root'
p732
aS'/pnfs/uboone/data/uboone/larcv_wholeview/prod_v08_00_00_01/data_extbnb_reco1_mcc9/extbnb_C2/00/00/74/57/larcv_wholeview_eaa43599-7ac5-4111-8a96-bb128b449d5a.root'
p733
aS'/pnfs/uboone/data/uboone/larcv_wholeview/prod_v08_00_00_01/data_extbnb_reco1_mcc9/extbnb_C2/00/00/73/91/larcv_wholeview_74c3d414-d627-49be-88b4-2f2b9360f11e.root'
p734
aS'/pnfs/uboone/data/uboone/larcv_wholeview/prod_v08_00_00_01/data_extbnb_reco1_mcc9/extbnb_C2/00/00/74/00/larcv_wholeview_b11e3cd6-895f-4a41-9559-30c8872132f5.root'
p735
aS'/pnfs/uboone/data/uboone/larcv_wholeview/prod_v08_00_00_01/data_extbnb_reco1_mcc9/extbnb_C2/00/00/74/00/larcv_wholeview_f5360a8e-51da-474a-8f66-91f365742670.root'
p736
aS'/pnfs/uboone/data/uboone/larcv_wholeview/prod_v08_00_00_01/data_extbnb_reco1_mcc9/extbnb_C2/00/00/74/69/larcv_wholeview_df66312b-6d11-4619-8cb4-dcadc769ab8c.root'
p737
aS'/pnfs/uboone/data/uboone/larcv_wholeview/prod_v08_00_00_01/data_extbnb_reco1_mcc9/extbnb_C2/00/00/74/66/larcv_wholeview_24215dc0-7cc8-4f0d-9ff8-b7b0c0f8ba6b.root'
p738
aS'/pnfs/uboone/data/uboone/larcv_wholeview/prod_v08_00_00_01/data_extbnb_reco1_mcc9/extbnb_C2/00/00/74/57/larcv_wholeview_d9cbadcf-6c96-46cd-99aa-869e1e00c180.root'
p739
aS'/pnfs/uboone/data/uboone/larcv_wholeview/prod_v08_00_00_01/data_extbnb_reco1_mcc9/extbnb_C2/00/00/74/66/larcv_wholeview_5d1d161f-69c5-4c04-a4dd-ce3bd56f06b9.root'
p740
aS'/pnfs/uboone/data/uboone/larcv_wholeview/prod_v08_00_00_01/data_extbnb_reco1_mcc9/extbnb_C2/00/00/74/71/larcv_wholeview_c589bbfd-4db1-49b3-ad55-27e7ae4ec342.root'
p741
aS'/pnfs/uboone/data/uboone/larcv_wholeview/prod_v08_00_00_01/data_extbnb_reco1_mcc9/extbnb_C2/00/00/74/66/larcv_wholeview_dc981127-dd73-48b3-a804-511f72a9ef79.root'
p742
aS'/pnfs/uboone/data/uboone/larcv_wholeview/prod_v08_00_00_01/data_extbnb_reco1_mcc9/extbnb_C2/00/00/74/66/larcv_wholeview_42d37ba3-9247-482a-b529-d557290e5278.root'
p743
aS'/pnfs/uboone/data/uboone/larcv_wholeview/prod_v08_00_00_01/data_extbnb_reco1_mcc9/extbnb_C2/00/00/74/61/larcv_wholeview_722e29b7-b21a-40d6-aea0-3aa12c299047.root'
p744
aS'/pnfs/uboone/data/uboone/larcv_wholeview/prod_v08_00_00_01/data_extbnb_reco1_mcc9/extbnb_C2/00/00/73/93/larcv_wholeview_8ff1c25c-80d1-404d-9b9a-2ff4696125ac.root'
p745
aS'/pnfs/uboone/data/uboone/larcv_wholeview/prod_v08_00_00_01/data_extbnb_reco1_mcc9/extbnb_C2/00/00/73/92/larcv_wholeview_f1e353e8-dc6a-4a00-81dd-bfcc87a19d96.root'
p746
aS'/pnfs/uboone/data/uboone/larcv_wholeview/prod_v08_00_00_01/data_extbnb_reco1_mcc9/extbnb_C2/00/00/74/73/larcv_wholeview_8cf0ed15-be00-4396-ae5b-94e5a199fdbc.root'
p747
aS'/pnfs/uboone/data/uboone/larcv_wholeview/prod_v08_00_00_01/data_extbnb_reco1_mcc9/extbnb_C2/00/00/74/20/larcv_wholeview_a59485aa-c3ac-4a49-a862-1809abca48b1.root'
p748
aS'/pnfs/uboone/data/uboone/larcv_wholeview/prod_v08_00_00_01/data_extbnb_reco1_mcc9/extbnb_C2/00/00/74/61/larcv_wholeview_0a6bbf39-1ddf-4507-bd96-eb867731e7d7.root'
p749
aS'/pnfs/uboone/data/uboone/larcv_wholeview/prod_v08_00_00_01/data_extbnb_reco1_mcc9/extbnb_C2/00/00/74/26/larcv_wholeview_1f83ac94-9df2-46a6-a917-67060d6fb816.root'
p750
aS'/pnfs/uboone/data/uboone/larcv_wholeview/prod_v08_00_00_01/data_extbnb_reco1_mcc9/extbnb_C2/00/00/74/66/larcv_wholeview_c8fce424-5a02-43ca-9d0e-01d07e3c4b49.root'
p751
aS'/pnfs/uboone/data/uboone/larcv_wholeview/prod_v08_00_00_01/data_extbnb_reco1_mcc9/extbnb_C2/00/00/74/71/larcv_wholeview_5d6c58b5-1f72-4314-a7f4-f99dc2d9f5d6.root'
p752
aS'/pnfs/uboone/data/uboone/larcv_wholeview/prod_v08_00_00_01/data_extbnb_reco1_mcc9/extbnb_C2/00/00/74/64/larcv_wholeview_5a58726c-c41d-4cb6-a4af-7f357524224b.root'
p753
aS'/pnfs/uboone/data/uboone/larcv_wholeview/prod_v08_00_00_01/data_extbnb_reco1_mcc9/extbnb_C2/00/00/74/61/larcv_wholeview_99a4c1cd-e3a5-4cc1-81d6-097f607c11b5.root'
p754
aS'/pnfs/uboone/data/uboone/larcv_wholeview/prod_v08_00_00_01/data_extbnb_reco1_mcc9/extbnb_C2/00/00/74/61/larcv_wholeview_93bc424c-48a9-4ee6-97a0-10f204da497f.root'
p755
aS'/pnfs/uboone/data/uboone/larcv_wholeview/prod_v08_00_00_01/data_extbnb_reco1_mcc9/extbnb_C2/00/00/74/73/larcv_wholeview_0fd394f0-1e92-4287-9557-037be72911ce.root'
p756
aS'/pnfs/uboone/data/uboone/larcv_wholeview/prod_v08_00_00_01/data_extbnb_reco1_mcc9/extbnb_C2/00/00/74/73/larcv_wholeview_e860d0b9-92b9-4573-aeb3-daaa1a64a6be.root'
p757
aS'/pnfs/uboone/data/uboone/larcv_wholeview/prod_v08_00_00_01/data_extbnb_reco1_mcc9/extbnb_C2/00/00/74/58/larcv_wholeview_6a233547-7089-4e43-8b7e-0d6c61eb2c69.root'
p758
aS'/pnfs/uboone/data/uboone/larcv_wholeview/prod_v08_00_00_01/data_extbnb_reco1_mcc9/extbnb_C2/00/00/74/66/larcv_wholeview_067b7a4c-451b-452e-84da-83f4e18c786e.root'
p759
aS'/pnfs/uboone/data/uboone/larcv_wholeview/prod_v08_00_00_01/data_extbnb_reco1_mcc9/extbnb_C2/00/00/73/92/larcv_wholeview_fd7d7a53-7a68-4b35-9adc-5328f339de23.root'
p760
aS'/pnfs/uboone/data/uboone/larcv_wholeview/prod_v08_00_00_01/data_extbnb_reco1_mcc9/extbnb_C2/00/00/74/66/larcv_wholeview_425c2b83-87b7-4348-9476-1ee902a546b7.root'
p761
aS'/pnfs/uboone/data/uboone/larcv_wholeview/prod_v08_00_00_01/data_extbnb_reco1_mcc9/extbnb_C2/00/00/74/71/larcv_wholeview_8a0c1106-ccea-454a-8e66-b7569ba9cb2d.root'
p762
aS'/pnfs/uboone/data/uboone/larcv_wholeview/prod_v08_00_00_01/data_extbnb_reco1_mcc9/extbnb_C2/00/00/74/65/larcv_wholeview_1177b679-c131-4ae2-8a59-67df46b8cd28.root'
p763
aS'/pnfs/uboone/data/uboone/larcv_wholeview/prod_v08_00_00_01/data_extbnb_reco1_mcc9/extbnb_C2/00/00/74/69/larcv_wholeview_70082257-d692-4f88-b750-1ab31178d900.root'
p764
aS'/pnfs/uboone/data/uboone/larcv_wholeview/prod_v08_00_00_01/data_extbnb_reco1_mcc9/extbnb_C2/00/00/74/00/larcv_wholeview_f98603aa-8061-49eb-a5fd-586e82310629.root'
p765
aS'/pnfs/uboone/data/uboone/larcv_wholeview/prod_v08_00_00_01/data_extbnb_reco1_mcc9/extbnb_C2/00/00/74/71/larcv_wholeview_39356104-6f6e-4172-ad8c-e48ab1e86d67.root'
p766
aS'/pnfs/uboone/data/uboone/larcv_wholeview/prod_v08_00_00_01/data_extbnb_reco1_mcc9/extbnb_C2/00/00/74/66/larcv_wholeview_426bfd4c-cba1-4e9d-9219-846bb495b4ad.root'
p767
aS'/pnfs/uboone/data/uboone/larcv_wholeview/prod_v08_00_00_01/data_extbnb_reco1_mcc9/extbnb_C2/00/00/74/66/larcv_wholeview_f966e8cb-11be-424a-a245-c826dd0f5ed9.root'
p768
aS'/pnfs/uboone/data/uboone/larcv_wholeview/prod_v08_00_00_01/data_extbnb_reco1_mcc9/extbnb_C2/00/00/74/58/larcv_wholeview_7226fe9e-779e-4a7b-a5c6-422869d8d558.root'
p769
aS'/pnfs/uboone/data/uboone/larcv_wholeview/prod_v08_00_00_01/data_extbnb_reco1_mcc9/extbnb_C2/00/00/74/69/larcv_wholeview_ef5e21a9-aa2a-4d6f-9cd4-4d658325244a.root'
p770
aS'/pnfs/uboone/data/uboone/larcv_wholeview/prod_v08_00_00_01/data_extbnb_reco1_mcc9/extbnb_C2/00/00/73/91/larcv_wholeview_a5de5204-cdf9-4b83-8f24-00a4fea49c85.root'
p771
aS'/pnfs/uboone/data/uboone/larcv_wholeview/prod_v08_00_00_01/data_extbnb_reco1_mcc9/extbnb_C2/00/00/74/66/larcv_wholeview_d349274c-6d9b-406f-892c-758627c24580.root'
p772
aS'/pnfs/uboone/data/uboone/larcv_wholeview/prod_v08_00_00_01/data_extbnb_reco1_mcc9/extbnb_C2/00/00/74/66/larcv_wholeview_257dfdef-19fb-4bed-a103-22d0319f0314.root'
p773
aS'/pnfs/uboone/data/uboone/larcv_wholeview/prod_v08_00_00_01/data_extbnb_reco1_mcc9/extbnb_C2/00/00/73/93/larcv_wholeview_a8293b59-7e48-4101-a189-cf7cf848f644.root'
p774
aS'/pnfs/uboone/data/uboone/larcv_wholeview/prod_v08_00_00_01/data_extbnb_reco1_mcc9/extbnb_C2/00/00/74/61/larcv_wholeview_5d1d9519-f17f-46cd-8248-42ec1538e7fa.root'
p775
aS'/pnfs/uboone/data/uboone/larcv_wholeview/prod_v08_00_00_01/data_extbnb_reco1_mcc9/extbnb_C2/00/00/74/18/larcv_wholeview_280b3ab3-962a-4836-9db6-fccbe1974bac.root'
p776
aS'/pnfs/uboone/data/uboone/larcv_wholeview/prod_v08_00_00_01/data_extbnb_reco1_mcc9/extbnb_C2/00/00/74/66/larcv_wholeview_c2815be2-c049-41aa-99b1-fb3621234f57.root'
p777
aS'/pnfs/uboone/data/uboone/larcv_wholeview/prod_v08_00_00_01/data_extbnb_reco1_mcc9/extbnb_C2/00/00/74/66/larcv_wholeview_f27cf891-f015-4988-ae2a-fe0cadd8cb42.root'
p778
aS'/pnfs/uboone/data/uboone/larcv_wholeview/prod_v08_00_00_01/data_extbnb_reco1_mcc9/extbnb_C2/00/00/74/57/larcv_wholeview_85b6c6c9-108f-4e9d-8326-c8b34608b1e8.root'
p779
aS'/pnfs/uboone/data/uboone/larcv_wholeview/prod_v08_00_00_01/data_extbnb_reco1_mcc9/extbnb_C2/00/00/74/00/larcv_wholeview_2c0191d3-9a25-490c-a27a-cb456364bfd3.root'
p780
aS'/pnfs/uboone/data/uboone/larcv_wholeview/prod_v08_00_00_01/data_extbnb_reco1_mcc9/extbnb_C2/00/00/74/73/larcv_wholeview_70ebdbd2-d961-43e2-a7c1-f82c1cc9a7bf.root'
p781
aS'/pnfs/uboone/data/uboone/larcv_wholeview/prod_v08_00_00_01/data_extbnb_reco1_mcc9/extbnb_C2/00/00/74/61/larcv_wholeview_0e3c1d24-2920-4828-8aef-bc58af54718a.root'
p782
aS'/pnfs/uboone/data/uboone/larcv_wholeview/prod_v08_00_00_01/data_extbnb_reco1_mcc9/extbnb_C2/00/00/74/66/larcv_wholeview_b831c378-592d-491e-b627-3ccf91728ebb.root'
p783
aS'/pnfs/uboone/data/uboone/larcv_wholeview/prod_v08_00_00_01/data_extbnb_reco1_mcc9/extbnb_C2/00/00/73/98/larcv_wholeview_b9d6e877-bf6d-4043-a689-45be8ea865af.root'
p784
aS'/pnfs/uboone/data/uboone/larcv_wholeview/prod_v08_00_00_01/data_extbnb_reco1_mcc9/extbnb_C2/00/00/74/73/larcv_wholeview_4083f8c2-4496-415f-8ec7-896216be8316.root'
p785
aS'/pnfs/uboone/data/uboone/larcv_wholeview/prod_v08_00_00_01/data_extbnb_reco1_mcc9/extbnb_C2/00/00/74/69/larcv_wholeview_dd1159a6-0ce1-49a9-a15f-c8585b23d9b4.root'
p786
aS'/pnfs/uboone/data/uboone/larcv_wholeview/prod_v08_00_00_01/data_extbnb_reco1_mcc9/extbnb_C2/00/00/74/59/larcv_wholeview_840d0326-425b-4c82-9626-1ce2919fd83c.root'
p787
aS'/pnfs/uboone/data/uboone/larcv_wholeview/prod_v08_00_00_01/data_extbnb_reco1_mcc9/extbnb_C2/00/00/74/61/larcv_wholeview_ee56d1f4-ad3a-47d0-a73a-f7db39b83c3c.root'
p788
aS'/pnfs/uboone/data/uboone/larcv_wholeview/prod_v08_00_00_01/data_extbnb_reco1_mcc9/extbnb_C2/00/00/73/93/larcv_wholeview_9f9b7c13-2489-467e-8e5a-7cf698b17b9e.root'
p789
aS'/pnfs/uboone/data/uboone/larcv_wholeview/prod_v08_00_00_01/data_extbnb_reco1_mcc9/extbnb_C2/00/00/74/61/larcv_wholeview_a01d6c3f-bea8-48f7-bf20-bd8f3af8dcae.root'
p790
aS'/pnfs/uboone/data/uboone/larcv_wholeview/prod_v08_00_00_01/data_extbnb_reco1_mcc9/extbnb_C2/00/00/74/66/larcv_wholeview_d0e4be56-f00f-4e57-943b-c0c434fc0fdf.root'
p791
aS'/pnfs/uboone/data/uboone/larcv_wholeview/prod_v08_00_00_01/data_extbnb_reco1_mcc9/extbnb_C2/00/00/74/69/larcv_wholeview_21681e7b-b040-45d6-b742-2707222bcc86.root'
p792
aS'/pnfs/uboone/data/uboone/larcv_wholeview/prod_v08_00_00_01/data_extbnb_reco1_mcc9/extbnb_C2/00/00/74/66/larcv_wholeview_f959334c-df40-4dba-ac2b-d8fa09a17849.root'
p793
aS'/pnfs/uboone/data/uboone/larcv_wholeview/prod_v08_00_00_01/data_extbnb_reco1_mcc9/extbnb_C2/00/00/73/93/larcv_wholeview_c55c37f8-caa4-4771-8e27-9e8bd1bce4f7.root'
p794
aS'/pnfs/uboone/data/uboone/larcv_wholeview/prod_v08_00_00_01/data_extbnb_reco1_mcc9/extbnb_C2/00/00/74/61/larcv_wholeview_b4e7a838-f15c-4822-8102-2928e8f24d0b.root'
p795
aS'/pnfs/uboone/data/uboone/larcv_wholeview/prod_v08_00_00_01/data_extbnb_reco1_mcc9/extbnb_C2/00/00/74/00/larcv_wholeview_3e4507bc-d1c2-4bea-93a4-a2036a94f220.root'
p796
aS'/pnfs/uboone/data/uboone/larcv_wholeview/prod_v08_00_00_01/data_extbnb_reco1_mcc9/extbnb_C2/00/00/74/66/larcv_wholeview_0c62f50d-ac75-4434-b86a-e6a4dcb771d4.root'
p797
aS'/pnfs/uboone/data/uboone/larcv_wholeview/prod_v08_00_00_01/data_extbnb_reco1_mcc9/extbnb_C2/00/00/74/71/larcv_wholeview_12720738-7106-488b-bb4a-81ae6b86150d.root'
p798
aS'/pnfs/uboone/data/uboone/larcv_wholeview/prod_v08_00_00_01/data_extbnb_reco1_mcc9/extbnb_C2/00/00/74/61/larcv_wholeview_18f9008e-edfc-4f99-9102-961d487546d1.root'
p799
aS'/pnfs/uboone/data/uboone/larcv_wholeview/prod_v08_00_00_01/data_extbnb_reco1_mcc9/extbnb_C2/00/00/74/66/larcv_wholeview_14baaa7b-635d-46d0-a14a-a20921d5e2bd.root'
p800
aS'/pnfs/uboone/data/uboone/larcv_wholeview/prod_v08_00_00_01/data_extbnb_reco1_mcc9/extbnb_C2/00/00/74/66/larcv_wholeview_d22da9b7-4eb3-4da8-8dcb-1d63072d2946.root'
p801
aS'/pnfs/uboone/data/uboone/larcv_wholeview/prod_v08_00_00_01/data_extbnb_reco1_mcc9/extbnb_C2/00/00/74/71/larcv_wholeview_c5cbbc21-10ee-487d-acce-0d77b8a7543c.root'
p802
aS'/pnfs/uboone/data/uboone/larcv_wholeview/prod_v08_00_00_01/data_extbnb_reco1_mcc9/extbnb_C2/00/00/74/73/larcv_wholeview_63ba2042-a38e-4634-bbb3-ee71c167cdec.root'
p803
aS'/pnfs/uboone/data/uboone/larcv_wholeview/prod_v08_00_00_01/data_extbnb_reco1_mcc9/extbnb_C2/00/00/74/69/larcv_wholeview_3205c1ca-18fa-4a8f-bffd-81433b6cdea1.root'
p804
aS'/pnfs/uboone/data/uboone/larcv_wholeview/prod_v08_00_00_01/data_extbnb_reco1_mcc9/extbnb_C2/00/00/74/66/larcv_wholeview_05977967-0111-4f25-a651-8a3027415e50.root'
p805
aS'/pnfs/uboone/data/uboone/larcv_wholeview/prod_v08_00_00_01/data_extbnb_reco1_mcc9/extbnb_C2/00/00/73/97/larcv_wholeview_b4c9c59a-37b7-46cd-85a3-29119ca65fd9.root'
p806
aS'/pnfs/uboone/data/uboone/larcv_wholeview/prod_v08_00_00_01/data_extbnb_reco1_mcc9/extbnb_C2/00/00/73/92/larcv_wholeview_4ea8be12-5403-4fc7-9515-619d090cf3b4.root'
p807
aS'/pnfs/uboone/data/uboone/larcv_wholeview/prod_v08_00_00_01/data_extbnb_reco1_mcc9/extbnb_C2/00/00/73/98/larcv_wholeview_37dc82e7-1215-46f0-bff2-4b6e86045e78.root'
p808
aS'/pnfs/uboone/data/uboone/larcv_wholeview/prod_v08_00_00_01/data_extbnb_reco1_mcc9/extbnb_C2/00/00/73/91/larcv_wholeview_87a5e206-ed85-4e1b-926f-da26e563ebdd.root'
p809
aS'/pnfs/uboone/data/uboone/larcv_wholeview/prod_v08_00_00_01/data_extbnb_reco1_mcc9/extbnb_C2/00/00/74/66/larcv_wholeview_2b913630-8b63-4881-b140-cd034765b89d.root'
p810
aS'/pnfs/uboone/data/uboone/larcv_wholeview/prod_v08_00_00_01/data_extbnb_reco1_mcc9/extbnb_C2/00/00/74/69/larcv_wholeview_f7002af4-48fb-410a-8f06-b83a401f1743.root'
p811
aS'/pnfs/uboone/data/uboone/larcv_wholeview/prod_v08_00_00_01/data_extbnb_reco1_mcc9/extbnb_C2/00/00/74/71/larcv_wholeview_f722573f-e21a-4d93-9047-2bb7ab072ada.root'
p812
aS'/pnfs/uboone/data/uboone/larcv_wholeview/prod_v08_00_00_01/data_extbnb_reco1_mcc9/extbnb_C2/00/00/74/63/larcv_wholeview_81856d81-6289-4e75-a747-cc68cf35cc9c.root'
p813
aS'/pnfs/uboone/data/uboone/larcv_wholeview/prod_v08_00_00_01/data_extbnb_reco1_mcc9/extbnb_C2/00/00/74/64/larcv_wholeview_75cb7e16-ba79-427e-bd3c-2cd319b70d3e.root'
p814
aS'/pnfs/uboone/data/uboone/larcv_wholeview/prod_v08_00_00_01/data_extbnb_reco1_mcc9/extbnb_C2/00/00/74/61/larcv_wholeview_cb0b88f4-f949-4272-96ae-4b8ba1d03ecd.root'
p815
aS'/pnfs/uboone/data/uboone/larcv_wholeview/prod_v08_00_00_01/data_extbnb_reco1_mcc9/extbnb_C2/00/00/74/66/larcv_wholeview_fe4459da-88d3-45cf-b0ea-5c64d4767a9c.root'
p816
aS'/pnfs/uboone/data/uboone/larcv_wholeview/prod_v08_00_00_01/data_extbnb_reco1_mcc9/extbnb_C2/00/00/74/62/larcv_wholeview_f1f53e3e-366d-417b-86f9-8f9c20ccd709.root'
p817
aS'/pnfs/uboone/data/uboone/larcv_wholeview/prod_v08_00_00_01/data_extbnb_reco1_mcc9/extbnb_C2/00/00/74/66/larcv_wholeview_03785bbf-7b88-405f-85dc-7cd1f87a3805.root'
p818
aS'/pnfs/uboone/data/uboone/larcv_wholeview/prod_v08_00_00_01/data_extbnb_reco1_mcc9/extbnb_C2/00/00/73/91/larcv_wholeview_38c77f19-1f59-493e-bab7-6a72a3399913.root'
p819
aS'/pnfs/uboone/data/uboone/larcv_wholeview/prod_v08_00_00_01/data_extbnb_reco1_mcc9/extbnb_C2/00/00/74/57/larcv_wholeview_361f8bb3-2895-4727-91bd-943382d45a7b.root'
p820
aS'/pnfs/uboone/data/uboone/larcv_wholeview/prod_v08_00_00_01/data_extbnb_reco1_mcc9/extbnb_C2/00/00/74/66/larcv_wholeview_b471c866-6d02-4082-a7b6-b58bfe93d0b2.root'
p821
aS'/pnfs/uboone/data/uboone/larcv_wholeview/prod_v08_00_00_01/data_extbnb_reco1_mcc9/extbnb_C2/00/00/74/61/larcv_wholeview_9292394a-fd19-4378-9860-a4214d1222c1.root'
p822
aS'/pnfs/uboone/data/uboone/larcv_wholeview/prod_v08_00_00_01/data_extbnb_reco1_mcc9/extbnb_C2/00/00/74/03/larcv_wholeview_595f0ec1-3855-4ec2-98eb-c5b6ad7dbe9f.root'
p823
aS'/pnfs/uboone/data/uboone/larcv_wholeview/prod_v08_00_00_01/data_extbnb_reco1_mcc9/extbnb_C2/00/00/73/91/larcv_wholeview_c92c1671-ff96-4013-bf06-41f8e2f7604a.root'
p824
aS'/pnfs/uboone/data/uboone/larcv_wholeview/prod_v08_00_00_01/data_extbnb_reco1_mcc9/extbnb_C2/00/00/74/61/larcv_wholeview_b0810614-44ce-42f4-b66a-557f29885dd4.root'
p825
aS'/pnfs/uboone/data/uboone/larcv_wholeview/prod_v08_00_00_01/data_extbnb_reco1_mcc9/extbnb_C2/00/00/73/27/larcv_wholeview_5068eff6-da06-47f1-9b5a-47214abc9007.root'
p826
aS'/pnfs/uboone/data/uboone/larcv_wholeview/prod_v08_00_00_01/data_extbnb_reco1_mcc9/extbnb_C2/00/00/74/42/larcv_wholeview_d25f037f-8c3d-433a-af50-ec4aaf98846b.root'
p827
aS'/pnfs/uboone/data/uboone/larcv_wholeview/prod_v08_00_00_01/data_extbnb_reco1_mcc9/extbnb_C2/00/00/74/73/larcv_wholeview_cf185995-db00-4cd1-b6f0-2c675ed087e3.root'
p828
aS'/pnfs/uboone/data/uboone/larcv_wholeview/prod_v08_00_00_01/data_extbnb_reco1_mcc9/extbnb_C2/00/00/74/66/larcv_wholeview_b8617374-1df6-4198-b95d-6cda317baf77.root'
p829
aS'/pnfs/uboone/data/uboone/larcv_wholeview/prod_v08_00_00_01/data_extbnb_reco1_mcc9/extbnb_C2/00/00/74/61/larcv_wholeview_f0ebc234-9d7f-479e-ac02-b123414ef878.root'
p830
aS'/pnfs/uboone/data/uboone/larcv_wholeview/prod_v08_00_00_01/data_extbnb_reco1_mcc9/extbnb_C2/00/00/74/66/larcv_wholeview_23db1848-0094-459c-b9ad-08ff4d470e85.root'
p831
aS'/pnfs/uboone/data/uboone/larcv_wholeview/prod_v08_00_00_01/data_extbnb_reco1_mcc9/extbnb_C2/00/00/74/59/larcv_wholeview_f6cb9517-07a6-4888-a794-339740de75d0.root'
p832
aS'/pnfs/uboone/data/uboone/larcv_wholeview/prod_v08_00_00_01/data_extbnb_reco1_mcc9/extbnb_C2/00/00/73/92/larcv_wholeview_3a04f653-dac7-4ed8-b1c9-301c0600be9e.root'
p833
aS'/pnfs/uboone/data/uboone/larcv_wholeview/prod_v08_00_00_01/data_extbnb_reco1_mcc9/extbnb_C2/00/00/74/73/larcv_wholeview_d0249967-2d06-4699-aeb1-113d2ea1bab1.root'
p834
aS'/pnfs/uboone/data/uboone/larcv_wholeview/prod_v08_00_00_01/data_extbnb_reco1_mcc9/extbnb_C2/00/00/74/66/larcv_wholeview_af98f370-39d0-4d3a-b586-025907806a1b.root'
p835
aS'/pnfs/uboone/data/uboone/larcv_wholeview/prod_v08_00_00_01/data_extbnb_reco1_mcc9/extbnb_C2/00/00/74/36/larcv_wholeview_cbf4fc1b-5395-40a2-923f-51f0a0987348.root'
p836
aS'/pnfs/uboone/data/uboone/larcv_wholeview/prod_v08_00_00_01/data_extbnb_reco1_mcc9/extbnb_C2/00/00/74/66/larcv_wholeview_26b78a8a-2893-45d0-b72f-213039e616e1.root'
p837
aS'/pnfs/uboone/data/uboone/larcv_wholeview/prod_v08_00_00_01/data_extbnb_reco1_mcc9/extbnb_C2/00/00/74/66/larcv_wholeview_a39522a7-2b1e-41af-91e1-5f4c2bd10fb1.root'
p838
aS'/pnfs/uboone/data/uboone/larcv_wholeview/prod_v08_00_00_01/data_extbnb_reco1_mcc9/extbnb_C2/00/00/74/66/larcv_wholeview_6e3ac611-63bf-4f7e-8719-14c76c1bf780.root'
p839
aS'/pnfs/uboone/data/uboone/larcv_wholeview/prod_v08_00_00_01/data_extbnb_reco1_mcc9/extbnb_C2/00/00/73/91/larcv_wholeview_36118f25-b565-4f76-a1e7-60555ab1340b.root'
p840
aS'/pnfs/uboone/data/uboone/larcv_wholeview/prod_v08_00_00_01/data_extbnb_reco1_mcc9/extbnb_C2/00/00/74/62/larcv_wholeview_1e70c8a0-e977-4c17-be5e-f00b5add46be.root'
p841
aS'/pnfs/uboone/data/uboone/larcv_wholeview/prod_v08_00_00_01/data_extbnb_reco1_mcc9/extbnb_C2/00/00/74/64/larcv_wholeview_735bd5a6-7167-4ea3-8fb3-c3d1ac3b93bf.root'
p842
aS'/pnfs/uboone/data/uboone/larcv_wholeview/prod_v08_00_00_01/data_extbnb_reco1_mcc9/extbnb_C2/00/00/73/91/larcv_wholeview_81a1a501-2487-4b90-9425-94784d68debc.root'
p843
aS'/pnfs/uboone/data/uboone/larcv_wholeview/prod_v08_00_00_01/data_extbnb_reco1_mcc9/extbnb_C2/00/00/74/61/larcv_wholeview_8ddb93fc-221b-451d-b55f-852377804d5d.root'
p844
aS'/pnfs/uboone/data/uboone/larcv_wholeview/prod_v08_00_00_01/data_extbnb_reco1_mcc9/extbnb_C2/00/00/73/91/larcv_wholeview_11598de3-bd87-48d7-8cc8-28ab8ccb04d0.root'
p845
aS'/pnfs/uboone/data/uboone/larcv_wholeview/prod_v08_00_00_01/data_extbnb_reco1_mcc9/extbnb_C2/00/00/74/66/larcv_wholeview_f68f1d9d-314d-4eb9-963a-f91d41a35575.root'
p846
aS'/pnfs/uboone/data/uboone/larcv_wholeview/prod_v08_00_00_01/data_extbnb_reco1_mcc9/extbnb_C2/00/00/73/93/larcv_wholeview_5d0cb311-cc58-442f-8d43-67693a2068ec.root'
p847
aS'/pnfs/uboone/data/uboone/larcv_wholeview/prod_v08_00_00_01/data_extbnb_reco1_mcc9/extbnb_C2/00/00/74/00/larcv_wholeview_1a68d2a2-2c7a-456d-9267-69f088e381b7.root'
p848
aS'/pnfs/uboone/data/uboone/larcv_wholeview/prod_v08_00_00_01/data_extbnb_reco1_mcc9/extbnb_C2/00/00/74/65/larcv_wholeview_ca55c824-60f8-46c3-95ba-27d0517fffed.root'
p849
aS'/pnfs/uboone/data/uboone/larcv_wholeview/prod_v08_00_00_01/data_extbnb_reco1_mcc9/extbnb_C2/00/00/74/61/larcv_wholeview_f5480781-8d04-4b95-b606-5a1bbe33ad52.root'
p850
aS'/pnfs/uboone/data/uboone/larcv_wholeview/prod_v08_00_00_01/data_extbnb_reco1_mcc9/extbnb_C2/00/00/73/92/larcv_wholeview_09a72339-557c-4f03-8546-9cc63b3e462f.root'
p851
aS'/pnfs/uboone/data/uboone/larcv_wholeview/prod_v08_00_00_01/data_extbnb_reco1_mcc9/extbnb_C2/00/00/73/91/larcv_wholeview_9e584c3a-712d-4203-a8a5-03a8c322929a.root'
p852
aS'/pnfs/uboone/data/uboone/larcv_wholeview/prod_v08_00_00_01/data_extbnb_reco1_mcc9/extbnb_C2/00/00/73/97/larcv_wholeview_146c093b-0e6d-4ee8-beaf-60964c1f030a.root'
p853
aS'/pnfs/uboone/data/uboone/larcv_wholeview/prod_v08_00_00_01/data_extbnb_reco1_mcc9/extbnb_C2/00/00/74/66/larcv_wholeview_ac429171-a861-4163-90cb-656026ddce05.root'
p854
aS'/pnfs/uboone/data/uboone/larcv_wholeview/prod_v08_00_00_01/data_extbnb_reco1_mcc9/extbnb_C2/00/00/74/66/larcv_wholeview_8810dfc7-6a37-42c6-947e-e7c49008b16f.root'
p855
aS'/pnfs/uboone/data/uboone/larcv_wholeview/prod_v08_00_00_01/data_extbnb_reco1_mcc9/extbnb_C2/00/00/74/57/larcv_wholeview_86010102-7c11-4231-939c-8dac52ea65bb.root'
p856
aS'/pnfs/uboone/data/uboone/larcv_wholeview/prod_v08_00_00_01/data_extbnb_reco1_mcc9/extbnb_C2/00/00/74/00/larcv_wholeview_52c716e2-59b5-4683-bc02-1d880a783839.root'
p857
aS'/pnfs/uboone/data/uboone/larcv_wholeview/prod_v08_00_00_01/data_extbnb_reco1_mcc9/extbnb_C2/00/00/74/66/larcv_wholeview_210f4fa4-3e98-4f0f-9036-609f8b954e1c.root'
p858
aS'/pnfs/uboone/data/uboone/larcv_wholeview/prod_v08_00_00_01/data_extbnb_reco1_mcc9/extbnb_C2/00/00/73/91/larcv_wholeview_53b71cfb-ddba-4104-94fb-982607537df0.root'
p859
aS'/pnfs/uboone/data/uboone/larcv_wholeview/prod_v08_00_00_01/data_extbnb_reco1_mcc9/extbnb_C2/00/00/74/66/larcv_wholeview_e6eb6e9b-6277-4c09-a175-be63c50b322a.root'
p860
aS'/pnfs/uboone/data/uboone/larcv_wholeview/prod_v08_00_00_01/data_extbnb_reco1_mcc9/extbnb_C2/00/00/73/98/larcv_wholeview_94e071f1-91cf-4f55-b46e-6349a59621b2.root'
p861
aS'/pnfs/uboone/data/uboone/larcv_wholeview/prod_v08_00_00_01/data_extbnb_reco1_mcc9/extbnb_C2/00/00/74/00/larcv_wholeview_0af5274c-cf09-4f8e-9b1a-888474af7ef9.root'
p862
aS'/pnfs/uboone/data/uboone/larcv_wholeview/prod_v08_00_00_01/data_extbnb_reco1_mcc9/extbnb_C2/00/00/74/66/larcv_wholeview_ddb45697-cda6-47e6-a313-ce65c5f9b1b8.root'
p863
aS'/pnfs/uboone/data/uboone/larcv_wholeview/prod_v08_00_00_01/data_extbnb_reco1_mcc9/extbnb_C2/00/00/74/18/larcv_wholeview_1d952631-866a-466f-84d1-b2dbafac8e01.root'
p864
aS'/pnfs/uboone/data/uboone/larcv_wholeview/prod_v08_00_00_01/data_extbnb_reco1_mcc9/extbnb_C2/00/00/73/91/larcv_wholeview_1fb3017c-6676-4dcd-bdbc-67a87eafa07d.root'
p865
aS'/pnfs/uboone/data/uboone/larcv_wholeview/prod_v08_00_00_01/data_extbnb_reco1_mcc9/extbnb_C2/00/00/74/03/larcv_wholeview_adb6f6c8-bf14-42f2-b843-edd3d902bf64.root'
p866
aS'/pnfs/uboone/data/uboone/larcv_wholeview/prod_v08_00_00_01/data_extbnb_reco1_mcc9/extbnb_C2/00/00/73/93/larcv_wholeview_46b44cf5-a9f5-49a6-9284-fe94456ed453.root'
p867
aS'/pnfs/uboone/data/uboone/larcv_wholeview/prod_v08_00_00_01/data_extbnb_reco1_mcc9/extbnb_C2/00/00/74/61/larcv_wholeview_2a539afb-8dc4-4b48-a262-1d445e75c2cc.root'
p868
aS'/pnfs/uboone/data/uboone/larcv_wholeview/prod_v08_00_00_01/data_extbnb_reco1_mcc9/extbnb_C2/00/00/73/45/larcv_wholeview_60e336e3-38bc-4422-9fb5-ec621907e5dc.root'
p869
aS'/pnfs/uboone/data/uboone/larcv_wholeview/prod_v08_00_00_01/data_extbnb_reco1_mcc9/extbnb_C2/00/00/74/03/larcv_wholeview_d71afff7-078f-4dca-849b-c38c0ac9816f.root'
p870
aS'/pnfs/uboone/data/uboone/larcv_wholeview/prod_v08_00_00_01/data_extbnb_reco1_mcc9/extbnb_C2/00/00/74/66/larcv_wholeview_9a3091a2-f8c9-4314-91d4-6b8abc168fa0.root'
p871
aS'/pnfs/uboone/data/uboone/larcv_wholeview/prod_v08_00_00_01/data_extbnb_reco1_mcc9/extbnb_C2/00/00/74/00/larcv_wholeview_536a8c2c-6fea-43f4-af40-02904512adef.root'
p872
aS'/pnfs/uboone/data/uboone/larcv_wholeview/prod_v08_00_00_01/data_extbnb_reco1_mcc9/extbnb_C2/00/00/74/03/larcv_wholeview_f3f4d6fe-df3d-413e-ad2e-c13e961f2079.root'
p873
aS'/pnfs/uboone/data/uboone/larcv_wholeview/prod_v08_00_00_01/data_extbnb_reco1_mcc9/extbnb_C2/00/00/74/71/larcv_wholeview_008afd73-143f-4ab5-b201-fb9a6c9f97c8.root'
p874
aS'/pnfs/uboone/data/uboone/larcv_wholeview/prod_v08_00_00_01/data_extbnb_reco1_mcc9/extbnb_C2/00/00/73/94/larcv_wholeview_c198a0b6-df68-4921-9c96-7818d809934f.root'
p875
aS'/pnfs/uboone/data/uboone/larcv_wholeview/prod_v08_00_00_01/data_extbnb_reco1_mcc9/extbnb_C2/00/00/74/61/larcv_wholeview_e337a511-1fa9-4161-b739-a975e210fbe1.root'
p876
aS'/pnfs/uboone/data/uboone/larcv_wholeview/prod_v08_00_00_01/data_extbnb_reco1_mcc9/extbnb_C2/00/00/74/61/larcv_wholeview_e1d3b739-f14c-45b3-85b3-4b573190b5d2.root'
p877
aS'/pnfs/uboone/data/uboone/larcv_wholeview/prod_v08_00_00_01/data_extbnb_reco1_mcc9/extbnb_C2/00/00/74/69/larcv_wholeview_6be16071-ed4b-47bd-b879-e38a7b67fba1.root'
p878
aS'/pnfs/uboone/data/uboone/larcv_wholeview/prod_v08_00_00_01/data_extbnb_reco1_mcc9/extbnb_C2/00/00/74/63/larcv_wholeview_27258435-9516-4273-8745-9a32dce51069.root'
p879
aS'/pnfs/uboone/data/uboone/larcv_wholeview/prod_v08_00_00_01/data_extbnb_reco1_mcc9/extbnb_C2/00/00/74/73/larcv_wholeview_3c654d6d-7ff3-48b2-bd9d-ce6b0b078ffb.root'
p880
aS'/pnfs/uboone/data/uboone/larcv_wholeview/prod_v08_00_00_01/data_extbnb_reco1_mcc9/extbnb_C2/00/00/74/00/larcv_wholeview_d2143465-bd2f-478c-98a8-0487a8e9c041.root'
p881
aS'/pnfs/uboone/data/uboone/larcv_wholeview/prod_v08_00_00_01/data_extbnb_reco1_mcc9/extbnb_C2/00/00/74/57/larcv_wholeview_0a5a4d75-25b7-489e-8f76-36b27a17d48a.root'
p882
aS'/pnfs/uboone/data/uboone/larcv_wholeview/prod_v08_00_00_01/data_extbnb_reco1_mcc9/extbnb_C2/00/00/74/68/larcv_wholeview_694400c6-8bf0-4795-9d0e-06842492a3f5.root'
p883
aS'/pnfs/uboone/data/uboone/larcv_wholeview/prod_v08_00_00_01/data_extbnb_reco1_mcc9/extbnb_C2/00/00/74/69/larcv_wholeview_e9301b21-f7bd-4cc8-a07f-35b343bb49fe.root'
p884
aS'/pnfs/uboone/data/uboone/larcv_wholeview/prod_v08_00_00_01/data_extbnb_reco1_mcc9/extbnb_C2/00/00/74/19/larcv_wholeview_b7c4d532-37b2-4665-b2fa-13156c2df9d3.root'
p885
aS'/pnfs/uboone/data/uboone/larcv_wholeview/prod_v08_00_00_01/data_extbnb_reco1_mcc9/extbnb_C2/00/00/74/73/larcv_wholeview_c95091ac-04dc-4157-b0c2-1e224b3f86b8.root'
p886
aS'/pnfs/uboone/data/uboone/larcv_wholeview/prod_v08_00_00_01/data_extbnb_reco1_mcc9/extbnb_C2/00/00/74/59/larcv_wholeview_0f7a37e9-5c02-4ebf-8564-1e05446fdbea.root'
p887
aS'/pnfs/uboone/data/uboone/larcv_wholeview/prod_v08_00_00_01/data_extbnb_reco1_mcc9/extbnb_C2/00/00/74/55/larcv_wholeview_332f65ce-ff04-45e5-803a-63470e03f017.root'
p888
aS'/pnfs/uboone/data/uboone/larcv_wholeview/prod_v08_00_00_01/data_extbnb_reco1_mcc9/extbnb_C2/00/00/74/17/larcv_wholeview_73bc4db5-66cd-4b2c-be7c-fe8c8f4eeb9c.root'
p889
aS'/pnfs/uboone/data/uboone/larcv_wholeview/prod_v08_00_00_01/data_extbnb_reco1_mcc9/extbnb_C2/00/00/74/61/larcv_wholeview_ae07242f-5cb9-42a1-873a-19bdacbfb754.root'
p890
aS'/pnfs/uboone/data/uboone/larcv_wholeview/prod_v08_00_00_01/data_extbnb_reco1_mcc9/extbnb_C2/00/00/74/03/larcv_wholeview_688bb5e8-9c7d-4616-bc72-a3c2d70df570.root'
p891
aS'/pnfs/uboone/data/uboone/larcv_wholeview/prod_v08_00_00_01/data_extbnb_reco1_mcc9/extbnb_C2/00/00/73/97/larcv_wholeview_038db70e-cd1c-4197-8e32-67909c5a8282.root'
p892
aS'/pnfs/uboone/data/uboone/larcv_wholeview/prod_v08_00_00_01/data_extbnb_reco1_mcc9/extbnb_C2/00/00/74/00/larcv_wholeview_7326316e-0cdc-402e-8a38-0d7dd5fd0b30.root'
p893
aS'/pnfs/uboone/data/uboone/larcv_wholeview/prod_v08_00_00_01/data_extbnb_reco1_mcc9/extbnb_C2/00/00/74/61/larcv_wholeview_da4e2bb8-bc55-4410-988b-97f881d980bc.root'
p894
aS'/pnfs/uboone/data/uboone/larcv_wholeview/prod_v08_00_00_01/data_extbnb_reco1_mcc9/extbnb_C2/00/00/74/20/larcv_wholeview_13085835-2d0c-40c9-b854-969c81db9cbf.root'
p895
aS'/pnfs/uboone/data/uboone/larcv_wholeview/prod_v08_00_00_01/data_extbnb_reco1_mcc9/extbnb_C2/00/00/73/49/larcv_wholeview_e7256f0e-df20-4a33-af85-bd7a509854b0.root'
p896
aS'/pnfs/uboone/data/uboone/larcv_wholeview/prod_v08_00_00_01/data_extbnb_reco1_mcc9/extbnb_C2/00/00/74/66/larcv_wholeview_fbc02719-5de3-48ca-8d47-145d155fecda.root'
p897
aS'/pnfs/uboone/data/uboone/larcv_wholeview/prod_v08_00_00_01/data_extbnb_reco1_mcc9/extbnb_C2/00/00/74/15/larcv_wholeview_6da66c44-c6c2-4d7d-bd81-b9205f8ecc15.root'
p898
aS'/pnfs/uboone/data/uboone/larcv_wholeview/prod_v08_00_00_01/data_extbnb_reco1_mcc9/extbnb_C2/00/00/74/57/larcv_wholeview_0acc821a-c329-41e3-9986-9bfab1a02c4c.root'
p899
aS'/pnfs/uboone/data/uboone/larcv_wholeview/prod_v08_00_00_01/data_extbnb_reco1_mcc9/extbnb_C2/00/00/74/58/larcv_wholeview_d2af0f66-7601-452b-90e9-6099d512a7e4.root'
p900
aS'/pnfs/uboone/data/uboone/larcv_wholeview/prod_v08_00_00_01/data_extbnb_reco1_mcc9/extbnb_C2/00/00/74/03/larcv_wholeview_152efa42-8296-481b-9994-07d35285cfd3.root'
p901
aS'/pnfs/uboone/data/uboone/larcv_wholeview/prod_v08_00_00_01/data_extbnb_reco1_mcc9/extbnb_C2/00/00/73/93/larcv_wholeview_3b02da4a-027a-43f4-9751-2e5ae6a15090.root'
p902
aS'/pnfs/uboone/data/uboone/larcv_wholeview/prod_v08_00_00_01/data_extbnb_reco1_mcc9/extbnb_C2/00/00/73/91/larcv_wholeview_6d58cdbb-3106-426e-99b6-5639c7f41267.root'
p903
aS'/pnfs/uboone/data/uboone/larcv_wholeview/prod_v08_00_00_01/data_extbnb_reco1_mcc9/extbnb_C2/00/00/74/66/larcv_wholeview_be1e2650-fc22-454a-b790-2f87b4c2dce9.root'
p904
aS'/pnfs/uboone/data/uboone/larcv_wholeview/prod_v08_00_00_01/data_extbnb_reco1_mcc9/extbnb_C2/00/00/74/03/larcv_wholeview_e150d5b2-f3ae-470a-8055-d7df063696bb.root'
p905
aS'/pnfs/uboone/data/uboone/larcv_wholeview/prod_v08_00_00_01/data_extbnb_reco1_mcc9/extbnb_C2/00/00/73/97/larcv_wholeview_9d0aa9c4-24c0-4f2e-a576-4e53b2919311.root'
p906
aS'/pnfs/uboone/data/uboone/larcv_wholeview/prod_v08_00_00_01/data_extbnb_reco1_mcc9/extbnb_C2/00/00/73/97/larcv_wholeview_9343caed-4b20-4cf0-96be-c7bec1a81523.root'
p907
aS'/pnfs/uboone/data/uboone/larcv_wholeview/prod_v08_00_00_01/data_extbnb_reco1_mcc9/extbnb_C2/00/00/73/91/larcv_wholeview_e560a2b2-a099-4df6-9f65-4cad6edcdd6f.root'
p908
aS'/pnfs/uboone/data/uboone/larcv_wholeview/prod_v08_00_00_01/data_extbnb_reco1_mcc9/extbnb_C2/00/00/74/61/larcv_wholeview_b9813d12-5938-45fb-8e4c-efdf41dd8886.root'
p909
aS'/pnfs/uboone/data/uboone/larcv_wholeview/prod_v08_00_00_01/data_extbnb_reco1_mcc9/extbnb_C2/00/00/74/00/larcv_wholeview_c82c85f1-7747-4c24-82b5-a7999e8bbf50.root'
p910
aS'/pnfs/uboone/data/uboone/larcv_wholeview/prod_v08_00_00_01/data_extbnb_reco1_mcc9/extbnb_C2/00/00/74/58/larcv_wholeview_edd5eb0e-55dc-4918-8634-691b107db1d5.root'
p911
aS'/pnfs/uboone/data/uboone/larcv_wholeview/prod_v08_00_00_01/data_extbnb_reco1_mcc9/extbnb_C2/00/00/74/01/larcv_wholeview_c1fcbcd2-a55a-4fd4-93b6-424e69103624.root'
p912
aS'/pnfs/uboone/data/uboone/larcv_wholeview/prod_v08_00_00_01/data_extbnb_reco1_mcc9/extbnb_C2/00/00/74/66/larcv_wholeview_9236d9f5-09e7-45a9-b5b9-aa4c7d34fa8a.root'
p913
aS'/pnfs/uboone/data/uboone/larcv_wholeview/prod_v08_00_00_01/data_extbnb_reco1_mcc9/extbnb_C2/00/00/73/93/larcv_wholeview_65a6c604-2859-4c91-8419-2035bf0821f1.root'
p914
aS'/pnfs/uboone/data/uboone/larcv_wholeview/prod_v08_00_00_01/data_extbnb_reco1_mcc9/extbnb_C2/00/00/73/94/larcv_wholeview_c2710474-819a-41db-8125-bfc1e24579d8.root'
p915
aS'/pnfs/uboone/data/uboone/larcv_wholeview/prod_v08_00_00_01/data_extbnb_reco1_mcc9/extbnb_C2/00/00/73/91/larcv_wholeview_ae75240f-9e4d-4e67-96fb-3b49d9b08abb.root'
p916
aS'/pnfs/uboone/data/uboone/larcv_wholeview/prod_v08_00_00_01/data_extbnb_reco1_mcc9/extbnb_C2/00/00/74/65/larcv_wholeview_9e444b02-608e-4bea-b096-a6166e30e6cb.root'
p917
aS'/pnfs/uboone/data/uboone/larcv_wholeview/prod_v08_00_00_01/data_extbnb_reco1_mcc9/extbnb_C2/00/00/74/21/larcv_wholeview_579c3277-6149-4a40-a2c6-8bfea434de45.root'
p918
aS'/pnfs/uboone/data/uboone/larcv_wholeview/prod_v08_00_00_01/data_extbnb_reco1_mcc9/extbnb_C2/00/00/74/20/larcv_wholeview_30de0ee3-3117-49fa-bfb4-05bafdac7f73.root'
p919
aS'/pnfs/uboone/data/uboone/larcv_wholeview/prod_v08_00_00_01/data_extbnb_reco1_mcc9/extbnb_C2/00/00/74/66/larcv_wholeview_531b075e-0616-499a-a6cf-a309643664ed.root'
p920
aS'/pnfs/uboone/data/uboone/larcv_wholeview/prod_v08_00_00_01/data_extbnb_reco1_mcc9/extbnb_C2/00/00/74/57/larcv_wholeview_20cc3124-fd14-4382-80f7-48fc8c7b1641.root'
p921
aS'/pnfs/uboone/data/uboone/larcv_wholeview/prod_v08_00_00_01/data_extbnb_reco1_mcc9/extbnb_C2/00/00/73/98/larcv_wholeview_f3fbf27b-846e-41c7-ae02-5532a584f84e.root'
p922
aS'/pnfs/uboone/data/uboone/larcv_wholeview/prod_v08_00_00_01/data_extbnb_reco1_mcc9/extbnb_C2/00/00/73/91/larcv_wholeview_8173032d-ee9a-4e8f-98f3-e95c95274aff.root'
p923
aS'/pnfs/uboone/data/uboone/larcv_wholeview/prod_v08_00_00_01/data_extbnb_reco1_mcc9/extbnb_C2/00/00/74/66/larcv_wholeview_4568e0f2-2173-4588-80a2-310dc7dd731a.root'
p924
aS'/pnfs/uboone/data/uboone/larcv_wholeview/prod_v08_00_00_01/data_extbnb_reco1_mcc9/extbnb_C2/00/00/74/66/larcv_wholeview_f4f00f2b-8bb1-4496-9edd-7c959607b6d4.root'
p925
aS'/pnfs/uboone/data/uboone/larcv_wholeview/prod_v08_00_00_01/data_extbnb_reco1_mcc9/extbnb_C2/00/00/74/66/larcv_wholeview_86a64ee3-c727-4b14-8200-4b3dbb5408ec.root'
p926
aS'/pnfs/uboone/data/uboone/larcv_wholeview/prod_v08_00_00_01/data_extbnb_reco1_mcc9/extbnb_C2/00/00/74/73/larcv_wholeview_83cc8614-7881-4b25-b0fc-f32145057a0d.root'
p927
aS'/pnfs/uboone/data/uboone/larcv_wholeview/prod_v08_00_00_01/data_extbnb_reco1_mcc9/extbnb_C2/00/00/74/61/larcv_wholeview_738c752e-433f-404d-b393-b7383a222c26.root'
p928
aS'/pnfs/uboone/data/uboone/larcv_wholeview/prod_v08_00_00_01/data_extbnb_reco1_mcc9/extbnb_C2/00/00/73/91/larcv_wholeview_267e37f7-d83b-46ea-9520-9162254ef7f1.root'
p929
aS'/pnfs/uboone/data/uboone/larcv_wholeview/prod_v08_00_00_01/data_extbnb_reco1_mcc9/extbnb_C2/00/00/73/91/larcv_wholeview_b2ede93c-f4f3-4d20-8f3f-4f3e7222c9e8.root'
p930
aS'/pnfs/uboone/data/uboone/larcv_wholeview/prod_v08_00_00_01/data_extbnb_reco1_mcc9/extbnb_C2/00/00/73/93/larcv_wholeview_36668169-d945-44dd-8b63-c1c42bb4066c.root'
p931
aS'/pnfs/uboone/data/uboone/larcv_wholeview/prod_v08_00_00_01/data_extbnb_reco1_mcc9/extbnb_C2/00/00/74/66/larcv_wholeview_c62994bb-8753-402e-9d0a-bee82213fec2.root'
p932
aS'/pnfs/uboone/data/uboone/larcv_wholeview/prod_v08_00_00_01/data_extbnb_reco1_mcc9/extbnb_C2/00/00/74/61/larcv_wholeview_e089260e-7763-4a45-855f-55f7d8cf4adc.root'
p933
aS'/pnfs/uboone/data/uboone/larcv_wholeview/prod_v08_00_00_01/data_extbnb_reco1_mcc9/extbnb_C2/00/00/73/91/larcv_wholeview_71f73e6b-c4a0-4a7a-857e-3be44d1ebb12.root'
p934
aS'/pnfs/uboone/data/uboone/larcv_wholeview/prod_v08_00_00_01/data_extbnb_reco1_mcc9/extbnb_C2/00/00/73/91/larcv_wholeview_05e26519-b7cc-4bc3-9f2a-3745a43676a1.root'
p935
aS'/pnfs/uboone/data/uboone/larcv_wholeview/prod_v08_00_00_01/data_extbnb_reco1_mcc9/extbnb_C2/00/00/74/57/larcv_wholeview_9e899806-46fe-4079-bdb9-adf85c07c546.root'
p936
aS'/pnfs/uboone/data/uboone/larcv_wholeview/prod_v08_00_00_01/data_extbnb_reco1_mcc9/extbnb_C2/00/00/74/00/larcv_wholeview_fddf81fb-46de-460c-bc5f-74ef0c7c5437.root'
p937
aS'/pnfs/uboone/data/uboone/larcv_wholeview/prod_v08_00_00_01/data_extbnb_reco1_mcc9/extbnb_C2/00/00/73/91/larcv_wholeview_ede3e53d-f028-4626-9827-d8cd7d9c55b9.root'
p938
aS'/pnfs/uboone/data/uboone/larcv_wholeview/prod_v08_00_00_01/data_extbnb_reco1_mcc9/extbnb_C2/00/00/74/62/larcv_wholeview_ed40346f-d7ca-4581-b7cf-36e06079eb9b.root'
p939
aS'/pnfs/uboone/data/uboone/larcv_wholeview/prod_v08_00_00_01/data_extbnb_reco1_mcc9/extbnb_C2/00/00/73/91/larcv_wholeview_0fb98a11-87fd-467e-ba33-c463d0bfc030.root'
p940
aS'/pnfs/uboone/data/uboone/larcv_wholeview/prod_v08_00_00_01/data_extbnb_reco1_mcc9/extbnb_C2/00/00/73/91/larcv_wholeview_49ed5a03-ef55-49cb-aab4-760b6f78a813.root'
p941
aS'/pnfs/uboone/data/uboone/larcv_wholeview/prod_v08_00_00_01/data_extbnb_reco1_mcc9/extbnb_C2/00/00/73/27/larcv_wholeview_a1eca944-c4b6-4ad3-a72d-37ed5f8cf069.root'
p942
aS'/pnfs/uboone/data/uboone/larcv_wholeview/prod_v08_00_00_01/data_extbnb_reco1_mcc9/extbnb_C2/00/00/74/00/larcv_wholeview_e6a39dd9-59f4-46de-8e54-009f8920de31.root'
p943
aS'/pnfs/uboone/data/uboone/larcv_wholeview/prod_v08_00_00_01/data_extbnb_reco1_mcc9/extbnb_C2/00/00/82/91/larcv_wholeview_1d3e3a6c-adef-42a2-96eb-d17dda452f7a.root'
p944
aS'/pnfs/uboone/data/uboone/larcv_wholeview/prod_v08_00_00_01/data_extbnb_reco1_mcc9/extbnb_C2/00/00/73/34/larcv_wholeview_23b8a947-40e6-41af-a156-c0f2353a875c.root'
p945
aS'/pnfs/uboone/data/uboone/larcv_wholeview/prod_v08_00_00_01/data_extbnb_reco1_mcc9/extbnb_C2/00/00/73/91/larcv_wholeview_8005cab4-f0ca-40ad-af9f-225a405638d2.root'
p946
aS'/pnfs/uboone/data/uboone/larcv_wholeview/prod_v08_00_00_01/data_extbnb_reco1_mcc9/extbnb_C2/00/00/74/66/larcv_wholeview_71e99119-f289-4a08-9ac2-c1c17b87bd0b.root'
p947
aS'/pnfs/uboone/data/uboone/larcv_wholeview/prod_v08_00_00_01/data_extbnb_reco1_mcc9/extbnb_C2/00/00/73/91/larcv_wholeview_55230fed-2c3a-4c42-a9d7-643c6ee50d0c.root'
p948
aS'/pnfs/uboone/data/uboone/larcv_wholeview/prod_v08_00_00_01/data_extbnb_reco1_mcc9/extbnb_C2/00/00/73/26/larcv_wholeview_0da4c5c1-f19d-4d24-b519-36295d3dafa0.root'
p949
aS'/pnfs/uboone/data/uboone/larcv_wholeview/prod_v08_00_00_01/data_extbnb_reco1_mcc9/extbnb_C2/00/00/77/29/larcv_wholeview_00b22947-0c26-421d-af38-13db173642e1.root'
p950
aS'/pnfs/uboone/data/uboone/larcv_wholeview/prod_v08_00_00_01/data_extbnb_reco1_mcc9/extbnb_C2/00/00/83/06/larcv_wholeview_5d5e006e-7845-4c71-ba2e-50bfd379bb56.root'
p951
aS'/pnfs/uboone/data/uboone/larcv_wholeview/prod_v08_00_00_01/data_extbnb_reco1_mcc9/extbnb_C2/00/00/76/25/larcv_wholeview_ad41225b-bd23-4818-89b1-5bf8ccb67c68.root'
p952
aS'/pnfs/uboone/data/uboone/larcv_wholeview/prod_v08_00_00_01/data_extbnb_reco1_mcc9/extbnb_C2/00/00/74/61/larcv_wholeview_c418e387-4fd5-44d1-a584-eff2c5de766d.root'
p953
aS'/pnfs/uboone/data/uboone/larcv_wholeview/prod_v08_00_00_01/data_extbnb_reco1_mcc9/extbnb_C2/00/00/74/57/larcv_wholeview_ef0cfc53-b8c7-427c-a5bc-b96615834e05.root'
p954
a.