(lp0
S'/pnfs/uboone/data/uboone/larlite_reco2d/prod_v08_00_00_01/data_extbnb_reco1_mcc9/extbnb_C2/00/00/74/38/larlite_reco2d_8b346b2a-0a6d-4b3a-8da6-6e101b3a3ecb.root'
p1
aS'/pnfs/uboone/data/uboone/larlite_reco2d/prod_v08_00_00_01/data_extbnb_reco1_mcc9/extbnb_C2/00/00/74/00/larlite_reco2d_f19d2bcd-7d69-4e6a-aa22-a344306ecabb.root'
p2
aS'/pnfs/uboone/data/uboone/larlite_reco2d/prod_v08_00_00_01/data_extbnb_reco1_mcc9/extbnb_C2/00/00/74/44/larlite_reco2d_95b4d294-5a51-44a9-86f0-a55d046a6b5d.root'
p3
aS'/pnfs/uboone/data/uboone/larlite_reco2d/prod_v08_00_00_01/data_extbnb_reco1_mcc9/extbnb_C2/00/00/73/98/larlite_reco2d_3620e6b6-80bf-41c0-84dc-1d09768516d0.root'
p4
aS'/pnfs/uboone/data/uboone/larlite_reco2d/prod_v08_00_00_01/data_extbnb_reco1_mcc9/extbnb_C2/00/00/74/42/larlite_reco2d_358eec76-81df-46d2-9de5-3bf91498f6a3.root'
p5
aS'/pnfs/uboone/data/uboone/larlite_reco2d/prod_v08_00_00_01/data_extbnb_reco1_mcc9/extbnb_C2/00/00/74/42/larlite_reco2d_ec11a639-0190-4750-a1fc-2e4090f65d8c.root'
p6
aS'/pnfs/uboone/data/uboone/larlite_reco2d/prod_v08_00_00_01/data_extbnb_reco1_mcc9/extbnb_C2/00/00/74/57/larlite_reco2d_bb2d188a-e9bd-4687-a713-1200f3fe18c7.root'
p7
aS'/pnfs/uboone/data/uboone/larlite_reco2d/prod_v08_00_00_01/data_extbnb_reco1_mcc9/extbnb_C2/00/00/74/42/larlite_reco2d_3d78a4a1-017f-4e00-b140-02bdbe9cab4d.root'
p8
aS'/pnfs/uboone/data/uboone/larlite_reco2d/prod_v08_00_00_01/data_extbnb_reco1_mcc9/extbnb_C2/00/00/73/49/larlite_reco2d_2364056e-e3ed-4cee-979c-14a4f86057c4.root'
p9
aS'/pnfs/uboone/data/uboone/larlite_reco2d/prod_v08_00_00_01/data_extbnb_reco1_mcc9/extbnb_C2/00/00/73/98/larlite_reco2d_fcfb8dab-1064-4a02-812b-c0ca47ef2920.root'
p10
aS'/pnfs/uboone/data/uboone/larlite_reco2d/prod_v08_00_00_01/data_extbnb_reco1_mcc9/extbnb_C2/00/00/74/57/larlite_reco2d_e1dfa3d2-b480-43fa-b02c-f7c7bb3dcfac.root'
p11
aS'/pnfs/uboone/data/uboone/larlite_reco2d/prod_v08_00_00_01/data_extbnb_reco1_mcc9/extbnb_C2/00/00/74/44/larlite_reco2d_eef588dc-7fec-4296-b250-db21fb88bdba.root'
p12
aS'/pnfs/uboone/data/uboone/larlite_reco2d/prod_v08_00_00_01/data_extbnb_reco1_mcc9/extbnb_C2/00/00/74/61/larlite_reco2d_12342731-3e02-4474-8d19-2904be742658.root'
p13
aS'/pnfs/uboone/data/uboone/larlite_reco2d/prod_v08_00_00_01/data_extbnb_reco1_mcc9/extbnb_C2/00/00/74/42/larlite_reco2d_09591fac-985d-49a5-b55c-c2ba92a91b4d.root'
p14
aS'/pnfs/uboone/data/uboone/larlite_reco2d/prod_v08_00_00_01/data_extbnb_reco1_mcc9/extbnb_C2/00/00/74/42/larlite_reco2d_8afd61b8-12d5-4630-946e-f3c944d1fec7.root'
p15
aS'/pnfs/uboone/data/uboone/larlite_reco2d/prod_v08_00_00_01/data_extbnb_reco1_mcc9/extbnb_C2/00/00/74/57/larlite_reco2d_2fb85d5b-0948-4d60-8d9b-6e705b2c4b6e.root'
p16
aS'/pnfs/uboone/data/uboone/larlite_reco2d/prod_v08_00_00_01/data_extbnb_reco1_mcc9/extbnb_C2/00/00/74/42/larlite_reco2d_27f6b915-b60c-47af-a9ab-f4c25fd16831.root'
p17
aS'/pnfs/uboone/data/uboone/larlite_reco2d/prod_v08_00_00_01/data_extbnb_reco1_mcc9/extbnb_C2/00/00/74/57/larlite_reco2d_f81d2613-623d-4bbb-8ac1-7273c71dfdbd.root'
p18
aS'/pnfs/uboone/data/uboone/larlite_reco2d/prod_v08_00_00_01/data_extbnb_reco1_mcc9/extbnb_C2/00/00/74/44/larlite_reco2d_d08854bb-6f39-46f1-b74f-18eeca3e3aa5.root'
p19
aS'/pnfs/uboone/data/uboone/larlite_reco2d/prod_v08_00_00_01/data_extbnb_reco1_mcc9/extbnb_C2/00/00/74/36/larlite_reco2d_a5869de0-710e-4a01-b1ae-a5827a7912bf.root'
p20
aS'/pnfs/uboone/data/uboone/larlite_reco2d/prod_v08_00_00_01/data_extbnb_reco1_mcc9/extbnb_C2/00/00/74/37/larlite_reco2d_6e89ee93-7703-4d00-8b45-af3c6462a519.root'
p21
aS'/pnfs/uboone/data/uboone/larlite_reco2d/prod_v08_00_00_01/data_extbnb_reco1_mcc9/extbnb_C2/00/00/74/37/larlite_reco2d_b40b8b1d-e537-4b17-bf0b-df39b1b90fca.root'
p22
aS'/pnfs/uboone/data/uboone/larlite_reco2d/prod_v08_00_00_01/data_extbnb_reco1_mcc9/extbnb_C2/00/00/73/91/larlite_reco2d_e79ba4eb-62e7-4b7c-9972-58c16443553d.root'
p23
aS'/pnfs/uboone/data/uboone/larlite_reco2d/prod_v08_00_00_01/data_extbnb_reco1_mcc9/extbnb_C2/00/00/74/40/larlite_reco2d_edb1583f-efc9-40c2-a3e3-03f077421f42.root'
p24
aS'/pnfs/uboone/data/uboone/larlite_reco2d/prod_v08_00_00_01/data_extbnb_reco1_mcc9/extbnb_C2/00/00/73/49/larlite_reco2d_65810c99-cc4f-4807-b7e9-b59a3f5e77e3.root'
p25
aS'/pnfs/uboone/data/uboone/larlite_reco2d/prod_v08_00_00_01/data_extbnb_reco1_mcc9/extbnb_C2/00/00/74/42/larlite_reco2d_e29a5716-2abc-43aa-942a-5f7fe4b0a768.root'
p26
aS'/pnfs/uboone/data/uboone/larlite_reco2d/prod_v08_00_00_01/data_extbnb_reco1_mcc9/extbnb_C2/00/00/74/34/larlite_reco2d_c5c2fed2-2222-4ca0-aecf-901d6b1c3afa.root'
p27
aS'/pnfs/uboone/data/uboone/larlite_reco2d/prod_v08_00_00_01/data_extbnb_reco1_mcc9/extbnb_C2/00/00/74/42/larlite_reco2d_d65c5554-cc61-4406-9f33-d6a245a7f70b.root'
p28
aS'/pnfs/uboone/data/uboone/larlite_reco2d/prod_v08_00_00_01/data_extbnb_reco1_mcc9/extbnb_C2/00/00/73/93/larlite_reco2d_7b7af841-fde2-4fa6-ae0d-3195ac90036a.root'
p29
aS'/pnfs/uboone/data/uboone/larlite_reco2d/prod_v08_00_00_01/data_extbnb_reco1_mcc9/extbnb_C2/00/00/74/57/larlite_reco2d_8e9a6729-fd89-441d-8303-366c846b7b89.root'
p30
aS'/pnfs/uboone/data/uboone/larlite_reco2d/prod_v08_00_00_01/data_extbnb_reco1_mcc9/extbnb_C2/00/00/73/91/larlite_reco2d_60a6219a-df48-4ac1-92c6-b2466210b66a.root'
p31
aS'/pnfs/uboone/data/uboone/larlite_reco2d/prod_v08_00_00_01/data_extbnb_reco1_mcc9/extbnb_C2/00/00/74/36/larlite_reco2d_9dea54e5-996b-438a-b3d0-1fa70c6733a5.root'
p32
aS'/pnfs/uboone/data/uboone/larlite_reco2d/prod_v08_00_00_01/data_extbnb_reco1_mcc9/extbnb_C2/00/00/73/98/larlite_reco2d_2747670a-def7-4dd9-8949-87ea02d853ed.root'
p33
aS'/pnfs/uboone/data/uboone/larlite_reco2d/prod_v08_00_00_01/data_extbnb_reco1_mcc9/extbnb_C2/00/00/73/91/larlite_reco2d_bb16b504-365d-409a-9249-f41a4d0c1aaf.root'
p34
aS'/pnfs/uboone/data/uboone/larlite_reco2d/prod_v08_00_00_01/data_extbnb_reco1_mcc9/extbnb_C2/00/00/74/41/larlite_reco2d_62904189-c681-42bd-8df9-a145b56684d7.root'
p35
aS'/pnfs/uboone/data/uboone/larlite_reco2d/prod_v08_00_00_01/data_extbnb_reco1_mcc9/extbnb_C2/00/00/74/57/larlite_reco2d_d581900f-8a4a-4575-b1bd-87c005371cf5.root'
p36
aS'/pnfs/uboone/data/uboone/larlite_reco2d/prod_v08_00_00_01/data_extbnb_reco1_mcc9/extbnb_C2/00/00/74/41/larlite_reco2d_3f9aa6df-8d31-47e0-b964-1e5bb8f97753.root'
p37
aS'/pnfs/uboone/data/uboone/larlite_reco2d/prod_v08_00_00_01/data_extbnb_reco1_mcc9/extbnb_C2/00/00/74/03/larlite_reco2d_a7d82f00-7922-4a34-b5f1-ddef46670760.root'
p38
aS'/pnfs/uboone/data/uboone/larlite_reco2d/prod_v08_00_00_01/data_extbnb_reco1_mcc9/extbnb_C2/00/00/74/00/larlite_reco2d_2c7db507-62f6-464d-aaae-81899d2ee007.root'
p39
aS'/pnfs/uboone/data/uboone/larlite_reco2d/prod_v08_00_00_01/data_extbnb_reco1_mcc9/extbnb_C2/00/00/74/44/larlite_reco2d_34273719-8d9f-439f-a9d9-da62535f2536.root'
p40
aS'/pnfs/uboone/data/uboone/larlite_reco2d/prod_v08_00_00_01/data_extbnb_reco1_mcc9/extbnb_C2/00/00/74/56/larlite_reco2d_edc19cc7-bf13-4735-9abe-196f71b92b63.root'
p41
aS'/pnfs/uboone/data/uboone/larlite_reco2d/prod_v08_00_00_01/data_extbnb_reco1_mcc9/extbnb_C2/00/00/74/57/larlite_reco2d_1481571f-74d0-4ad7-9276-8a921176c6e5.root'
p42
aS'/pnfs/uboone/data/uboone/larlite_reco2d/prod_v08_00_00_01/data_extbnb_reco1_mcc9/extbnb_C2/00/00/74/42/larlite_reco2d_11519fa0-d58a-4c66-a2fe-c6299d3ace1c.root'
p43
aS'/pnfs/uboone/data/uboone/larlite_reco2d/prod_v08_00_00_01/data_extbnb_reco1_mcc9/extbnb_C2/00/00/74/61/larlite_reco2d_4c6c2625-5a9b-4488-87eb-c73277ede7b2.root'
p44
aS'/pnfs/uboone/data/uboone/larlite_reco2d/prod_v08_00_00_01/data_extbnb_reco1_mcc9/extbnb_C2/00/00/73/93/larlite_reco2d_08dc7ca3-6f19-41f0-8fdb-4e9318f8fc08.root'
p45
aS'/pnfs/uboone/data/uboone/larlite_reco2d/prod_v08_00_00_01/data_extbnb_reco1_mcc9/extbnb_C2/00/00/73/91/larlite_reco2d_235c3ba7-766c-49c0-bc00-3ee6f15bf252.root'
p46
aS'/pnfs/uboone/data/uboone/larlite_reco2d/prod_v08_00_00_01/data_extbnb_reco1_mcc9/extbnb_C2/00/00/74/57/larlite_reco2d_a157d965-20e2-407c-9732-c4404c441c4a.root'
p47
aS'/pnfs/uboone/data/uboone/larlite_reco2d/prod_v08_00_00_01/data_extbnb_reco1_mcc9/extbnb_C2/00/00/74/58/larlite_reco2d_6e638ac0-4104-411f-a956-23e120a038c7.root'
p48
aS'/pnfs/uboone/data/uboone/larlite_reco2d/prod_v08_00_00_01/data_extbnb_reco1_mcc9/extbnb_C2/00/00/74/58/larlite_reco2d_45b68b52-edb6-48f0-a729-a3faf8bf3396.root'
p49
aS'/pnfs/uboone/data/uboone/larlite_reco2d/prod_v08_00_00_01/data_extbnb_reco1_mcc9/extbnb_C2/00/00/74/57/larlite_reco2d_246ac8b8-c66e-42f1-a8de-f8b26736b486.root'
p50
aS'/pnfs/uboone/data/uboone/larlite_reco2d/prod_v08_00_00_01/data_extbnb_reco1_mcc9/extbnb_C2/00/00/74/41/larlite_reco2d_a35aad4b-4192-4723-af5a-adfe4a2f0416.root'
p51
aS'/pnfs/uboone/data/uboone/larlite_reco2d/prod_v08_00_00_01/data_extbnb_reco1_mcc9/extbnb_C2/00/00/74/40/larlite_reco2d_ab4a2120-bd18-476e-ac42-78126e944435.root'
p52
aS'/pnfs/uboone/data/uboone/larlite_reco2d/prod_v08_00_00_01/data_extbnb_reco1_mcc9/extbnb_C2/00/00/74/34/larlite_reco2d_c6924a97-dab0-44c3-b2cc-7ba4d785ba9c.root'
p53
aS'/pnfs/uboone/data/uboone/larlite_reco2d/prod_v08_00_00_01/data_extbnb_reco1_mcc9/extbnb_C2/00/00/73/49/larlite_reco2d_58c110bb-6290-4022-83b7-944506add8ae.root'
p54
aS'/pnfs/uboone/data/uboone/larlite_reco2d/prod_v08_00_00_01/data_extbnb_reco1_mcc9/extbnb_C2/00/00/74/42/larlite_reco2d_50ecc5f6-cb25-46ca-bc87-0a0d0996b874.root'
p55
aS'/pnfs/uboone/data/uboone/larlite_reco2d/prod_v08_00_00_01/data_extbnb_reco1_mcc9/extbnb_C2/00/00/74/65/larlite_reco2d_4ffba464-9c6f-407d-905c-ad0bcb912575.root'
p56
aS'/pnfs/uboone/data/uboone/larlite_reco2d/prod_v08_00_00_01/data_extbnb_reco1_mcc9/extbnb_C2/00/00/74/00/larlite_reco2d_0d659f96-f3f0-48e6-a479-4dde025394a4.root'
p57
aS'/pnfs/uboone/data/uboone/larlite_reco2d/prod_v08_00_00_01/data_extbnb_reco1_mcc9/extbnb_C2/00/00/73/92/larlite_reco2d_10815e63-d8ff-4d56-88f2-ed79d5e9b3fb.root'
p58
aS'/pnfs/uboone/data/uboone/larlite_reco2d/prod_v08_00_00_01/data_extbnb_reco1_mcc9/extbnb_C2/00/00/74/00/larlite_reco2d_c7c38de4-5608-4664-a898-b84766ed6b17.root'
p59
aS'/pnfs/uboone/data/uboone/larlite_reco2d/prod_v08_00_00_01/data_extbnb_reco1_mcc9/extbnb_C2/00/00/74/40/larlite_reco2d_a172c42d-19b5-4994-a5b7-f39eb316c119.root'
p60
aS'/pnfs/uboone/data/uboone/larlite_reco2d/prod_v08_00_00_01/data_extbnb_reco1_mcc9/extbnb_C2/00/00/74/03/larlite_reco2d_42af4290-9d98-4f16-b74a-87bc9dabdf26.root'
p61
aS'/pnfs/uboone/data/uboone/larlite_reco2d/prod_v08_00_00_01/data_extbnb_reco1_mcc9/extbnb_C2/00/00/74/61/larlite_reco2d_bdcfee1b-b47d-4094-aa0e-f3deb82b48ff.root'
p62
aS'/pnfs/uboone/data/uboone/larlite_reco2d/prod_v08_00_00_01/data_extbnb_reco1_mcc9/extbnb_C2/00/00/74/57/larlite_reco2d_a9b2e728-2d85-4063-9ecc-18f374c00fdb.root'
p63
aS'/pnfs/uboone/data/uboone/larlite_reco2d/prod_v08_00_00_01/data_extbnb_reco1_mcc9/extbnb_C2/00/00/74/55/larlite_reco2d_ccb1b9cd-ed1a-43e3-86cb-a36ebc276f27.root'
p64
aS'/pnfs/uboone/data/uboone/larlite_reco2d/prod_v08_00_00_01/data_extbnb_reco1_mcc9/extbnb_C2/00/00/74/57/larlite_reco2d_787fb9ae-b553-4c03-b4aa-5f46dd550212.root'
p65
aS'/pnfs/uboone/data/uboone/larlite_reco2d/prod_v08_00_00_01/data_extbnb_reco1_mcc9/extbnb_C2/00/00/74/36/larlite_reco2d_6fb4fe5c-e642-4728-86a4-19e8fa580053.root'
p66
aS'/pnfs/uboone/data/uboone/larlite_reco2d/prod_v08_00_00_01/data_extbnb_reco1_mcc9/extbnb_C2/00/00/74/57/larlite_reco2d_fd61c136-5652-4c62-a669-e787eebed47e.root'
p67
aS'/pnfs/uboone/data/uboone/larlite_reco2d/prod_v08_00_00_01/data_extbnb_reco1_mcc9/extbnb_C2/00/00/74/00/larlite_reco2d_1cad7233-2ace-4c3c-a2eb-29696f00d8b1.root'
p68
aS'/pnfs/uboone/data/uboone/larlite_reco2d/prod_v08_00_00_01/data_extbnb_reco1_mcc9/extbnb_C2/00/00/74/00/larlite_reco2d_7fb039cc-6739-46a7-9aef-c3f1a063e796.root'
p69
aS'/pnfs/uboone/data/uboone/larlite_reco2d/prod_v08_00_00_01/data_extbnb_reco1_mcc9/extbnb_C2/00/00/73/91/larlite_reco2d_8b0d09be-8eaa-41f6-a6ba-cd5098d0ab88.root'
p70
aS'/pnfs/uboone/data/uboone/larlite_reco2d/prod_v08_00_00_01/data_extbnb_reco1_mcc9/extbnb_C2/00/00/73/91/larlite_reco2d_5c3d6cbd-9a16-49d6-91ad-9a8afdb7b641.root'
p71
aS'/pnfs/uboone/data/uboone/larlite_reco2d/prod_v08_00_00_01/data_extbnb_reco1_mcc9/extbnb_C2/00/00/73/49/larlite_reco2d_1682958c-cffa-43cb-a493-ddc51e92d5cf.root'
p72
aS'/pnfs/uboone/data/uboone/larlite_reco2d/prod_v08_00_00_01/data_extbnb_reco1_mcc9/extbnb_C2/00/00/74/59/larlite_reco2d_b175b5a5-cfad-4d4c-b90e-1571c0b01fde.root'
p73
aS'/pnfs/uboone/data/uboone/larlite_reco2d/prod_v08_00_00_01/data_extbnb_reco1_mcc9/extbnb_C2/00/00/74/42/larlite_reco2d_bacfabac-7df7-4cc7-b6af-f76ef1886b05.root'
p74
aS'/pnfs/uboone/data/uboone/larlite_reco2d/prod_v08_00_00_01/data_extbnb_reco1_mcc9/extbnb_C2/00/00/73/93/larlite_reco2d_2541636a-6b8a-46a8-9e65-94c80c9c9ec9.root'
p75
aS'/pnfs/uboone/data/uboone/larlite_reco2d/prod_v08_00_00_01/data_extbnb_reco1_mcc9/extbnb_C2/00/00/74/57/larlite_reco2d_d6e623cd-15d7-4a2a-8d08-674aa3ba5f63.root'
p76
aS'/pnfs/uboone/data/uboone/larlite_reco2d/prod_v08_00_00_01/data_extbnb_reco1_mcc9/extbnb_C2/00/00/74/57/larlite_reco2d_7bc7eae3-fa27-4e54-a9f1-3f4a56caed62.root'
p77
aS'/pnfs/uboone/data/uboone/larlite_reco2d/prod_v08_00_00_01/data_extbnb_reco1_mcc9/extbnb_C2/00/00/74/57/larlite_reco2d_50e60b81-3348-44c1-8177-0aaef855ebf8.root'
p78
aS'/pnfs/uboone/data/uboone/larlite_reco2d/prod_v08_00_00_01/data_extbnb_reco1_mcc9/extbnb_C2/00/00/74/00/larlite_reco2d_5ded4d18-26d8-42c9-bb7f-31510ef5ec70.root'
p79
aS'/pnfs/uboone/data/uboone/larlite_reco2d/prod_v08_00_00_01/data_extbnb_reco1_mcc9/extbnb_C2/00/00/74/40/larlite_reco2d_71ab4c47-9abc-44e6-ab0d-4f27f1e6fe18.root'
p80
aS'/pnfs/uboone/data/uboone/larlite_reco2d/prod_v08_00_00_01/data_extbnb_reco1_mcc9/extbnb_C2/00/00/73/94/larlite_reco2d_45f58157-e293-4f46-969f-ca61f6ece87a.root'
p81
aS'/pnfs/uboone/data/uboone/larlite_reco2d/prod_v08_00_00_01/data_extbnb_reco1_mcc9/extbnb_C2/00/00/74/61/larlite_reco2d_3c0b898c-c79d-423f-b176-62e7166310d6.root'
p82
aS'/pnfs/uboone/data/uboone/larlite_reco2d/prod_v08_00_00_01/data_extbnb_reco1_mcc9/extbnb_C2/00/00/74/42/larlite_reco2d_5632a184-dcee-47f4-85fe-9ca1a50a1993.root'
p83
aS'/pnfs/uboone/data/uboone/larlite_reco2d/prod_v08_00_00_01/data_extbnb_reco1_mcc9/extbnb_C2/00/00/74/03/larlite_reco2d_3cc432f9-a6e4-4943-ad7c-4d326e6a266c.root'
p84
aS'/pnfs/uboone/data/uboone/larlite_reco2d/prod_v08_00_00_01/data_extbnb_reco1_mcc9/extbnb_C2/00/00/73/93/larlite_reco2d_66dc4a50-3bb2-4bea-a686-e43df8fff5fa.root'
p85
aS'/pnfs/uboone/data/uboone/larlite_reco2d/prod_v08_00_00_01/data_extbnb_reco1_mcc9/extbnb_C2/00/00/74/42/larlite_reco2d_4e4205bc-dd4f-460b-94dd-e1fc3bd22d95.root'
p86
aS'/pnfs/uboone/data/uboone/larlite_reco2d/prod_v08_00_00_01/data_extbnb_reco1_mcc9/extbnb_C2/00/00/74/56/larlite_reco2d_17834a1f-0599-4f71-aa36-c36be6a4a19d.root'
p87
aS'/pnfs/uboone/data/uboone/larlite_reco2d/prod_v08_00_00_01/data_extbnb_reco1_mcc9/extbnb_C2/00/00/73/93/larlite_reco2d_2cd2c195-5391-4e96-992f-34c0e5a991c5.root'
p88
aS'/pnfs/uboone/data/uboone/larlite_reco2d/prod_v08_00_00_01/data_extbnb_reco1_mcc9/extbnb_C2/00/00/74/57/larlite_reco2d_34633603-ac36-4d62-a569-7d148c42f43c.root'
p89
aS'/pnfs/uboone/data/uboone/larlite_reco2d/prod_v08_00_00_01/data_extbnb_reco1_mcc9/extbnb_C2/00/00/74/36/larlite_reco2d_2c7afcad-a934-4f23-9a0b-a7f1919d62ba.root'
p90
aS'/pnfs/uboone/data/uboone/larlite_reco2d/prod_v08_00_00_01/data_extbnb_reco1_mcc9/extbnb_C2/00/00/74/57/larlite_reco2d_25a80dbf-983a-4b5f-aa80-810f59c704b9.root'
p91
aS'/pnfs/uboone/data/uboone/larlite_reco2d/prod_v08_00_00_01/data_extbnb_reco1_mcc9/extbnb_C2/00/00/74/40/larlite_reco2d_0e301e13-895d-4a93-ba42-131c0f2cb320.root'
p92
aS'/pnfs/uboone/data/uboone/larlite_reco2d/prod_v08_00_00_01/data_extbnb_reco1_mcc9/extbnb_C2/00/00/74/00/larlite_reco2d_037d224b-8c60-40ab-9c15-43488a97ec31.root'
p93
aS'/pnfs/uboone/data/uboone/larlite_reco2d/prod_v08_00_00_01/data_extbnb_reco1_mcc9/extbnb_C2/00/00/74/00/larlite_reco2d_7beea5fd-1701-408e-a6e1-e3519dc6da0a.root'
p94
aS'/pnfs/uboone/data/uboone/larlite_reco2d/prod_v08_00_00_01/data_extbnb_reco1_mcc9/extbnb_C2/00/00/74/00/larlite_reco2d_e23a7ed7-da2c-453f-b4bc-68e8692f3916.root'
p95
aS'/pnfs/uboone/data/uboone/larlite_reco2d/prod_v08_00_00_01/data_extbnb_reco1_mcc9/extbnb_C2/00/00/74/57/larlite_reco2d_e2f0d604-f07b-4824-a2eb-0fdf58dc18fd.root'
p96
aS'/pnfs/uboone/data/uboone/larlite_reco2d/prod_v08_00_00_01/data_extbnb_reco1_mcc9/extbnb_C2/00/00/74/59/larlite_reco2d_fed32316-426b-462f-9347-d8b231a4534a.root'
p97
aS'/pnfs/uboone/data/uboone/larlite_reco2d/prod_v08_00_00_01/data_extbnb_reco1_mcc9/extbnb_C2/00/00/74/57/larlite_reco2d_06367e3e-0b02-4ef3-a4c1-1f1bbc43d966.root'
p98
aS'/pnfs/uboone/data/uboone/larlite_reco2d/prod_v08_00_00_01/data_extbnb_reco1_mcc9/extbnb_C2/00/00/73/91/larlite_reco2d_bcbb12e5-9d5a-461e-890b-b23c6b22e724.root'
p99
aS'/pnfs/uboone/data/uboone/larlite_reco2d/prod_v08_00_00_01/data_extbnb_reco1_mcc9/extbnb_C2/00/00/74/01/larlite_reco2d_9d3ca2cc-f6ee-4557-bb3a-4b4d10f17716.root'
p100
aS'/pnfs/uboone/data/uboone/larlite_reco2d/prod_v08_00_00_01/data_extbnb_reco1_mcc9/extbnb_C2/00/00/74/40/larlite_reco2d_9dc789b0-f233-4f62-9565-7951eb088432.root'
p101
aS'/pnfs/uboone/data/uboone/larlite_reco2d/prod_v08_00_00_01/data_extbnb_reco1_mcc9/extbnb_C2/00/00/74/42/larlite_reco2d_948b990f-b949-474b-8766-c28d65a02fe5.root'
p102
aS'/pnfs/uboone/data/uboone/larlite_reco2d/prod_v08_00_00_01/data_extbnb_reco1_mcc9/extbnb_C2/00/00/74/00/larlite_reco2d_89c95cfd-e8bf-4565-8bc9-8384382861ce.root'
p103
aS'/pnfs/uboone/data/uboone/larlite_reco2d/prod_v08_00_00_01/data_extbnb_reco1_mcc9/extbnb_C2/00/00/73/49/larlite_reco2d_46531301-628d-448f-8d3f-96672d6e9260.root'
p104
aS'/pnfs/uboone/data/uboone/larlite_reco2d/prod_v08_00_00_01/data_extbnb_reco1_mcc9/extbnb_C2/00/00/73/98/larlite_reco2d_a1206fd5-428c-4f12-a0ca-0291a1aee690.root'
p105
aS'/pnfs/uboone/data/uboone/larlite_reco2d/prod_v08_00_00_01/data_extbnb_reco1_mcc9/extbnb_C2/00/00/74/38/larlite_reco2d_4f6f1648-a817-4854-8482-247a5ad7688c.root'
p106
aS'/pnfs/uboone/data/uboone/larlite_reco2d/prod_v08_00_00_01/data_extbnb_reco1_mcc9/extbnb_C2/00/00/74/41/larlite_reco2d_28a59e63-da40-4ba1-862e-8c6f1df7072d.root'
p107
aS'/pnfs/uboone/data/uboone/larlite_reco2d/prod_v08_00_00_01/data_extbnb_reco1_mcc9/extbnb_C2/00/00/74/44/larlite_reco2d_41c77482-c41c-4251-b9d5-c064a61b0eff.root'
p108
aS'/pnfs/uboone/data/uboone/larlite_reco2d/prod_v08_00_00_01/data_extbnb_reco1_mcc9/extbnb_C2/00/00/74/41/larlite_reco2d_4dadd378-c73d-4070-b206-6de1991e61e9.root'
p109
aS'/pnfs/uboone/data/uboone/larlite_reco2d/prod_v08_00_00_01/data_extbnb_reco1_mcc9/extbnb_C2/00/00/74/00/larlite_reco2d_f85a1e7d-9a0f-42ad-b879-e55284c33476.root'
p110
aS'/pnfs/uboone/data/uboone/larlite_reco2d/prod_v08_00_00_01/data_extbnb_reco1_mcc9/extbnb_C2/00/00/74/57/larlite_reco2d_77c9868c-68d5-441e-8c4b-2fe77f42d03c.root'
p111
aS'/pnfs/uboone/data/uboone/larlite_reco2d/prod_v08_00_00_01/data_extbnb_reco1_mcc9/extbnb_C2/00/00/74/42/larlite_reco2d_ab529b52-e3bf-40ca-b2bb-2e2b133d430c.root'
p112
aS'/pnfs/uboone/data/uboone/larlite_reco2d/prod_v08_00_00_01/data_extbnb_reco1_mcc9/extbnb_C2/00/00/74/57/larlite_reco2d_2124f249-36ee-4a13-8780-460a17a84889.root'
p113
aS'/pnfs/uboone/data/uboone/larlite_reco2d/prod_v08_00_00_01/data_extbnb_reco1_mcc9/extbnb_C2/00/00/73/92/larlite_reco2d_f874e4dc-4a2c-4c61-ba38-1a6c4f2deb0d.root'
p114
aS'/pnfs/uboone/data/uboone/larlite_reco2d/prod_v08_00_00_01/data_extbnb_reco1_mcc9/extbnb_C2/00/00/74/44/larlite_reco2d_ab9ecadc-add0-426f-b713-1ba89c150e0a.root'
p115
aS'/pnfs/uboone/data/uboone/larlite_reco2d/prod_v08_00_00_01/data_extbnb_reco1_mcc9/extbnb_C2/00/00/74/44/larlite_reco2d_2a965737-059b-4f3c-a484-97628dccf5e7.root'
p116
aS'/pnfs/uboone/data/uboone/larlite_reco2d/prod_v08_00_00_01/data_extbnb_reco1_mcc9/extbnb_C2/00/00/73/98/larlite_reco2d_5821f4dd-ebda-45e8-b872-2810441d4902.root'
p117
aS'/pnfs/uboone/data/uboone/larlite_reco2d/prod_v08_00_00_01/data_extbnb_reco1_mcc9/extbnb_C2/00/00/74/57/larlite_reco2d_b2acce5e-d496-4eed-89c1-8b87f56b93fc.root'
p118
aS'/pnfs/uboone/data/uboone/larlite_reco2d/prod_v08_00_00_01/data_extbnb_reco1_mcc9/extbnb_C2/00/00/74/58/larlite_reco2d_affb061e-1d4b-4288-b722-693055b355ce.root'
p119
aS'/pnfs/uboone/data/uboone/larlite_reco2d/prod_v08_00_00_01/data_extbnb_reco1_mcc9/extbnb_C2/00/00/74/55/larlite_reco2d_39b278d8-19e0-4985-911f-0bf7ed994f84.root'
p120
aS'/pnfs/uboone/data/uboone/larlite_reco2d/prod_v08_00_00_01/data_extbnb_reco1_mcc9/extbnb_C2/00/00/74/43/larlite_reco2d_5ecc1a03-bf6d-4598-80f4-026edd9be42e.root'
p121
aS'/pnfs/uboone/data/uboone/larlite_reco2d/prod_v08_00_00_01/data_extbnb_reco1_mcc9/extbnb_C2/00/00/74/42/larlite_reco2d_98de6fbd-7df3-4691-a23b-f40a98421fd1.root'
p122
aS'/pnfs/uboone/data/uboone/larlite_reco2d/prod_v08_00_00_01/data_extbnb_reco1_mcc9/extbnb_C2/00/00/73/93/larlite_reco2d_0a157b71-ce24-447a-b898-39228debab92.root'
p123
aS'/pnfs/uboone/data/uboone/larlite_reco2d/prod_v08_00_00_01/data_extbnb_reco1_mcc9/extbnb_C2/00/00/74/57/larlite_reco2d_b95ccbb5-019a-45ae-9896-8ec9b1411ce7.root'
p124
aS'/pnfs/uboone/data/uboone/larlite_reco2d/prod_v08_00_00_01/data_extbnb_reco1_mcc9/extbnb_C2/00/00/73/49/larlite_reco2d_2cd33a03-6a33-45cd-8be1-b4f8b8dafaf5.root'
p125
aS'/pnfs/uboone/data/uboone/larlite_reco2d/prod_v08_00_00_01/data_extbnb_reco1_mcc9/extbnb_C2/00/00/73/92/larlite_reco2d_dea8fa18-4ecc-4bd0-852b-b1da3a689115.root'
p126
aS'/pnfs/uboone/data/uboone/larlite_reco2d/prod_v08_00_00_01/data_extbnb_reco1_mcc9/extbnb_C2/00/00/73/94/larlite_reco2d_3777c216-46ea-4996-8154-75b618a5baef.root'
p127
aS'/pnfs/uboone/data/uboone/larlite_reco2d/prod_v08_00_00_01/data_extbnb_reco1_mcc9/extbnb_C2/00/00/74/57/larlite_reco2d_adaf7a2a-78e4-47cb-9ddd-54e642f00562.root'
p128
aS'/pnfs/uboone/data/uboone/larlite_reco2d/prod_v08_00_00_01/data_extbnb_reco1_mcc9/extbnb_C2/00/00/73/93/larlite_reco2d_2cec5645-fa01-495c-9e4b-29978ede23c7.root'
p129
aS'/pnfs/uboone/data/uboone/larlite_reco2d/prod_v08_00_00_01/data_extbnb_reco1_mcc9/extbnb_C2/00/00/74/59/larlite_reco2d_6cf6b126-c630-40d3-a59f-8fd547efc95f.root'
p130
aS'/pnfs/uboone/data/uboone/larlite_reco2d/prod_v08_00_00_01/data_extbnb_reco1_mcc9/extbnb_C2/00/00/74/00/larlite_reco2d_f5f6d33d-3cdd-400f-8a92-72e9c1401f22.root'
p131
aS'/pnfs/uboone/data/uboone/larlite_reco2d/prod_v08_00_00_01/data_extbnb_reco1_mcc9/extbnb_C2/00/00/74/57/larlite_reco2d_edfc34ee-de48-4b2e-a0a8-c9003fdae12c.root'
p132
aS'/pnfs/uboone/data/uboone/larlite_reco2d/prod_v08_00_00_01/data_extbnb_reco1_mcc9/extbnb_C2/00/00/74/55/larlite_reco2d_5976386e-9061-4e17-93b9-376fdce97caa.root'
p133
aS'/pnfs/uboone/data/uboone/larlite_reco2d/prod_v08_00_00_01/data_extbnb_reco1_mcc9/extbnb_C2/00/00/74/61/larlite_reco2d_56d25c81-7fed-4918-8a9b-75522fc41168.root'
p134
aS'/pnfs/uboone/data/uboone/larlite_reco2d/prod_v08_00_00_01/data_extbnb_reco1_mcc9/extbnb_C2/00/00/74/41/larlite_reco2d_6d01489a-ed67-4a01-8411-7f76d4ebda58.root'
p135
aS'/pnfs/uboone/data/uboone/larlite_reco2d/prod_v08_00_00_01/data_extbnb_reco1_mcc9/extbnb_C2/00/00/74/64/larlite_reco2d_60fae203-3205-4f78-9d03-c96b3dfd1fad.root'
p136
aS'/pnfs/uboone/data/uboone/larlite_reco2d/prod_v08_00_00_01/data_extbnb_reco1_mcc9/extbnb_C2/00/00/73/94/larlite_reco2d_655bb8cc-e915-4b58-a2eb-bb49d2f12b2a.root'
p137
aS'/pnfs/uboone/data/uboone/larlite_reco2d/prod_v08_00_00_01/data_extbnb_reco1_mcc9/extbnb_C2/00/00/74/56/larlite_reco2d_647bf9d1-8e0d-4fc2-9583-6d09810b57eb.root'
p138
aS'/pnfs/uboone/data/uboone/larlite_reco2d/prod_v08_00_00_01/data_extbnb_reco1_mcc9/extbnb_C2/00/00/73/93/larlite_reco2d_5c3abb74-061f-45ba-bb36-b9adbf42fcd2.root'
p139
aS'/pnfs/uboone/data/uboone/larlite_reco2d/prod_v08_00_00_01/data_extbnb_reco1_mcc9/extbnb_C2/00/00/73/98/larlite_reco2d_7a238fe6-162b-464f-846e-f53219355b62.root'
p140
aS'/pnfs/uboone/data/uboone/larlite_reco2d/prod_v08_00_00_01/data_extbnb_reco1_mcc9/extbnb_C2/00/00/73/49/larlite_reco2d_09fcecf4-d983-460b-ae7c-e97a24a5bdf4.root'
p141
aS'/pnfs/uboone/data/uboone/larlite_reco2d/prod_v08_00_00_01/data_extbnb_reco1_mcc9/extbnb_C2/00/00/74/57/larlite_reco2d_ffb56828-fce6-4076-aaf8-1df68e158006.root'
p142
aS'/pnfs/uboone/data/uboone/larlite_reco2d/prod_v08_00_00_01/data_extbnb_reco1_mcc9/extbnb_C2/00/00/74/03/larlite_reco2d_532dec02-167b-45a8-b0d3-1ce362cc2450.root'
p143
aS'/pnfs/uboone/data/uboone/larlite_reco2d/prod_v08_00_00_01/data_extbnb_reco1_mcc9/extbnb_C2/00/00/74/64/larlite_reco2d_aa9c2a4f-b2c6-4178-ae1c-95d610a6b914.root'
p144
aS'/pnfs/uboone/data/uboone/larlite_reco2d/prod_v08_00_00_01/data_extbnb_reco1_mcc9/extbnb_C2/00/00/74/55/larlite_reco2d_fe8b6189-55d2-4dc5-8cc8-dde599c17279.root'
p145
aS'/pnfs/uboone/data/uboone/larlite_reco2d/prod_v08_00_00_01/data_extbnb_reco1_mcc9/extbnb_C2/00/00/73/98/larlite_reco2d_961d6d00-783f-4a66-a98a-244239567561.root'
p146
aS'/pnfs/uboone/data/uboone/larlite_reco2d/prod_v08_00_00_01/data_extbnb_reco1_mcc9/extbnb_C2/00/00/74/57/larlite_reco2d_a58824d1-45f6-4a7a-a8cc-5e7c7ff521ee.root'
p147
aS'/pnfs/uboone/data/uboone/larlite_reco2d/prod_v08_00_00_01/data_extbnb_reco1_mcc9/extbnb_C2/00/00/74/57/larlite_reco2d_9588d631-9de1-45ab-8462-9be2bb095288.root'
p148
aS'/pnfs/uboone/data/uboone/larlite_reco2d/prod_v08_00_00_01/data_extbnb_reco1_mcc9/extbnb_C2/00/00/74/57/larlite_reco2d_5ec40fdf-cedf-4620-b7c7-75988d9dcd89.root'
p149
aS'/pnfs/uboone/data/uboone/larlite_reco2d/prod_v08_00_00_01/data_extbnb_reco1_mcc9/extbnb_C2/00/00/73/92/larlite_reco2d_c2de748d-4341-4680-ac17-a9e427f2d4a4.root'
p150
aS'/pnfs/uboone/data/uboone/larlite_reco2d/prod_v08_00_00_01/data_extbnb_reco1_mcc9/extbnb_C2/00/00/74/63/larlite_reco2d_aeccd42a-ef65-4469-a0db-ee86ee95052d.root'
p151
aS'/pnfs/uboone/data/uboone/larlite_reco2d/prod_v08_00_00_01/data_extbnb_reco1_mcc9/extbnb_C2/00/00/74/61/larlite_reco2d_541a86a9-ec34-4ca7-b2de-ab1ac7661eaa.root'
p152
aS'/pnfs/uboone/data/uboone/larlite_reco2d/prod_v08_00_00_01/data_extbnb_reco1_mcc9/extbnb_C2/00/00/73/91/larlite_reco2d_a8bf8c31-964c-42d6-9b43-ff2276c0b14a.root'
p153
aS'/pnfs/uboone/data/uboone/larlite_reco2d/prod_v08_00_00_01/data_extbnb_reco1_mcc9/extbnb_C2/00/00/73/93/larlite_reco2d_22fbd606-3bad-43c0-8992-6232fa72bd3e.root'
p154
aS'/pnfs/uboone/data/uboone/larlite_reco2d/prod_v08_00_00_01/data_extbnb_reco1_mcc9/extbnb_C2/00/00/74/03/larlite_reco2d_1e9fb3ab-69f5-4e7f-90aa-cabda5dd548d.root'
p155
aS'/pnfs/uboone/data/uboone/larlite_reco2d/prod_v08_00_00_01/data_extbnb_reco1_mcc9/extbnb_C2/00/00/74/36/larlite_reco2d_e0262a0c-eeb3-475d-abb5-c952358df746.root'
p156
aS'/pnfs/uboone/data/uboone/larlite_reco2d/prod_v08_00_00_01/data_extbnb_reco1_mcc9/extbnb_C2/00/00/74/58/larlite_reco2d_c5af4243-4d26-4e11-86e9-c0bca71803b3.root'
p157
aS'/pnfs/uboone/data/uboone/larlite_reco2d/prod_v08_00_00_01/data_extbnb_reco1_mcc9/extbnb_C2/00/00/73/93/larlite_reco2d_34e4889c-d9b9-414e-ae4a-62a80061f41f.root'
p158
aS'/pnfs/uboone/data/uboone/larlite_reco2d/prod_v08_00_00_01/data_extbnb_reco1_mcc9/extbnb_C2/00/00/73/91/larlite_reco2d_89e9c39d-eb6c-492d-81ce-456c24d300b6.root'
p159
aS'/pnfs/uboone/data/uboone/larlite_reco2d/prod_v08_00_00_01/data_extbnb_reco1_mcc9/extbnb_C2/00/00/74/42/larlite_reco2d_853b3237-f3da-42eb-9356-3b45c3710969.root'
p160
aS'/pnfs/uboone/data/uboone/larlite_reco2d/prod_v08_00_00_01/data_extbnb_reco1_mcc9/extbnb_C2/00/00/74/61/larlite_reco2d_39763407-898b-408d-a189-a88b9a2d861d.root'
p161
aS'/pnfs/uboone/data/uboone/larlite_reco2d/prod_v08_00_00_01/data_extbnb_reco1_mcc9/extbnb_C2/00/00/74/42/larlite_reco2d_dcf7709f-d47d-4a93-b92b-e3bd692af6ff.root'
p162
aS'/pnfs/uboone/data/uboone/larlite_reco2d/prod_v08_00_00_01/data_extbnb_reco1_mcc9/extbnb_C2/00/00/73/93/larlite_reco2d_6043b8aa-e2a8-4a6b-ad9f-2958eb9acaae.root'
p163
aS'/pnfs/uboone/data/uboone/larlite_reco2d/prod_v08_00_00_01/data_extbnb_reco1_mcc9/extbnb_C2/00/00/73/93/larlite_reco2d_77718884-831f-46f4-b850-368b9c1c85dd.root'
p164
aS'/pnfs/uboone/data/uboone/larlite_reco2d/prod_v08_00_00_01/data_extbnb_reco1_mcc9/extbnb_C2/00/00/73/49/larlite_reco2d_0b424512-b217-4202-af3b-9e727fa4434b.root'
p165
aS'/pnfs/uboone/data/uboone/larlite_reco2d/prod_v08_00_00_01/data_extbnb_reco1_mcc9/extbnb_C2/00/00/74/57/larlite_reco2d_88b24fd1-cac4-44fc-ac50-b5b5c4281f15.root'
p166
aS'/pnfs/uboone/data/uboone/larlite_reco2d/prod_v08_00_00_01/data_extbnb_reco1_mcc9/extbnb_C2/00/00/74/57/larlite_reco2d_0341e3b8-30d8-48ec-b8ae-e6c1d5263d71.root'
p167
aS'/pnfs/uboone/data/uboone/larlite_reco2d/prod_v08_00_00_01/data_extbnb_reco1_mcc9/extbnb_C2/00/00/74/03/larlite_reco2d_f4430c42-e6bc-4f38-8ddf-1bef4fc7a016.root'
p168
aS'/pnfs/uboone/data/uboone/larlite_reco2d/prod_v08_00_00_01/data_extbnb_reco1_mcc9/extbnb_C2/00/00/74/65/larlite_reco2d_95186d70-4bed-473f-8e79-d0586380deed.root'
p169
aS'/pnfs/uboone/data/uboone/larlite_reco2d/prod_v08_00_00_01/data_extbnb_reco1_mcc9/extbnb_C2/00/00/74/55/larlite_reco2d_3a4c9c57-25c5-43dc-afad-e55bd9a3cd08.root'
p170
aS'/pnfs/uboone/data/uboone/larlite_reco2d/prod_v08_00_00_01/data_extbnb_reco1_mcc9/extbnb_C2/00/00/74/44/larlite_reco2d_12d85e8a-3771-4179-8f9d-2c0712e92111.root'
p171
aS'/pnfs/uboone/data/uboone/larlite_reco2d/prod_v08_00_00_01/data_extbnb_reco1_mcc9/extbnb_C2/00/00/74/57/larlite_reco2d_f4cf9aba-e2f1-4b43-9aab-305c16416a47.root'
p172
aS'/pnfs/uboone/data/uboone/larlite_reco2d/prod_v08_00_00_01/data_extbnb_reco1_mcc9/extbnb_C2/00/00/74/57/larlite_reco2d_f69d448a-3251-4f42-b11d-454afbfd57e8.root'
p173
aS'/pnfs/uboone/data/uboone/larlite_reco2d/prod_v08_00_00_01/data_extbnb_reco1_mcc9/extbnb_C2/00/00/74/42/larlite_reco2d_aca1f3a1-3c86-40fa-9449-02c50ec29818.root'
p174
aS'/pnfs/uboone/data/uboone/larlite_reco2d/prod_v08_00_00_01/data_extbnb_reco1_mcc9/extbnb_C2/00/00/74/57/larlite_reco2d_7bda0ff4-4414-4467-aad8-6667b442cca3.root'
p175
aS'/pnfs/uboone/data/uboone/larlite_reco2d/prod_v08_00_00_01/data_extbnb_reco1_mcc9/extbnb_C2/00/00/74/57/larlite_reco2d_c4791cf0-603c-40fa-9d8f-8e8d901b7c79.root'
p176
aS'/pnfs/uboone/data/uboone/larlite_reco2d/prod_v08_00_00_01/data_extbnb_reco1_mcc9/extbnb_C2/00/00/74/42/larlite_reco2d_681f3dfa-1477-4e63-8dfd-9d3ef29bbd3c.root'
p177
aS'/pnfs/uboone/data/uboone/larlite_reco2d/prod_v08_00_00_01/data_extbnb_reco1_mcc9/extbnb_C2/00/00/73/93/larlite_reco2d_305d60fb-7d55-487c-abd7-b1048ae9adf2.root'
p178
aS'/pnfs/uboone/data/uboone/larlite_reco2d/prod_v08_00_00_01/data_extbnb_reco1_mcc9/extbnb_C2/00/00/73/93/larlite_reco2d_a2f3dd17-ace0-4850-826c-460876eb91e5.root'
p179
aS'/pnfs/uboone/data/uboone/larlite_reco2d/prod_v08_00_00_01/data_extbnb_reco1_mcc9/extbnb_C2/00/00/73/49/larlite_reco2d_10dca4a7-9fd8-44f5-b811-3bed50a19cf2.root'
p180
aS'/pnfs/uboone/data/uboone/larlite_reco2d/prod_v08_00_00_01/data_extbnb_reco1_mcc9/extbnb_C2/00/00/74/58/larlite_reco2d_28ee4784-2f7b-47c6-b66b-3f0eaa5e16d8.root'
p181
aS'/pnfs/uboone/data/uboone/larlite_reco2d/prod_v08_00_00_01/data_extbnb_reco1_mcc9/extbnb_C2/00/00/74/40/larlite_reco2d_2da14717-55ac-4abc-a4b6-737a594257ce.root'
p182
aS'/pnfs/uboone/data/uboone/larlite_reco2d/prod_v08_00_00_01/data_extbnb_reco1_mcc9/extbnb_C2/00/00/73/91/larlite_reco2d_0fc380e9-dcc5-4f74-b921-f9e804c37700.root'
p183
aS'/pnfs/uboone/data/uboone/larlite_reco2d/prod_v08_00_00_01/data_extbnb_reco1_mcc9/extbnb_C2/00/00/74/03/larlite_reco2d_94d36ca5-d9b1-4907-a692-d44140f228b9.root'
p184
aS'/pnfs/uboone/data/uboone/larlite_reco2d/prod_v08_00_00_01/data_extbnb_reco1_mcc9/extbnb_C2/00/00/74/44/larlite_reco2d_14c0f46a-a1a9-4a84-a667-de96524cdaa3.root'
p185
aS'/pnfs/uboone/data/uboone/larlite_reco2d/prod_v08_00_00_01/data_extbnb_reco1_mcc9/extbnb_C2/00/00/74/57/larlite_reco2d_95ebd271-1f19-4d88-a53a-a24eb20e3736.root'
p186
aS'/pnfs/uboone/data/uboone/larlite_reco2d/prod_v08_00_00_01/data_extbnb_reco1_mcc9/extbnb_C2/00/00/74/00/larlite_reco2d_0e261299-6e74-43cb-8485-e2ac2384ce89.root'
p187
aS'/pnfs/uboone/data/uboone/larlite_reco2d/prod_v08_00_00_01/data_extbnb_reco1_mcc9/extbnb_C2/00/00/74/57/larlite_reco2d_9f93c35e-5db1-46b9-a9c0-a0cd6f0b1f8d.root'
p188
aS'/pnfs/uboone/data/uboone/larlite_reco2d/prod_v08_00_00_01/data_extbnb_reco1_mcc9/extbnb_C2/00/00/74/42/larlite_reco2d_758a6a70-789d-4675-96c9-4a4677271021.root'
p189
aS'/pnfs/uboone/data/uboone/larlite_reco2d/prod_v08_00_00_01/data_extbnb_reco1_mcc9/extbnb_C2/00/00/74/00/larlite_reco2d_6368bc07-e7a8-444d-bb6c-757cd79fa448.root'
p190
aS'/pnfs/uboone/data/uboone/larlite_reco2d/prod_v08_00_00_01/data_extbnb_reco1_mcc9/extbnb_C2/00/00/74/37/larlite_reco2d_832fc2ea-3595-48de-b20f-84db810f7d6a.root'
p191
aS'/pnfs/uboone/data/uboone/larlite_reco2d/prod_v08_00_00_01/data_extbnb_reco1_mcc9/extbnb_C2/00/00/74/55/larlite_reco2d_5b53c236-e52c-4742-ac55-f85e93c547c3.root'
p192
aS'/pnfs/uboone/data/uboone/larlite_reco2d/prod_v08_00_00_01/data_extbnb_reco1_mcc9/extbnb_C2/00/00/73/91/larlite_reco2d_ee9e96b6-fd7b-4a35-a3ff-363f961dca9a.root'
p193
aS'/pnfs/uboone/data/uboone/larlite_reco2d/prod_v08_00_00_01/data_extbnb_reco1_mcc9/extbnb_C2/00/00/74/58/larlite_reco2d_ce198f9e-c6f7-4b62-a1c1-119024b26af3.root'
p194
aS'/pnfs/uboone/data/uboone/larlite_reco2d/prod_v08_00_00_01/data_extbnb_reco1_mcc9/extbnb_C2/00/00/74/36/larlite_reco2d_47ac2e2f-9566-47b6-924a-d24e4331e89c.root'
p195
aS'/pnfs/uboone/data/uboone/larlite_reco2d/prod_v08_00_00_01/data_extbnb_reco1_mcc9/extbnb_C2/00/00/74/61/larlite_reco2d_14543334-7bcb-4a47-a1b3-a052afdea8d0.root'
p196
aS'/pnfs/uboone/data/uboone/larlite_reco2d/prod_v08_00_00_01/data_extbnb_reco1_mcc9/extbnb_C2/00/00/74/36/larlite_reco2d_f415645d-9c9f-4765-8a92-1038f5e071a0.root'
p197
aS'/pnfs/uboone/data/uboone/larlite_reco2d/prod_v08_00_00_01/data_extbnb_reco1_mcc9/extbnb_C2/00/00/73/94/larlite_reco2d_aa59c365-7062-44b1-8a37-fb1f0947e9be.root'
p198
aS'/pnfs/uboone/data/uboone/larlite_reco2d/prod_v08_00_00_01/data_extbnb_reco1_mcc9/extbnb_C2/00/00/74/03/larlite_reco2d_c86a83c0-8c4b-4d3f-b4e6-541035820aad.root'
p199
aS'/pnfs/uboone/data/uboone/larlite_reco2d/prod_v08_00_00_01/data_extbnb_reco1_mcc9/extbnb_C2/00/00/74/57/larlite_reco2d_b8ca3ad9-30c9-43f4-9e42-1c587522d028.root'
p200
aS'/pnfs/uboone/data/uboone/larlite_reco2d/prod_v08_00_00_01/data_extbnb_reco1_mcc9/extbnb_C2/00/00/74/57/larlite_reco2d_411f970a-0590-4710-8d75-31f0fc40dd28.root'
p201
aS'/pnfs/uboone/data/uboone/larlite_reco2d/prod_v08_00_00_01/data_extbnb_reco1_mcc9/extbnb_C2/00/00/74/61/larlite_reco2d_47ad13b1-111d-4356-894e-8a102adc5757.root'
p202
aS'/pnfs/uboone/data/uboone/larlite_reco2d/prod_v08_00_00_01/data_extbnb_reco1_mcc9/extbnb_C2/00/00/74/42/larlite_reco2d_dd4ab59a-6c43-4878-b7f3-318a6ca5f5e6.root'
p203
aS'/pnfs/uboone/data/uboone/larlite_reco2d/prod_v08_00_00_01/data_extbnb_reco1_mcc9/extbnb_C2/00/00/73/07/larlite_reco2d_f4b4d42e-a9ac-4c65-9e70-2adf91de1d0e.root'
p204
aS'/pnfs/uboone/data/uboone/larlite_reco2d/prod_v08_00_00_01/data_extbnb_reco1_mcc9/extbnb_C2/00/00/74/57/larlite_reco2d_8b83f39d-5b72-4a34-b74e-f28883ba6000.root'
p205
aS'/pnfs/uboone/data/uboone/larlite_reco2d/prod_v08_00_00_01/data_extbnb_reco1_mcc9/extbnb_C2/00/00/74/55/larlite_reco2d_49ca8d38-e29a-403c-94b6-9a8d51ce5c06.root'
p206
aS'/pnfs/uboone/data/uboone/larlite_reco2d/prod_v08_00_00_01/data_extbnb_reco1_mcc9/extbnb_C2/00/00/74/43/larlite_reco2d_21018ca0-4d2a-4a1c-a0e4-5aebb3d71452.root'
p207
aS'/pnfs/uboone/data/uboone/larlite_reco2d/prod_v08_00_00_01/data_extbnb_reco1_mcc9/extbnb_C2/00/00/73/91/larlite_reco2d_a999efea-a7ec-4cc8-81f6-40a9a6e18868.root'
p208
aS'/pnfs/uboone/data/uboone/larlite_reco2d/prod_v08_00_00_01/data_extbnb_reco1_mcc9/extbnb_C2/00/00/74/42/larlite_reco2d_f524884c-d2b7-4da8-a991-cd3ca751b1ef.root'
p209
aS'/pnfs/uboone/data/uboone/larlite_reco2d/prod_v08_00_00_01/data_extbnb_reco1_mcc9/extbnb_C2/00/00/73/98/larlite_reco2d_e14ece16-a963-4b69-9ad4-ecd78f66f82d.root'
p210
aS'/pnfs/uboone/data/uboone/larlite_reco2d/prod_v08_00_00_01/data_extbnb_reco1_mcc9/extbnb_C2/00/00/73/93/larlite_reco2d_0937e648-fbf2-45d5-9149-3b7f28c9cc1d.root'
p211
aS'/pnfs/uboone/data/uboone/larlite_reco2d/prod_v08_00_00_01/data_extbnb_reco1_mcc9/extbnb_C2/00/00/74/57/larlite_reco2d_e42bfcdf-9146-4708-86da-a4da5725c2fc.root'
p212
aS'/pnfs/uboone/data/uboone/larlite_reco2d/prod_v08_00_00_01/data_extbnb_reco1_mcc9/extbnb_C2/00/00/74/32/larlite_reco2d_5def9f24-b51f-4fdf-a834-4ec7b6d40f9a.root'
p213
aS'/pnfs/uboone/data/uboone/larlite_reco2d/prod_v08_00_00_01/data_extbnb_reco1_mcc9/extbnb_C2/00/00/74/43/larlite_reco2d_420fea70-253a-401b-bfe2-542c1363e437.root'
p214
aS'/pnfs/uboone/data/uboone/larlite_reco2d/prod_v08_00_00_01/data_extbnb_reco1_mcc9/extbnb_C2/00/00/74/36/larlite_reco2d_9980c3f8-2093-4c7b-a4b4-cfed77d775bf.root'
p215
aS'/pnfs/uboone/data/uboone/larlite_reco2d/prod_v08_00_00_01/data_extbnb_reco1_mcc9/extbnb_C2/00/00/74/41/larlite_reco2d_4e12df33-c1b5-429f-97bb-05b4caa74b9f.root'
p216
aS'/pnfs/uboone/data/uboone/larlite_reco2d/prod_v08_00_00_01/data_extbnb_reco1_mcc9/extbnb_C2/00/00/74/00/larlite_reco2d_0fe6b1db-1d0f-4db5-bc2a-f7608f2cdc36.root'
p217
aS'/pnfs/uboone/data/uboone/larlite_reco2d/prod_v08_00_00_01/data_extbnb_reco1_mcc9/extbnb_C2/00/00/74/57/larlite_reco2d_39806ecd-379f-4f32-ad25-838ea658b556.root'
p218
aS'/pnfs/uboone/data/uboone/larlite_reco2d/prod_v08_00_00_01/data_extbnb_reco1_mcc9/extbnb_C2/00/00/74/42/larlite_reco2d_8f5b1e75-e41f-45d3-a7cf-fa1cf427e7f3.root'
p219
aS'/pnfs/uboone/data/uboone/larlite_reco2d/prod_v08_00_00_01/data_extbnb_reco1_mcc9/extbnb_C2/00/00/74/00/larlite_reco2d_29e6df8a-d057-4dc1-ad18-b589e4ff0b29.root'
p220
aS'/pnfs/uboone/data/uboone/larlite_reco2d/prod_v08_00_00_01/data_extbnb_reco1_mcc9/extbnb_C2/00/00/73/93/larlite_reco2d_9e8eae4c-855f-4dfa-ab21-4fbc3a029d35.root'
p221
aS'/pnfs/uboone/data/uboone/larlite_reco2d/prod_v08_00_00_01/data_extbnb_reco1_mcc9/extbnb_C2/00/00/74/00/larlite_reco2d_c9665c60-4332-47f0-81d3-459e9c46bedd.root'
p222
aS'/pnfs/uboone/data/uboone/larlite_reco2d/prod_v08_00_00_01/data_extbnb_reco1_mcc9/extbnb_C2/00/00/74/57/larlite_reco2d_6aae1f64-b42b-46b5-a71f-41abc18995b6.root'
p223
aS'/pnfs/uboone/data/uboone/larlite_reco2d/prod_v08_00_00_01/data_extbnb_reco1_mcc9/extbnb_C2/00/00/74/57/larlite_reco2d_3ab7e104-54c2-429e-a20b-3152f36aacea.root'
p224
aS'/pnfs/uboone/data/uboone/larlite_reco2d/prod_v08_00_00_01/data_extbnb_reco1_mcc9/extbnb_C2/00/00/74/58/larlite_reco2d_cb8e4283-2bc1-4668-a2f4-4548d6d037d0.root'
p225
aS'/pnfs/uboone/data/uboone/larlite_reco2d/prod_v08_00_00_01/data_extbnb_reco1_mcc9/extbnb_C2/00/00/74/00/larlite_reco2d_34c3e1fa-ac6f-4988-8ee9-be60262f3d5c.root'
p226
aS'/pnfs/uboone/data/uboone/larlite_reco2d/prod_v08_00_00_01/data_extbnb_reco1_mcc9/extbnb_C2/00/00/74/57/larlite_reco2d_2ff0a3aa-8f95-4a23-8807-0b6c08b53dff.root'
p227
aS'/pnfs/uboone/data/uboone/larlite_reco2d/prod_v08_00_00_01/data_extbnb_reco1_mcc9/extbnb_C2/00/00/73/93/larlite_reco2d_c6ad7200-e62c-4948-9a1c-eaba8496c5c7.root'
p228
aS'/pnfs/uboone/data/uboone/larlite_reco2d/prod_v08_00_00_01/data_extbnb_reco1_mcc9/extbnb_C2/00/00/74/56/larlite_reco2d_4e355231-b5ba-41f7-b72a-d5861cc50dd1.root'
p229
aS'/pnfs/uboone/data/uboone/larlite_reco2d/prod_v08_00_00_01/data_extbnb_reco1_mcc9/extbnb_C2/00/00/74/43/larlite_reco2d_f1503f1a-4835-4053-b2db-c484eda89cc7.root'
p230
aS'/pnfs/uboone/data/uboone/larlite_reco2d/prod_v08_00_00_01/data_extbnb_reco1_mcc9/extbnb_C2/00/00/74/57/larlite_reco2d_426cfc55-d6e2-4690-a140-ef30c8d59f2e.root'
p231
aS'/pnfs/uboone/data/uboone/larlite_reco2d/prod_v08_00_00_01/data_extbnb_reco1_mcc9/extbnb_C2/00/00/73/93/larlite_reco2d_4b97f3eb-b7be-4489-9e64-f2dacf92e0c4.root'
p232
aS'/pnfs/uboone/data/uboone/larlite_reco2d/prod_v08_00_00_01/data_extbnb_reco1_mcc9/extbnb_C2/00/00/74/58/larlite_reco2d_e5391527-d7ab-47f9-a695-97df3510db9e.root'
p233
aS'/pnfs/uboone/data/uboone/larlite_reco2d/prod_v08_00_00_01/data_extbnb_reco1_mcc9/extbnb_C2/00/00/74/57/larlite_reco2d_25622c55-0a65-484f-bb60-423e29a68b98.root'
p234
aS'/pnfs/uboone/data/uboone/larlite_reco2d/prod_v08_00_00_01/data_extbnb_reco1_mcc9/extbnb_C2/00/00/73/91/larlite_reco2d_1688f109-15e6-41fa-8189-17fa72c9ae98.root'
p235
aS'/pnfs/uboone/data/uboone/larlite_reco2d/prod_v08_00_00_01/data_extbnb_reco1_mcc9/extbnb_C2/00/00/74/01/larlite_reco2d_74724868-9afb-4d6b-9add-576b3991564a.root'
p236
aS'/pnfs/uboone/data/uboone/larlite_reco2d/prod_v08_00_00_01/data_extbnb_reco1_mcc9/extbnb_C2/00/00/74/00/larlite_reco2d_17d4012e-6fe4-46b4-8454-ea750c7566a2.root'
p237
aS'/pnfs/uboone/data/uboone/larlite_reco2d/prod_v08_00_00_01/data_extbnb_reco1_mcc9/extbnb_C2/00/00/74/57/larlite_reco2d_a5e95664-c9dd-4712-9850-c7245a751f61.root'
p238
aS'/pnfs/uboone/data/uboone/larlite_reco2d/prod_v08_00_00_01/data_extbnb_reco1_mcc9/extbnb_C2/00/00/74/00/larlite_reco2d_01f1bc2d-19ad-4bf6-baa3-855a05061b4b.root'
p239
aS'/pnfs/uboone/data/uboone/larlite_reco2d/prod_v08_00_00_01/data_extbnb_reco1_mcc9/extbnb_C2/00/00/74/55/larlite_reco2d_c566c399-5145-483c-b148-0be9e894e78d.root'
p240
aS'/pnfs/uboone/data/uboone/larlite_reco2d/prod_v08_00_00_01/data_extbnb_reco1_mcc9/extbnb_C2/00/00/74/61/larlite_reco2d_75bea98c-2a87-4d62-89d2-a5e789893fb4.root'
p241
aS'/pnfs/uboone/data/uboone/larlite_reco2d/prod_v08_00_00_01/data_extbnb_reco1_mcc9/extbnb_C2/00/00/73/91/larlite_reco2d_b1f9a125-b7bb-48de-b48e-6f5edbce0dbd.root'
p242
aS'/pnfs/uboone/data/uboone/larlite_reco2d/prod_v08_00_00_01/data_extbnb_reco1_mcc9/extbnb_C2/00/00/73/49/larlite_reco2d_b833ba5a-c57b-4b62-ab33-1a94fcf11240.root'
p243
aS'/pnfs/uboone/data/uboone/larlite_reco2d/prod_v08_00_00_01/data_extbnb_reco1_mcc9/extbnb_C2/00/00/73/98/larlite_reco2d_134efc7b-1c88-425a-830f-2630b25e241d.root'
p244
aS'/pnfs/uboone/data/uboone/larlite_reco2d/prod_v08_00_00_01/data_extbnb_reco1_mcc9/extbnb_C2/00/00/73/93/larlite_reco2d_bce3b840-8d3f-4aa5-a719-0bf106e07fe5.root'
p245
aS'/pnfs/uboone/data/uboone/larlite_reco2d/prod_v08_00_00_01/data_extbnb_reco1_mcc9/extbnb_C2/00/00/74/40/larlite_reco2d_28fefdff-0fcd-4c9f-94d7-1cebe9519dd8.root'
p246
aS'/pnfs/uboone/data/uboone/larlite_reco2d/prod_v08_00_00_01/data_extbnb_reco1_mcc9/extbnb_C2/00/00/74/39/larlite_reco2d_89bab199-82f8-4252-b6ed-f282415457fd.root'
p247
aS'/pnfs/uboone/data/uboone/larlite_reco2d/prod_v08_00_00_01/data_extbnb_reco1_mcc9/extbnb_C2/00/00/74/57/larlite_reco2d_78327a39-738a-43b8-bc9a-50c60b90405c.root'
p248
aS'/pnfs/uboone/data/uboone/larlite_reco2d/prod_v08_00_00_01/data_extbnb_reco1_mcc9/extbnb_C2/00/00/73/91/larlite_reco2d_a11f7fed-38cf-4ee1-8146-2458ec731713.root'
p249
aS'/pnfs/uboone/data/uboone/larlite_reco2d/prod_v08_00_00_01/data_extbnb_reco1_mcc9/extbnb_C2/00/00/74/40/larlite_reco2d_e00dc30a-3ef9-43c7-8365-5d99504d50d9.root'
p250
aS'/pnfs/uboone/data/uboone/larlite_reco2d/prod_v08_00_00_01/data_extbnb_reco1_mcc9/extbnb_C2/00/00/74/55/larlite_reco2d_1d5e4eca-4673-4c31-bee5-7e064aa4505c.root'
p251
aS'/pnfs/uboone/data/uboone/larlite_reco2d/prod_v08_00_00_01/data_extbnb_reco1_mcc9/extbnb_C2/00/00/74/42/larlite_reco2d_5df7cbdd-42c4-4975-b7d3-cd47119d4fbc.root'
p252
aS'/pnfs/uboone/data/uboone/larlite_reco2d/prod_v08_00_00_01/data_extbnb_reco1_mcc9/extbnb_C2/00/00/74/42/larlite_reco2d_c8b5c173-6516-452e-8c0f-7e3abe6ef5c2.root'
p253
aS'/pnfs/uboone/data/uboone/larlite_reco2d/prod_v08_00_00_01/data_extbnb_reco1_mcc9/extbnb_C2/00/00/74/55/larlite_reco2d_0df3994b-eb82-4ed7-bf17-b2136e500317.root'
p254
aS'/pnfs/uboone/data/uboone/larlite_reco2d/prod_v08_00_00_01/data_extbnb_reco1_mcc9/extbnb_C2/00/00/74/59/larlite_reco2d_ec3aa88b-c8ec-4573-be4c-e75f49b5ac5d.root'
p255
aS'/pnfs/uboone/data/uboone/larlite_reco2d/prod_v08_00_00_01/data_extbnb_reco1_mcc9/extbnb_C2/00/00/74/57/larlite_reco2d_40f099d1-15ab-4fe4-929f-2c5e8bbde600.root'
p256
aS'/pnfs/uboone/data/uboone/larlite_reco2d/prod_v08_00_00_01/data_extbnb_reco1_mcc9/extbnb_C2/00/00/74/57/larlite_reco2d_bbefac5a-4601-4cd8-a4ea-45a389e7e621.root'
p257
aS'/pnfs/uboone/data/uboone/larlite_reco2d/prod_v08_00_00_01/data_extbnb_reco1_mcc9/extbnb_C2/00/00/74/42/larlite_reco2d_eb7d2ec9-2fa6-4c54-9f91-01837b9dc82c.root'
p258
aS'/pnfs/uboone/data/uboone/larlite_reco2d/prod_v08_00_00_01/data_extbnb_reco1_mcc9/extbnb_C2/00/00/74/57/larlite_reco2d_467618c8-5015-4283-9ac8-2e37d4c68367.root'
p259
aS'/pnfs/uboone/data/uboone/larlite_reco2d/prod_v08_00_00_01/data_extbnb_reco1_mcc9/extbnb_C2/00/00/74/42/larlite_reco2d_cc8c7aaa-e6cc-4c95-9ea6-7f7d8bf30370.root'
p260
aS'/pnfs/uboone/data/uboone/larlite_reco2d/prod_v08_00_00_01/data_extbnb_reco1_mcc9/extbnb_C2/00/00/74/58/larlite_reco2d_5a1f76b2-ca91-4545-bbf6-6c7f72bf4899.root'
p261
aS'/pnfs/uboone/data/uboone/larlite_reco2d/prod_v08_00_00_01/data_extbnb_reco1_mcc9/extbnb_C2/00/00/74/56/larlite_reco2d_fc7dd5da-5d13-47db-941e-668d3ba67ba3.root'
p262
aS'/pnfs/uboone/data/uboone/larlite_reco2d/prod_v08_00_00_01/data_extbnb_reco1_mcc9/extbnb_C2/00/00/74/44/larlite_reco2d_2dadd6b5-3570-4fe0-a011-b1f3fff96b6d.root'
p263
aS'/pnfs/uboone/data/uboone/larlite_reco2d/prod_v08_00_00_01/data_extbnb_reco1_mcc9/extbnb_C2/00/00/74/56/larlite_reco2d_b8e431bf-2a70-42b2-a45a-eee95ff53a3c.root'
p264
aS'/pnfs/uboone/data/uboone/larlite_reco2d/prod_v08_00_00_01/data_extbnb_reco1_mcc9/extbnb_C2/00/00/74/44/larlite_reco2d_da27f7ef-2f03-484b-a84d-12c93d801faa.root'
p265
aS'/pnfs/uboone/data/uboone/larlite_reco2d/prod_v08_00_00_01/data_extbnb_reco1_mcc9/extbnb_C2/00/00/74/57/larlite_reco2d_0907389e-2c98-4d48-97d1-4b414daf7a3e.root'
p266
aS'/pnfs/uboone/data/uboone/larlite_reco2d/prod_v08_00_00_01/data_extbnb_reco1_mcc9/extbnb_C2/00/00/73/92/larlite_reco2d_009b38e7-ef97-4f2d-9d50-644bc4e8175b.root'
p267
aS'/pnfs/uboone/data/uboone/larlite_reco2d/prod_v08_00_00_01/data_extbnb_reco1_mcc9/extbnb_C2/00/00/73/91/larlite_reco2d_0854045c-743e-47ff-ba8a-e8610ff0e9e3.root'
p268
aS'/pnfs/uboone/data/uboone/larlite_reco2d/prod_v08_00_00_01/data_extbnb_reco1_mcc9/extbnb_C2/00/00/74/42/larlite_reco2d_809313bf-79f6-4dfa-9ae1-29602821f525.root'
p269
aS'/pnfs/uboone/data/uboone/larlite_reco2d/prod_v08_00_00_01/data_extbnb_reco1_mcc9/extbnb_C2/00/00/74/42/larlite_reco2d_5d2d7b38-02e3-4102-9184-c280a0616bd9.root'
p270
aS'/pnfs/uboone/data/uboone/larlite_reco2d/prod_v08_00_00_01/data_extbnb_reco1_mcc9/extbnb_C2/00/00/73/93/larlite_reco2d_bfc36e15-a1ea-4c4b-9b66-7aa4ff77589d.root'
p271
aS'/pnfs/uboone/data/uboone/larlite_reco2d/prod_v08_00_00_01/data_extbnb_reco1_mcc9/extbnb_C2/00/00/74/00/larlite_reco2d_56fb8dad-00ab-4be0-9490-e7dbf1d8dc31.root'
p272
aS'/pnfs/uboone/data/uboone/larlite_reco2d/prod_v08_00_00_01/data_extbnb_reco1_mcc9/extbnb_C2/00/00/74/42/larlite_reco2d_ec16a698-6fd2-4f3e-842e-9198148e9a0a.root'
p273
aS'/pnfs/uboone/data/uboone/larlite_reco2d/prod_v08_00_00_01/data_extbnb_reco1_mcc9/extbnb_C2/00/00/74/57/larlite_reco2d_117bcaf1-0662-4fa4-a9bd-7922d17c5893.root'
p274
aS'/pnfs/uboone/data/uboone/larlite_reco2d/prod_v08_00_00_01/data_extbnb_reco1_mcc9/extbnb_C2/00/00/74/61/larlite_reco2d_9f443e97-8ca8-47d2-81d9-24022ec2b914.root'
p275
aS'/pnfs/uboone/data/uboone/larlite_reco2d/prod_v08_00_00_01/data_extbnb_reco1_mcc9/extbnb_C2/00/00/74/36/larlite_reco2d_4f663a06-b749-49e1-9152-242e22c90e6c.root'
p276
aS'/pnfs/uboone/data/uboone/larlite_reco2d/prod_v08_00_00_01/data_extbnb_reco1_mcc9/extbnb_C2/00/00/74/34/larlite_reco2d_a78160f7-26b2-4ddf-903a-4e0df855aade.root'
p277
aS'/pnfs/uboone/data/uboone/larlite_reco2d/prod_v08_00_00_01/data_extbnb_reco1_mcc9/extbnb_C2/00/00/73/98/larlite_reco2d_92110974-7475-4bd5-8f24-c53c1e4df09d.root'
p278
aS'/pnfs/uboone/data/uboone/larlite_reco2d/prod_v08_00_00_01/data_extbnb_reco1_mcc9/extbnb_C2/00/00/74/61/larlite_reco2d_89a08090-ca4a-468b-9e73-8b9518098f1e.root'
p279
aS'/pnfs/uboone/data/uboone/larlite_reco2d/prod_v08_00_00_01/data_extbnb_reco1_mcc9/extbnb_C2/00/00/73/91/larlite_reco2d_c11ceb1a-347a-42c2-9c03-be8c5c54e1d4.root'
p280
aS'/pnfs/uboone/data/uboone/larlite_reco2d/prod_v08_00_00_01/data_extbnb_reco1_mcc9/extbnb_C2/00/00/74/57/larlite_reco2d_cd56d19d-9cad-4c5d-81b9-daf9eb684e16.root'
p281
aS'/pnfs/uboone/data/uboone/larlite_reco2d/prod_v08_00_00_01/data_extbnb_reco1_mcc9/extbnb_C2/00/00/73/49/larlite_reco2d_7e9ca60a-ade6-4287-8130-9f62aa5ae5c1.root'
p282
aS'/pnfs/uboone/data/uboone/larlite_reco2d/prod_v08_00_00_01/data_extbnb_reco1_mcc9/extbnb_C2/00/00/74/20/larlite_reco2d_70cfcbcb-078f-4908-82ee-63e6c35bf234.root'
p283
aS'/pnfs/uboone/data/uboone/larlite_reco2d/prod_v08_00_00_01/data_extbnb_reco1_mcc9/extbnb_C2/00/00/74/57/larlite_reco2d_39845a53-83c9-4f48-a71b-c639c90afb80.root'
p284
aS'/pnfs/uboone/data/uboone/larlite_reco2d/prod_v08_00_00_01/data_extbnb_reco1_mcc9/extbnb_C2/00/00/73/97/larlite_reco2d_4cdf9de5-0716-4cc6-b2f5-aaa5420c60bf.root'
p285
aS'/pnfs/uboone/data/uboone/larlite_reco2d/prod_v08_00_00_01/data_extbnb_reco1_mcc9/extbnb_C2/00/00/74/57/larlite_reco2d_4bdf4cbe-b5f3-4b82-82ca-5c0774c0ff10.root'
p286
aS'/pnfs/uboone/data/uboone/larlite_reco2d/prod_v08_00_00_01/data_extbnb_reco1_mcc9/extbnb_C2/00/00/74/38/larlite_reco2d_2239399d-d380-4574-93c2-9e90516a85da.root'
p287
aS'/pnfs/uboone/data/uboone/larlite_reco2d/prod_v08_00_00_01/data_extbnb_reco1_mcc9/extbnb_C2/00/00/73/98/larlite_reco2d_ba1c7d78-8614-4999-b660-ba4f0cc9ddf8.root'
p288
aS'/pnfs/uboone/data/uboone/larlite_reco2d/prod_v08_00_00_01/data_extbnb_reco1_mcc9/extbnb_C2/00/00/74/00/larlite_reco2d_19e3b31f-8098-48c2-87f9-53d59244ab39.root'
p289
aS'/pnfs/uboone/data/uboone/larlite_reco2d/prod_v08_00_00_01/data_extbnb_reco1_mcc9/extbnb_C2/00/00/74/44/larlite_reco2d_92a825e8-1b72-43b5-9199-6b96b80b8b8d.root'
p290
aS'/pnfs/uboone/data/uboone/larlite_reco2d/prod_v08_00_00_01/data_extbnb_reco1_mcc9/extbnb_C2/00/00/74/40/larlite_reco2d_b9bbd4a1-bf51-4e03-a55b-3bd8e48f33ff.root'
p291
aS'/pnfs/uboone/data/uboone/larlite_reco2d/prod_v08_00_00_01/data_extbnb_reco1_mcc9/extbnb_C2/00/00/74/36/larlite_reco2d_30d08a9a-d21f-41cb-ac1f-ce77d5ab9486.root'
p292
aS'/pnfs/uboone/data/uboone/larlite_reco2d/prod_v08_00_00_01/data_extbnb_reco1_mcc9/extbnb_C2/00/00/74/42/larlite_reco2d_64193bca-c377-435c-966a-5c5b44375afe.root'
p293
aS'/pnfs/uboone/data/uboone/larlite_reco2d/prod_v08_00_00_01/data_extbnb_reco1_mcc9/extbnb_C2/00/00/74/42/larlite_reco2d_caf6199a-c2f5-4986-8d6c-0d284133ef3e.root'
p294
aS'/pnfs/uboone/data/uboone/larlite_reco2d/prod_v08_00_00_01/data_extbnb_reco1_mcc9/extbnb_C2/00/00/74/03/larlite_reco2d_b35a6603-c13a-4e5b-98f6-dfddab246175.root'
p295
aS'/pnfs/uboone/data/uboone/larlite_reco2d/prod_v08_00_00_01/data_extbnb_reco1_mcc9/extbnb_C2/00/00/74/00/larlite_reco2d_2d1c441f-9ee3-403c-9cd3-937278b31360.root'
p296
aS'/pnfs/uboone/data/uboone/larlite_reco2d/prod_v08_00_00_01/data_extbnb_reco1_mcc9/extbnb_C2/00/00/73/97/larlite_reco2d_f444be2f-996c-4140-9e30-611de3dbc1a9.root'
p297
aS'/pnfs/uboone/data/uboone/larlite_reco2d/prod_v08_00_00_01/data_extbnb_reco1_mcc9/extbnb_C2/00/00/74/57/larlite_reco2d_ef69bcfd-f89c-40c2-9d41-e55838a95981.root'
p298
aS'/pnfs/uboone/data/uboone/larlite_reco2d/prod_v08_00_00_01/data_extbnb_reco1_mcc9/extbnb_C2/00/00/74/38/larlite_reco2d_796da471-40c1-477b-88a3-3d98f686db63.root'
p299
aS'/pnfs/uboone/data/uboone/larlite_reco2d/prod_v08_00_00_01/data_extbnb_reco1_mcc9/extbnb_C2/00/00/74/00/larlite_reco2d_bda862a5-d623-4ecd-b39d-d5ffb1e35b76.root'
p300
aS'/pnfs/uboone/data/uboone/larlite_reco2d/prod_v08_00_00_01/data_extbnb_reco1_mcc9/extbnb_C2/00/00/73/91/larlite_reco2d_53b9a19c-c564-4bcd-835e-8057fbd6366f.root'
p301
aS'/pnfs/uboone/data/uboone/larlite_reco2d/prod_v08_00_00_01/data_extbnb_reco1_mcc9/extbnb_C2/00/00/74/42/larlite_reco2d_5aa8f008-9eb6-4e51-9951-c7e50917fafc.root'
p302
aS'/pnfs/uboone/data/uboone/larlite_reco2d/prod_v08_00_00_01/data_extbnb_reco1_mcc9/extbnb_C2/00/00/74/41/larlite_reco2d_c4f1e0b7-a739-4b48-9beb-2b4faa9cd8fd.root'
p303
aS'/pnfs/uboone/data/uboone/larlite_reco2d/prod_v08_00_00_01/data_extbnb_reco1_mcc9/extbnb_C2/00/00/73/91/larlite_reco2d_d1b3665d-246c-4d3b-89a7-6af30b017a7f.root'
p304
aS'/pnfs/uboone/data/uboone/larlite_reco2d/prod_v08_00_00_01/data_extbnb_reco1_mcc9/extbnb_C2/00/00/73/92/larlite_reco2d_977df568-8c1b-40e6-8384-d40169729629.root'
p305
aS'/pnfs/uboone/data/uboone/larlite_reco2d/prod_v08_00_00_01/data_extbnb_reco1_mcc9/extbnb_C2/00/00/74/56/larlite_reco2d_e575c603-b8cf-4c6b-88d9-1f8e5783e9fb.root'
p306
aS'/pnfs/uboone/data/uboone/larlite_reco2d/prod_v08_00_00_01/data_extbnb_reco1_mcc9/extbnb_C2/00/00/74/22/larlite_reco2d_e016148a-e4c1-4255-b4c6-dd3a81e93442.root'
p307
aS'/pnfs/uboone/data/uboone/larlite_reco2d/prod_v08_00_00_01/data_extbnb_reco1_mcc9/extbnb_C2/00/00/73/49/larlite_reco2d_1b63002f-7a5e-45fb-ab56-354b96e4d7a9.root'
p308
aS'/pnfs/uboone/data/uboone/larlite_reco2d/prod_v08_00_00_01/data_extbnb_reco1_mcc9/extbnb_C2/00/00/74/00/larlite_reco2d_7c2bd5cd-6b06-4077-b68b-eaace094e48a.root'
p309
aS'/pnfs/uboone/data/uboone/larlite_reco2d/prod_v08_00_00_01/data_extbnb_reco1_mcc9/extbnb_C2/00/00/73/93/larlite_reco2d_a5ecc4be-466d-4d31-b639-dc1af2e93437.root'
p310
aS'/pnfs/uboone/data/uboone/larlite_reco2d/prod_v08_00_00_01/data_extbnb_reco1_mcc9/extbnb_C2/00/00/73/93/larlite_reco2d_bc6c4bc1-721e-45cb-920a-0e1cbb42ccf7.root'
p311
aS'/pnfs/uboone/data/uboone/larlite_reco2d/prod_v08_00_00_01/data_extbnb_reco1_mcc9/extbnb_C2/00/00/74/42/larlite_reco2d_fba94612-adf2-4095-8825-e622d2512985.root'
p312
aS'/pnfs/uboone/data/uboone/larlite_reco2d/prod_v08_00_00_01/data_extbnb_reco1_mcc9/extbnb_C2/00/00/74/42/larlite_reco2d_616379c7-efad-40b0-9180-feca6d173a40.root'
p313
aS'/pnfs/uboone/data/uboone/larlite_reco2d/prod_v08_00_00_01/data_extbnb_reco1_mcc9/extbnb_C2/00/00/74/57/larlite_reco2d_9c240b10-ce9a-432f-9ff6-904ea7d62cb1.root'
p314
aS'/pnfs/uboone/data/uboone/larlite_reco2d/prod_v08_00_00_01/data_extbnb_reco1_mcc9/extbnb_C2/00/00/74/57/larlite_reco2d_d5f0cb57-5fd5-4056-bd27-e067e6d3c87b.root'
p315
aS'/pnfs/uboone/data/uboone/larlite_reco2d/prod_v08_00_00_01/data_extbnb_reco1_mcc9/extbnb_C2/00/00/73/93/larlite_reco2d_cd54bc07-f06f-476f-9b69-cc491e064305.root'
p316
aS'/pnfs/uboone/data/uboone/larlite_reco2d/prod_v08_00_00_01/data_extbnb_reco1_mcc9/extbnb_C2/00/00/73/91/larlite_reco2d_c4848320-330d-4c65-9a96-9e3e0b849a13.root'
p317
aS'/pnfs/uboone/data/uboone/larlite_reco2d/prod_v08_00_00_01/data_extbnb_reco1_mcc9/extbnb_C2/00/00/74/03/larlite_reco2d_e6123ad0-7f65-4219-8310-532c3325f50f.root'
p318
aS'/pnfs/uboone/data/uboone/larlite_reco2d/prod_v08_00_00_01/data_extbnb_reco1_mcc9/extbnb_C2/00/00/74/00/larlite_reco2d_bbe7fc6c-fc38-4db3-b9cf-159350d435ae.root'
p319
aS'/pnfs/uboone/data/uboone/larlite_reco2d/prod_v08_00_00_01/data_extbnb_reco1_mcc9/extbnb_C2/00/00/74/57/larlite_reco2d_87dd0792-745b-489a-a004-2b218b5040ea.root'
p320
aS'/pnfs/uboone/data/uboone/larlite_reco2d/prod_v08_00_00_01/data_extbnb_reco1_mcc9/extbnb_C2/00/00/73/98/larlite_reco2d_3dad8007-c220-4db0-a946-13c8aa193c3e.root'
p321
aS'/pnfs/uboone/data/uboone/larlite_reco2d/prod_v08_00_00_01/data_extbnb_reco1_mcc9/extbnb_C2/00/00/74/57/larlite_reco2d_e9f0263c-e5e9-4f73-8b90-95449e79586e.root'
p322
aS'/pnfs/uboone/data/uboone/larlite_reco2d/prod_v08_00_00_01/data_extbnb_reco1_mcc9/extbnb_C2/00/00/74/59/larlite_reco2d_5421db09-5d16-4ef2-aa11-002a3277330d.root'
p323
aS'/pnfs/uboone/data/uboone/larlite_reco2d/prod_v08_00_00_01/data_extbnb_reco1_mcc9/extbnb_C2/00/00/74/61/larlite_reco2d_aaf5c8df-2837-4ae1-8463-579691846072.root'
p324
aS'/pnfs/uboone/data/uboone/larlite_reco2d/prod_v08_00_00_01/data_extbnb_reco1_mcc9/extbnb_C2/00/00/74/43/larlite_reco2d_5a2cfbbf-410c-4609-910d-af7e0cbb9443.root'
p325
aS'/pnfs/uboone/data/uboone/larlite_reco2d/prod_v08_00_00_01/data_extbnb_reco1_mcc9/extbnb_C2/00/00/74/42/larlite_reco2d_d432f37d-3aaa-4fe5-b672-45c4cc761f46.root'
p326
aS'/pnfs/uboone/data/uboone/larlite_reco2d/prod_v08_00_00_01/data_extbnb_reco1_mcc9/extbnb_C2/00/00/74/42/larlite_reco2d_c84f8e3f-2078-4731-b706-1462ce483f2f.root'
p327
aS'/pnfs/uboone/data/uboone/larlite_reco2d/prod_v08_00_00_01/data_extbnb_reco1_mcc9/extbnb_C2/00/00/74/42/larlite_reco2d_c4614c61-a9b5-421a-8511-97519043155c.root'
p328
aS'/pnfs/uboone/data/uboone/larlite_reco2d/prod_v08_00_00_01/data_extbnb_reco1_mcc9/extbnb_C2/00/00/74/32/larlite_reco2d_9a7b99fa-e82f-4c29-bbdf-616831f48ce5.root'
p329
aS'/pnfs/uboone/data/uboone/larlite_reco2d/prod_v08_00_00_01/data_extbnb_reco1_mcc9/extbnb_C2/00/00/74/42/larlite_reco2d_577c37d1-bfb6-4ded-9252-a06cdc589977.root'
p330
aS'/pnfs/uboone/data/uboone/larlite_reco2d/prod_v08_00_00_01/data_extbnb_reco1_mcc9/extbnb_C2/00/00/74/70/larlite_reco2d_76855a2c-2724-41d3-b07f-908a56f76e6b.root'
p331
aS'/pnfs/uboone/data/uboone/larlite_reco2d/prod_v08_00_00_01/data_extbnb_reco1_mcc9/extbnb_C2/00/00/74/00/larlite_reco2d_8aa56fbd-2d85-45f8-a9b4-baaafcf22e07.root'
p332
aS'/pnfs/uboone/data/uboone/larlite_reco2d/prod_v08_00_00_01/data_extbnb_reco1_mcc9/extbnb_C2/00/00/74/20/larlite_reco2d_f0afdb6e-1481-4493-b3cd-221f5eb4a2b4.root'
p333
aS'/pnfs/uboone/data/uboone/larlite_reco2d/prod_v08_00_00_01/data_extbnb_reco1_mcc9/extbnb_C2/00/00/74/44/larlite_reco2d_22fefd7e-a7d1-46cf-9c5a-3109fb1a08d7.root'
p334
aS'/pnfs/uboone/data/uboone/larlite_reco2d/prod_v08_00_00_01/data_extbnb_reco1_mcc9/extbnb_C2/00/00/74/63/larlite_reco2d_7ece99c3-faaf-4666-b614-b882ce47e1b2.root'
p335
aS'/pnfs/uboone/data/uboone/larlite_reco2d/prod_v08_00_00_01/data_extbnb_reco1_mcc9/extbnb_C2/00/00/73/98/larlite_reco2d_ecf8ea6d-5bca-4e10-b620-c7da226e8940.root'
p336
aS'/pnfs/uboone/data/uboone/larlite_reco2d/prod_v08_00_00_01/data_extbnb_reco1_mcc9/extbnb_C2/00/00/74/36/larlite_reco2d_2a0f5a92-533b-4045-bb32-11b93a7ad650.root'
p337
aS'/pnfs/uboone/data/uboone/larlite_reco2d/prod_v08_00_00_01/data_extbnb_reco1_mcc9/extbnb_C2/00/00/73/49/larlite_reco2d_40f220d6-a103-4f0f-8209-4e0acedf9482.root'
p338
aS'/pnfs/uboone/data/uboone/larlite_reco2d/prod_v08_00_00_01/data_extbnb_reco1_mcc9/extbnb_C2/00/00/74/00/larlite_reco2d_29025384-2a69-438b-95a6-50a5834debfb.root'
p339
aS'/pnfs/uboone/data/uboone/larlite_reco2d/prod_v08_00_00_01/data_extbnb_reco1_mcc9/extbnb_C2/00/00/74/57/larlite_reco2d_f52b84f7-8867-4602-a4f2-8a15fa2bc850.root'
p340
aS'/pnfs/uboone/data/uboone/larlite_reco2d/prod_v08_00_00_01/data_extbnb_reco1_mcc9/extbnb_C2/00/00/74/44/larlite_reco2d_286e7b29-14c4-4d12-9f1b-c510d3580899.root'
p341
aS'/pnfs/uboone/data/uboone/larlite_reco2d/prod_v08_00_00_01/data_extbnb_reco1_mcc9/extbnb_C2/00/00/74/03/larlite_reco2d_377a581e-35b2-4eb9-8f63-551444b3489d.root'
p342
aS'/pnfs/uboone/data/uboone/larlite_reco2d/prod_v08_00_00_01/data_extbnb_reco1_mcc9/extbnb_C2/00/00/74/57/larlite_reco2d_c8dc2d31-0e46-40e4-ab1c-6314a36728d8.root'
p343
aS'/pnfs/uboone/data/uboone/larlite_reco2d/prod_v08_00_00_01/data_extbnb_reco1_mcc9/extbnb_C2/00/00/74/57/larlite_reco2d_eb958b10-ce71-4274-b9ec-79fbc0b02777.root'
p344
aS'/pnfs/uboone/data/uboone/larlite_reco2d/prod_v08_00_00_01/data_extbnb_reco1_mcc9/extbnb_C2/00/00/73/91/larlite_reco2d_a02c58d4-2222-4bf5-98a8-3435703964cb.root'
p345
aS'/pnfs/uboone/data/uboone/larlite_reco2d/prod_v08_00_00_01/data_extbnb_reco1_mcc9/extbnb_C2/00/00/74/38/larlite_reco2d_d0ff43be-81c2-4d1b-b318-44c578a35d43.root'
p346
aS'/pnfs/uboone/data/uboone/larlite_reco2d/prod_v08_00_00_01/data_extbnb_reco1_mcc9/extbnb_C2/00/00/74/42/larlite_reco2d_cca3780f-0327-4f6c-8596-21344ef36eb6.root'
p347
aS'/pnfs/uboone/data/uboone/larlite_reco2d/prod_v08_00_00_01/data_extbnb_reco1_mcc9/extbnb_C2/00/00/74/19/larlite_reco2d_4cc4801e-ffba-454c-9cb2-6daf8c4e2dca.root'
p348
aS'/pnfs/uboone/data/uboone/larlite_reco2d/prod_v08_00_00_01/data_extbnb_reco1_mcc9/extbnb_C2/00/00/74/00/larlite_reco2d_2883598a-44b6-43ad-ae94-616c343d1c0a.root'
p349
aS'/pnfs/uboone/data/uboone/larlite_reco2d/prod_v08_00_00_01/data_extbnb_reco1_mcc9/extbnb_C2/00/00/74/66/larlite_reco2d_6646c382-5d38-4fde-801a-b7cbacc07e8c.root'
p350
aS'/pnfs/uboone/data/uboone/larlite_reco2d/prod_v08_00_00_01/data_extbnb_reco1_mcc9/extbnb_C2/00/00/74/21/larlite_reco2d_e497ef64-fd87-4093-b6c0-d17e02c82dfd.root'
p351
aS'/pnfs/uboone/data/uboone/larlite_reco2d/prod_v08_00_00_01/data_extbnb_reco1_mcc9/extbnb_C2/00/00/74/20/larlite_reco2d_6efe3ca7-dbea-4977-aed4-d92fe9314e33.root'
p352
aS'/pnfs/uboone/data/uboone/larlite_reco2d/prod_v08_00_00_01/data_extbnb_reco1_mcc9/extbnb_C2/00/00/74/61/larlite_reco2d_c48b0085-8068-46e8-9f05-cd8158cb460e.root'
p353
aS'/pnfs/uboone/data/uboone/larlite_reco2d/prod_v08_00_00_01/data_extbnb_reco1_mcc9/extbnb_C2/00/00/74/57/larlite_reco2d_57bb0810-e04a-4a76-8658-236eb3d38420.root'
p354
aS'/pnfs/uboone/data/uboone/larlite_reco2d/prod_v08_00_00_01/data_extbnb_reco1_mcc9/extbnb_C2/00/00/73/92/larlite_reco2d_24daadfb-757c-4a1a-a0d2-3e367924968c.root'
p355
aS'/pnfs/uboone/data/uboone/larlite_reco2d/prod_v08_00_00_01/data_extbnb_reco1_mcc9/extbnb_C2/00/00/74/57/larlite_reco2d_87d8d02c-bdfe-4bd4-8bad-3711fbc15d01.root'
p356
aS'/pnfs/uboone/data/uboone/larlite_reco2d/prod_v08_00_00_01/data_extbnb_reco1_mcc9/extbnb_C2/00/00/74/40/larlite_reco2d_30afe2f2-39d1-4e4e-8841-bf594562db6a.root'
p357
aS'/pnfs/uboone/data/uboone/larlite_reco2d/prod_v08_00_00_01/data_extbnb_reco1_mcc9/extbnb_C2/00/00/74/57/larlite_reco2d_8063d762-8953-41e1-b5f9-3cf8f1b7c2c1.root'
p358
aS'/pnfs/uboone/data/uboone/larlite_reco2d/prod_v08_00_00_01/data_extbnb_reco1_mcc9/extbnb_C2/00/00/73/91/larlite_reco2d_c174054a-7037-4773-8472-79b7c0a67785.root'
p359
aS'/pnfs/uboone/data/uboone/larlite_reco2d/prod_v08_00_00_01/data_extbnb_reco1_mcc9/extbnb_C2/00/00/73/91/larlite_reco2d_275c9e67-d00f-4949-9f74-d103f5c74479.root'
p360
aS'/pnfs/uboone/data/uboone/larlite_reco2d/prod_v08_00_00_01/data_extbnb_reco1_mcc9/extbnb_C2/00/00/74/42/larlite_reco2d_a0e99c7a-e0cb-40d4-83a7-6c6ff22ce720.root'
p361
aS'/pnfs/uboone/data/uboone/larlite_reco2d/prod_v08_00_00_01/data_extbnb_reco1_mcc9/extbnb_C2/00/00/73/98/larlite_reco2d_651fd8c4-c1d7-4d47-9366-b526d720aadf.root'
p362
aS'/pnfs/uboone/data/uboone/larlite_reco2d/prod_v08_00_00_01/data_extbnb_reco1_mcc9/extbnb_C2/00/00/74/69/larlite_reco2d_7b4fb7ab-1566-4d65-aa41-27014f8a7f8e.root'
p363
aS'/pnfs/uboone/data/uboone/larlite_reco2d/prod_v08_00_00_01/data_extbnb_reco1_mcc9/extbnb_C2/00/00/74/41/larlite_reco2d_b9b42896-e55f-452d-9a03-401735b3501c.root'
p364
aS'/pnfs/uboone/data/uboone/larlite_reco2d/prod_v08_00_00_01/data_extbnb_reco1_mcc9/extbnb_C2/00/00/74/19/larlite_reco2d_deb594b5-76e3-4a9a-ac71-e8dbf65658fd.root'
p365
aS'/pnfs/uboone/data/uboone/larlite_reco2d/prod_v08_00_00_01/data_extbnb_reco1_mcc9/extbnb_C2/00/00/73/91/larlite_reco2d_bfef5cf8-824c-4f44-a0c4-134720007378.root'
p366
aS'/pnfs/uboone/data/uboone/larlite_reco2d/prod_v08_00_00_01/data_extbnb_reco1_mcc9/extbnb_C2/00/00/73/98/larlite_reco2d_5dbe1c61-1b26-4db7-be58-4c9d8ca7725b.root'
p367
aS'/pnfs/uboone/data/uboone/larlite_reco2d/prod_v08_00_00_01/data_extbnb_reco1_mcc9/extbnb_C2/00/00/74/68/larlite_reco2d_a5873094-62bc-4e22-8a3d-b6dad33f34a4.root'
p368
aS'/pnfs/uboone/data/uboone/larlite_reco2d/prod_v08_00_00_01/data_extbnb_reco1_mcc9/extbnb_C2/00/00/74/17/larlite_reco2d_6e6692ab-2c0d-48a4-a8bb-463e17821173.root'
p369
aS'/pnfs/uboone/data/uboone/larlite_reco2d/prod_v08_00_00_01/data_extbnb_reco1_mcc9/extbnb_C2/00/00/74/44/larlite_reco2d_fd2f58c5-792f-45d3-bd0c-e2b212e02c1c.root'
p370
aS'/pnfs/uboone/data/uboone/larlite_reco2d/prod_v08_00_00_01/data_extbnb_reco1_mcc9/extbnb_C2/00/00/73/98/larlite_reco2d_8a3d6cc9-2ff6-40c7-8584-700ce3f6e294.root'
p371
aS'/pnfs/uboone/data/uboone/larlite_reco2d/prod_v08_00_00_01/data_extbnb_reco1_mcc9/extbnb_C2/00/00/74/21/larlite_reco2d_665b4047-f363-48bc-b171-c6c6ba6322eb.root'
p372
aS'/pnfs/uboone/data/uboone/larlite_reco2d/prod_v08_00_00_01/data_extbnb_reco1_mcc9/extbnb_C2/00/00/74/65/larlite_reco2d_d39bd8ef-a942-4b22-ae05-1595e2cf841c.root'
p373
aS'/pnfs/uboone/data/uboone/larlite_reco2d/prod_v08_00_00_01/data_extbnb_reco1_mcc9/extbnb_C2/00/00/74/65/larlite_reco2d_877d3b44-e927-41a0-8667-df856104cd21.root'
p374
aS'/pnfs/uboone/data/uboone/larlite_reco2d/prod_v08_00_00_01/data_extbnb_reco1_mcc9/extbnb_C2/00/00/74/00/larlite_reco2d_8fbf29fa-5ed5-4a37-bd09-5c1ddea92285.root'
p375
aS'/pnfs/uboone/data/uboone/larlite_reco2d/prod_v08_00_00_01/data_extbnb_reco1_mcc9/extbnb_C2/00/00/73/93/larlite_reco2d_a1e923f6-7190-4b70-a6d4-e8032e2a339e.root'
p376
aS'/pnfs/uboone/data/uboone/larlite_reco2d/prod_v08_00_00_01/data_extbnb_reco1_mcc9/extbnb_C2/00/00/74/40/larlite_reco2d_4e1d1982-ca72-453e-a4d5-78c2af789f4e.root'
p377
aS'/pnfs/uboone/data/uboone/larlite_reco2d/prod_v08_00_00_01/data_extbnb_reco1_mcc9/extbnb_C2/00/00/74/00/larlite_reco2d_f3a121da-2184-4fa3-bd4e-17d09f399b2e.root'
p378
aS'/pnfs/uboone/data/uboone/larlite_reco2d/prod_v08_00_00_01/data_extbnb_reco1_mcc9/extbnb_C2/00/00/74/66/larlite_reco2d_56294058-000d-4873-8d5b-6523c2a2b20c.root'
p379
aS'/pnfs/uboone/data/uboone/larlite_reco2d/prod_v08_00_00_01/data_extbnb_reco1_mcc9/extbnb_C2/00/00/73/91/larlite_reco2d_13491e0b-3f3c-4662-952a-ebe569e2aaef.root'
p380
aS'/pnfs/uboone/data/uboone/larlite_reco2d/prod_v08_00_00_01/data_extbnb_reco1_mcc9/extbnb_C2/00/00/74/03/larlite_reco2d_6fe1a6d3-5010-4789-ac81-2842488fca80.root'
p381
aS'/pnfs/uboone/data/uboone/larlite_reco2d/prod_v08_00_00_01/data_extbnb_reco1_mcc9/extbnb_C2/00/00/74/57/larlite_reco2d_90f5cd00-94a6-4bb8-a391-48b5ac02706f.root'
p382
aS'/pnfs/uboone/data/uboone/larlite_reco2d/prod_v08_00_00_01/data_extbnb_reco1_mcc9/extbnb_C2/00/00/74/64/larlite_reco2d_194b8ed9-d4a7-4d43-8be1-36e9ba997883.root'
p383
aS'/pnfs/uboone/data/uboone/larlite_reco2d/prod_v08_00_00_01/data_extbnb_reco1_mcc9/extbnb_C2/00/00/74/58/larlite_reco2d_e9dcea8a-2cdf-4384-b835-434fedfbd454.root'
p384
aS'/pnfs/uboone/data/uboone/larlite_reco2d/prod_v08_00_00_01/data_extbnb_reco1_mcc9/extbnb_C2/00/00/74/42/larlite_reco2d_c18408eb-4ebb-425a-9b86-20f3628354c1.root'
p385
aS'/pnfs/uboone/data/uboone/larlite_reco2d/prod_v08_00_00_01/data_extbnb_reco1_mcc9/extbnb_C2/00/00/74/58/larlite_reco2d_4b5821f6-7da1-4f22-9544-1bd83cdef847.root'
p386
aS'/pnfs/uboone/data/uboone/larlite_reco2d/prod_v08_00_00_01/data_extbnb_reco1_mcc9/extbnb_C2/00/00/74/61/larlite_reco2d_2c766c4e-b6e6-486a-bd3b-c221b1a5b65b.root'
p387
aS'/pnfs/uboone/data/uboone/larlite_reco2d/prod_v08_00_00_01/data_extbnb_reco1_mcc9/extbnb_C2/00/00/73/91/larlite_reco2d_9e39b281-bdeb-47e5-9fdf-466e51975c87.root'
p388
aS'/pnfs/uboone/data/uboone/larlite_reco2d/prod_v08_00_00_01/data_extbnb_reco1_mcc9/extbnb_C2/00/00/73/93/larlite_reco2d_b012a900-d0bc-45f4-87d6-6b351e197f6c.root'
p389
aS'/pnfs/uboone/data/uboone/larlite_reco2d/prod_v08_00_00_01/data_extbnb_reco1_mcc9/extbnb_C2/00/00/74/57/larlite_reco2d_79860320-1d1c-4b3e-8d26-5290d16c77d0.root'
p390
aS'/pnfs/uboone/data/uboone/larlite_reco2d/prod_v08_00_00_01/data_extbnb_reco1_mcc9/extbnb_C2/00/00/74/66/larlite_reco2d_00c03d05-36b1-44df-a60a-805ad27ee17e.root'
p391
aS'/pnfs/uboone/data/uboone/larlite_reco2d/prod_v08_00_00_01/data_extbnb_reco1_mcc9/extbnb_C2/00/00/74/00/larlite_reco2d_8d73250a-fab3-48b5-a095-945fddf0f6fe.root'
p392
aS'/pnfs/uboone/data/uboone/larlite_reco2d/prod_v08_00_00_01/data_extbnb_reco1_mcc9/extbnb_C2/00/00/74/21/larlite_reco2d_d85615fe-4fad-49d8-96b2-6b491f6251e4.root'
p393
aS'/pnfs/uboone/data/uboone/larlite_reco2d/prod_v08_00_00_01/data_extbnb_reco1_mcc9/extbnb_C2/00/00/74/19/larlite_reco2d_36d2825a-a3e3-4ded-bc22-a707724a24f8.root'
p394
aS'/pnfs/uboone/data/uboone/larlite_reco2d/prod_v08_00_00_01/data_extbnb_reco1_mcc9/extbnb_C2/00/00/74/20/larlite_reco2d_a33f1b75-543f-4281-b0bc-95ab229e1d64.root'
p395
aS'/pnfs/uboone/data/uboone/larlite_reco2d/prod_v08_00_00_01/data_extbnb_reco1_mcc9/extbnb_C2/00/00/74/03/larlite_reco2d_a7bc8e6c-77c6-4871-8663-4845f55e8e73.root'
p396
aS'/pnfs/uboone/data/uboone/larlite_reco2d/prod_v08_00_00_01/data_extbnb_reco1_mcc9/extbnb_C2/00/00/74/73/larlite_reco2d_b790d3df-6c7e-47c2-808a-3f09c7d7b90c.root'
p397
aS'/pnfs/uboone/data/uboone/larlite_reco2d/prod_v08_00_00_01/data_extbnb_reco1_mcc9/extbnb_C2/00/00/74/57/larlite_reco2d_ddc7a169-36cd-4255-a701-c69d86479b7e.root'
p398
aS'/pnfs/uboone/data/uboone/larlite_reco2d/prod_v08_00_00_01/data_extbnb_reco1_mcc9/extbnb_C2/00/00/74/42/larlite_reco2d_9ac19812-7245-4a22-b67e-57c1d802c73c.root'
p399
aS'/pnfs/uboone/data/uboone/larlite_reco2d/prod_v08_00_00_01/data_extbnb_reco1_mcc9/extbnb_C2/00/00/74/57/larlite_reco2d_36853092-0f91-4dcb-b9b4-7b42daf3f1a5.root'
p400
aS'/pnfs/uboone/data/uboone/larlite_reco2d/prod_v08_00_00_01/data_extbnb_reco1_mcc9/extbnb_C2/00/00/74/36/larlite_reco2d_97a4b6cb-f7e2-4413-b8c9-36e6a0dfd569.root'
p401
aS'/pnfs/uboone/data/uboone/larlite_reco2d/prod_v08_00_00_01/data_extbnb_reco1_mcc9/extbnb_C2/00/00/74/71/larlite_reco2d_0875f917-7775-414c-995d-801f3d4857e3.root'
p402
aS'/pnfs/uboone/data/uboone/larlite_reco2d/prod_v08_00_00_01/data_extbnb_reco1_mcc9/extbnb_C2/00/00/73/98/larlite_reco2d_1eeface0-c2ea-4008-a99d-a0b03622979b.root'
p403
aS'/pnfs/uboone/data/uboone/larlite_reco2d/prod_v08_00_00_01/data_extbnb_reco1_mcc9/extbnb_C2/00/00/74/66/larlite_reco2d_8d0fc4e0-2c1b-472b-b593-aa256ad52547.root'
p404
aS'/pnfs/uboone/data/uboone/larlite_reco2d/prod_v08_00_00_01/data_extbnb_reco1_mcc9/extbnb_C2/00/00/74/03/larlite_reco2d_3a9ec2d5-e14d-4e3c-86c7-739ff261e1f5.root'
p405
aS'/pnfs/uboone/data/uboone/larlite_reco2d/prod_v08_00_00_01/data_extbnb_reco1_mcc9/extbnb_C2/00/00/74/00/larlite_reco2d_6840586c-6277-4859-bb57-b5fe1b0e293c.root'
p406
aS'/pnfs/uboone/data/uboone/larlite_reco2d/prod_v08_00_00_01/data_extbnb_reco1_mcc9/extbnb_C2/00/00/74/69/larlite_reco2d_a9469d60-b201-42e2-af06-ad1db358ed02.root'
p407
aS'/pnfs/uboone/data/uboone/larlite_reco2d/prod_v08_00_00_01/data_extbnb_reco1_mcc9/extbnb_C2/00/00/74/57/larlite_reco2d_22a6b981-a436-4faa-bc1a-ecb8cf56526a.root'
p408
aS'/pnfs/uboone/data/uboone/larlite_reco2d/prod_v08_00_00_01/data_extbnb_reco1_mcc9/extbnb_C2/00/00/74/65/larlite_reco2d_47fe9bde-e6c7-4a36-aec2-02855fc4808a.root'
p409
aS'/pnfs/uboone/data/uboone/larlite_reco2d/prod_v08_00_00_01/data_extbnb_reco1_mcc9/extbnb_C2/00/00/73/93/larlite_reco2d_8c9571e5-bb15-4e04-8e23-c5eefda6f3a0.root'
p410
aS'/pnfs/uboone/data/uboone/larlite_reco2d/prod_v08_00_00_01/data_extbnb_reco1_mcc9/extbnb_C2/00/00/74/67/larlite_reco2d_aa23b30e-7348-4ede-923f-996b3295df18.root'
p411
aS'/pnfs/uboone/data/uboone/larlite_reco2d/prod_v08_00_00_01/data_extbnb_reco1_mcc9/extbnb_C2/00/00/74/56/larlite_reco2d_cf3ca508-3698-4b9c-bb3a-7661e2e4d64a.root'
p412
aS'/pnfs/uboone/data/uboone/larlite_reco2d/prod_v08_00_00_01/data_extbnb_reco1_mcc9/extbnb_C2/00/00/74/42/larlite_reco2d_bd63bc81-b0b1-4ee9-a8db-37eb05f0c54d.root'
p413
aS'/pnfs/uboone/data/uboone/larlite_reco2d/prod_v08_00_00_01/data_extbnb_reco1_mcc9/extbnb_C2/00/00/74/65/larlite_reco2d_71effad4-be41-4c2d-912a-1e88e79e3d52.root'
p414
aS'/pnfs/uboone/data/uboone/larlite_reco2d/prod_v08_00_00_01/data_extbnb_reco1_mcc9/extbnb_C2/00/00/73/98/larlite_reco2d_7f2991ec-f2a6-45d0-a17c-4e682b3d3de3.root'
p415
aS'/pnfs/uboone/data/uboone/larlite_reco2d/prod_v08_00_00_01/data_extbnb_reco1_mcc9/extbnb_C2/00/00/74/68/larlite_reco2d_0260d28d-affe-4e5e-b537-071524d18eed.root'
p416
aS'/pnfs/uboone/data/uboone/larlite_reco2d/prod_v08_00_00_01/data_extbnb_reco1_mcc9/extbnb_C2/00/00/74/66/larlite_reco2d_645bc534-b250-4bc8-8ae9-b27c6062bb23.root'
p417
aS'/pnfs/uboone/data/uboone/larlite_reco2d/prod_v08_00_00_01/data_extbnb_reco1_mcc9/extbnb_C2/00/00/74/63/larlite_reco2d_03f4c547-6ad0-4f56-8eed-d7bab1a5f178.root'
p418
aS'/pnfs/uboone/data/uboone/larlite_reco2d/prod_v08_00_00_01/data_extbnb_reco1_mcc9/extbnb_C2/00/00/74/57/larlite_reco2d_fb18f483-6971-4acf-8bd3-ff9d853559b1.root'
p419
aS'/pnfs/uboone/data/uboone/larlite_reco2d/prod_v08_00_00_01/data_extbnb_reco1_mcc9/extbnb_C2/00/00/74/57/larlite_reco2d_fb079db2-7ef4-49ed-b3ab-4f39791c4abf.root'
p420
aS'/pnfs/uboone/data/uboone/larlite_reco2d/prod_v08_00_00_01/data_extbnb_reco1_mcc9/extbnb_C2/00/00/74/39/larlite_reco2d_0f2be896-2107-41d0-869a-0ed5344c155d.root'
p421
aS'/pnfs/uboone/data/uboone/larlite_reco2d/prod_v08_00_00_01/data_extbnb_reco1_mcc9/extbnb_C2/00/00/73/98/larlite_reco2d_9509fd0c-c628-4bdc-85a6-e8600e47eb15.root'
p422
aS'/pnfs/uboone/data/uboone/larlite_reco2d/prod_v08_00_00_01/data_extbnb_reco1_mcc9/extbnb_C2/00/00/73/91/larlite_reco2d_42fda69e-0618-4adf-8413-26d1c1409f03.root'
p423
aS'/pnfs/uboone/data/uboone/larlite_reco2d/prod_v08_00_00_01/data_extbnb_reco1_mcc9/extbnb_C2/00/00/74/03/larlite_reco2d_1e393ed7-5e7f-47c5-b8ce-76eeded6c82f.root'
p424
aS'/pnfs/uboone/data/uboone/larlite_reco2d/prod_v08_00_00_01/data_extbnb_reco1_mcc9/extbnb_C2/00/00/74/66/larlite_reco2d_2ce2dcc4-9f53-4e0a-8905-ba56fc5d20fa.root'
p425
aS'/pnfs/uboone/data/uboone/larlite_reco2d/prod_v08_00_00_01/data_extbnb_reco1_mcc9/extbnb_C2/00/00/74/73/larlite_reco2d_57fe9753-4fea-402a-b279-f6185efb976f.root'
p426
aS'/pnfs/uboone/data/uboone/larlite_reco2d/prod_v08_00_00_01/data_extbnb_reco1_mcc9/extbnb_C2/00/00/74/20/larlite_reco2d_ed342875-6aee-4a7a-8d75-d3f6aefd8d67.root'
p427
aS'/pnfs/uboone/data/uboone/larlite_reco2d/prod_v08_00_00_01/data_extbnb_reco1_mcc9/extbnb_C2/00/00/73/91/larlite_reco2d_1cad9ecf-44c0-414c-8c84-8836e5190d4b.root'
p428
aS'/pnfs/uboone/data/uboone/larlite_reco2d/prod_v08_00_00_01/data_extbnb_reco1_mcc9/extbnb_C2/00/00/74/66/larlite_reco2d_861c4ad3-cdfe-4ae4-acbb-7e33a7af8377.root'
p429
aS'/pnfs/uboone/data/uboone/larlite_reco2d/prod_v08_00_00_01/data_extbnb_reco1_mcc9/extbnb_C2/00/00/74/59/larlite_reco2d_c69f039f-b4a3-4a12-9cf6-1e77a74e4271.root'
p430
aS'/pnfs/uboone/data/uboone/larlite_reco2d/prod_v08_00_00_01/data_extbnb_reco1_mcc9/extbnb_C2/00/00/74/00/larlite_reco2d_467ef64e-617e-475d-afea-419973236309.root'
p431
aS'/pnfs/uboone/data/uboone/larlite_reco2d/prod_v08_00_00_01/data_extbnb_reco1_mcc9/extbnb_C2/00/00/74/21/larlite_reco2d_59f09603-a32d-48f3-94eb-7e13fe4ab073.root'
p432
aS'/pnfs/uboone/data/uboone/larlite_reco2d/prod_v08_00_00_01/data_extbnb_reco1_mcc9/extbnb_C2/00/00/74/57/larlite_reco2d_229719fb-d39f-4009-848a-effcfaf2d2a5.root'
p433
aS'/pnfs/uboone/data/uboone/larlite_reco2d/prod_v08_00_00_01/data_extbnb_reco1_mcc9/extbnb_C2/00/00/74/59/larlite_reco2d_67eb652d-e13d-4132-aa81-2eff4d31460a.root'
p434
aS'/pnfs/uboone/data/uboone/larlite_reco2d/prod_v08_00_00_01/data_extbnb_reco1_mcc9/extbnb_C2/00/00/74/62/larlite_reco2d_05a95784-106f-400e-94ae-312299cb64ba.root'
p435
aS'/pnfs/uboone/data/uboone/larlite_reco2d/prod_v08_00_00_01/data_extbnb_reco1_mcc9/extbnb_C2/00/00/74/65/larlite_reco2d_08c0896b-e75e-462c-aeeb-3fd50d9d8539.root'
p436
aS'/pnfs/uboone/data/uboone/larlite_reco2d/prod_v08_00_00_01/data_extbnb_reco1_mcc9/extbnb_C2/00/00/73/90/larlite_reco2d_f26bdd3e-571e-428a-a9dc-968c6c282970.root'
p437
aS'/pnfs/uboone/data/uboone/larlite_reco2d/prod_v08_00_00_01/data_extbnb_reco1_mcc9/extbnb_C2/00/00/73/34/larlite_reco2d_24fbb7d7-a31d-42eb-8b39-038932d3a3fd.root'
p438
aS'/pnfs/uboone/data/uboone/larlite_reco2d/prod_v08_00_00_01/data_extbnb_reco1_mcc9/extbnb_C2/00/00/73/91/larlite_reco2d_03e20cc3-87c3-4d30-b417-b2c4727ee18f.root'
p439
aS'/pnfs/uboone/data/uboone/larlite_reco2d/prod_v08_00_00_01/data_extbnb_reco1_mcc9/extbnb_C2/00/00/74/00/larlite_reco2d_9f18a878-f4db-42b5-a9c2-d6e6e5f7d7e4.root'
p440
aS'/pnfs/uboone/data/uboone/larlite_reco2d/prod_v08_00_00_01/data_extbnb_reco1_mcc9/extbnb_C2/00/00/74/61/larlite_reco2d_242c05d8-75fb-4b85-ac20-6e195160eba2.root'
p441
aS'/pnfs/uboone/data/uboone/larlite_reco2d/prod_v08_00_00_01/data_extbnb_reco1_mcc9/extbnb_C2/00/00/74/61/larlite_reco2d_fe9c58b8-4b08-4085-ae31-7351dcedc767.root'
p442
aS'/pnfs/uboone/data/uboone/larlite_reco2d/prod_v08_00_00_01/data_extbnb_reco1_mcc9/extbnb_C2/00/00/73/91/larlite_reco2d_e32f4e9c-4ef3-4bfb-90d0-999f1b160207.root'
p443
aS'/pnfs/uboone/data/uboone/larlite_reco2d/prod_v08_00_00_01/data_extbnb_reco1_mcc9/extbnb_C2/00/00/74/73/larlite_reco2d_6b5262cd-5319-45e1-a1ae-b17a4ec6f5ab.root'
p444
aS'/pnfs/uboone/data/uboone/larlite_reco2d/prod_v08_00_00_01/data_extbnb_reco1_mcc9/extbnb_C2/00/00/74/42/larlite_reco2d_6e98bdee-df6d-45e7-ba3d-80b39db33a5a.root'
p445
aS'/pnfs/uboone/data/uboone/larlite_reco2d/prod_v08_00_00_01/data_extbnb_reco1_mcc9/extbnb_C2/00/00/74/13/larlite_reco2d_492d6d3c-aebf-42d7-aabc-9b40f195b470.root'
p446
aS'/pnfs/uboone/data/uboone/larlite_reco2d/prod_v08_00_00_01/data_extbnb_reco1_mcc9/extbnb_C2/00/00/74/65/larlite_reco2d_6a1c06f5-9f56-4936-8dbe-427111fc26f1.root'
p447
aS'/pnfs/uboone/data/uboone/larlite_reco2d/prod_v08_00_00_01/data_extbnb_reco1_mcc9/extbnb_C2/00/00/74/42/larlite_reco2d_c3b5a9ba-64fc-4c07-ae74-29b559d2b066.root'
p448
aS'/pnfs/uboone/data/uboone/larlite_reco2d/prod_v08_00_00_01/data_extbnb_reco1_mcc9/extbnb_C2/00/00/74/55/larlite_reco2d_695f5af1-b0e0-4125-96f4-d095e0864956.root'
p449
aS'/pnfs/uboone/data/uboone/larlite_reco2d/prod_v08_00_00_01/data_extbnb_reco1_mcc9/extbnb_C2/00/00/74/57/larlite_reco2d_3d169111-2a18-42e5-bf05-f96963a970f6.root'
p450
aS'/pnfs/uboone/data/uboone/larlite_reco2d/prod_v08_00_00_01/data_extbnb_reco1_mcc9/extbnb_C2/00/00/74/58/larlite_reco2d_1cbc78aa-77c3-49e1-a486-822e8f2e22fe.root'
p451
aS'/pnfs/uboone/data/uboone/larlite_reco2d/prod_v08_00_00_01/data_extbnb_reco1_mcc9/extbnb_C2/00/00/73/91/larlite_reco2d_b7789dfb-4aca-45e0-82ad-f490bc98be1d.root'
p452
aS'/pnfs/uboone/data/uboone/larlite_reco2d/prod_v08_00_00_01/data_extbnb_reco1_mcc9/extbnb_C2/00/00/74/57/larlite_reco2d_1c5dc1df-9a4d-4f29-81fc-24a4205453d8.root'
p453
aS'/pnfs/uboone/data/uboone/larlite_reco2d/prod_v08_00_00_01/data_extbnb_reco1_mcc9/extbnb_C2/00/00/74/64/larlite_reco2d_8645906b-29d8-4c6d-889a-6f3b80318b64.root'
p454
aS'/pnfs/uboone/data/uboone/larlite_reco2d/prod_v08_00_00_01/data_extbnb_reco1_mcc9/extbnb_C2/00/00/74/03/larlite_reco2d_6c65f6a1-41fb-45d8-a937-1dc9f73c0f56.root'
p455
aS'/pnfs/uboone/data/uboone/larlite_reco2d/prod_v08_00_00_01/data_extbnb_reco1_mcc9/extbnb_C2/00/00/74/57/larlite_reco2d_2ada2531-6cc7-4670-a2e7-b3fee2d6c68d.root'
p456
aS'/pnfs/uboone/data/uboone/larlite_reco2d/prod_v08_00_00_01/data_extbnb_reco1_mcc9/extbnb_C2/00/00/74/36/larlite_reco2d_6c53af4b-8216-4a59-9812-5628dab4ee0a.root'
p457
aS'/pnfs/uboone/data/uboone/larlite_reco2d/prod_v08_00_00_01/data_extbnb_reco1_mcc9/extbnb_C2/00/00/74/61/larlite_reco2d_f3877b77-2a41-4722-8c5d-af87c7177510.root'
p458
aS'/pnfs/uboone/data/uboone/larlite_reco2d/prod_v08_00_00_01/data_extbnb_reco1_mcc9/extbnb_C2/00/00/73/91/larlite_reco2d_95f469d0-78cc-429b-9fd4-290db362b048.root'
p459
aS'/pnfs/uboone/data/uboone/larlite_reco2d/prod_v08_00_00_01/data_extbnb_reco1_mcc9/extbnb_C2/00/00/74/66/larlite_reco2d_6f404877-ad1b-45df-8b10-8e632ee1cd23.root'
p460
aS'/pnfs/uboone/data/uboone/larlite_reco2d/prod_v08_00_00_01/data_extbnb_reco1_mcc9/extbnb_C2/00/00/74/66/larlite_reco2d_bf4ace7f-8d0f-4cca-b9d9-51791dfb741d.root'
p461
aS'/pnfs/uboone/data/uboone/larlite_reco2d/prod_v08_00_00_01/data_extbnb_reco1_mcc9/extbnb_C2/00/00/74/71/larlite_reco2d_e42a37a7-720e-4f40-a635-928858c27abb.root'
p462
aS'/pnfs/uboone/data/uboone/larlite_reco2d/prod_v08_00_00_01/data_extbnb_reco1_mcc9/extbnb_C2/00/00/74/00/larlite_reco2d_c638c7c8-706a-42ed-b1c2-1605356de92f.root'
p463
aS'/pnfs/uboone/data/uboone/larlite_reco2d/prod_v08_00_00_01/data_extbnb_reco1_mcc9/extbnb_C2/00/00/74/62/larlite_reco2d_0b06712a-edb7-4051-ab41-848fdb53b2c0.root'
p464
aS'/pnfs/uboone/data/uboone/larlite_reco2d/prod_v08_00_00_01/data_extbnb_reco1_mcc9/extbnb_C2/00/00/74/64/larlite_reco2d_cab714ba-3f61-483f-a7c8-c0d15ac78bb0.root'
p465
aS'/pnfs/uboone/data/uboone/larlite_reco2d/prod_v08_00_00_01/data_extbnb_reco1_mcc9/extbnb_C2/00/00/74/58/larlite_reco2d_845c6a91-55ab-4fcd-a811-4d3bed48ac6d.root'
p466
aS'/pnfs/uboone/data/uboone/larlite_reco2d/prod_v08_00_00_01/data_extbnb_reco1_mcc9/extbnb_C2/00/00/74/65/larlite_reco2d_1a4c1a39-bcd5-494c-8202-ee109ad44bb9.root'
p467
aS'/pnfs/uboone/data/uboone/larlite_reco2d/prod_v08_00_00_01/data_extbnb_reco1_mcc9/extbnb_C2/00/00/74/57/larlite_reco2d_3445b65d-5d79-405c-856d-30c83f955800.root'
p468
aS'/pnfs/uboone/data/uboone/larlite_reco2d/prod_v08_00_00_01/data_extbnb_reco1_mcc9/extbnb_C2/00/00/74/66/larlite_reco2d_18b6efe8-7f1f-4c3c-b226-9fb12d914b48.root'
p469
aS'/pnfs/uboone/data/uboone/larlite_reco2d/prod_v08_00_00_01/data_extbnb_reco1_mcc9/extbnb_C2/00/00/73/92/larlite_reco2d_3f93fdad-ade8-42e4-84aa-6ab66790825f.root'
p470
aS'/pnfs/uboone/data/uboone/larlite_reco2d/prod_v08_00_00_01/data_extbnb_reco1_mcc9/extbnb_C2/00/00/73/49/larlite_reco2d_b4ffbe5c-2813-4d09-a297-7690838b936f.root'
p471
aS'/pnfs/uboone/data/uboone/larlite_reco2d/prod_v08_00_00_01/data_extbnb_reco1_mcc9/extbnb_C2/00/00/74/61/larlite_reco2d_1ec325ee-f07e-4fe8-a095-26ef241be7e8.root'
p472
aS'/pnfs/uboone/data/uboone/larlite_reco2d/prod_v08_00_00_01/data_extbnb_reco1_mcc9/extbnb_C2/00/00/74/66/larlite_reco2d_209d7ce0-9e31-43ec-941f-6d062983bac3.root'
p473
aS'/pnfs/uboone/data/uboone/larlite_reco2d/prod_v08_00_00_01/data_extbnb_reco1_mcc9/extbnb_C2/00/00/74/66/larlite_reco2d_efd34e4a-7f40-418f-9cd3-0ccce4a18942.root'
p474
aS'/pnfs/uboone/data/uboone/larlite_reco2d/prod_v08_00_00_01/data_extbnb_reco1_mcc9/extbnb_C2/00/00/74/58/larlite_reco2d_401d2666-2448-422d-a216-8490bfead703.root'
p475
aS'/pnfs/uboone/data/uboone/larlite_reco2d/prod_v08_00_00_01/data_extbnb_reco1_mcc9/extbnb_C2/00/00/74/42/larlite_reco2d_6e4aa32a-bb88-425a-8e6a-f5420d213f86.root'
p476
aS'/pnfs/uboone/data/uboone/larlite_reco2d/prod_v08_00_00_01/data_extbnb_reco1_mcc9/extbnb_C2/00/00/74/62/larlite_reco2d_7e980ce6-17a0-4938-8169-41ab4669ccf0.root'
p477
aS'/pnfs/uboone/data/uboone/larlite_reco2d/prod_v08_00_00_01/data_extbnb_reco1_mcc9/extbnb_C2/00/00/74/73/larlite_reco2d_ae22b2a7-0484-402d-b5e2-fd225e1d37cd.root'
p478
aS'/pnfs/uboone/data/uboone/larlite_reco2d/prod_v08_00_00_01/data_extbnb_reco1_mcc9/extbnb_C2/00/00/74/73/larlite_reco2d_b723f955-6198-4c9d-a3d5-2f7d439baddd.root'
p479
aS'/pnfs/uboone/data/uboone/larlite_reco2d/prod_v08_00_00_01/data_extbnb_reco1_mcc9/extbnb_C2/00/00/74/66/larlite_reco2d_e32d897d-dbc7-46ed-903b-93b52de20de4.root'
p480
aS'/pnfs/uboone/data/uboone/larlite_reco2d/prod_v08_00_00_01/data_extbnb_reco1_mcc9/extbnb_C2/00/00/74/61/larlite_reco2d_df2a92d1-63fc-4203-86fe-d51aad07c4ff.root'
p481
aS'/pnfs/uboone/data/uboone/larlite_reco2d/prod_v08_00_00_01/data_extbnb_reco1_mcc9/extbnb_C2/00/00/73/49/larlite_reco2d_d117394f-b82f-4908-bf07-ec057e4c1e3e.root'
p482
aS'/pnfs/uboone/data/uboone/larlite_reco2d/prod_v08_00_00_01/data_extbnb_reco1_mcc9/extbnb_C2/00/00/74/20/larlite_reco2d_347b0648-d8a1-462e-8e2a-7a422361f55e.root'
p483
aS'/pnfs/uboone/data/uboone/larlite_reco2d/prod_v08_00_00_01/data_extbnb_reco1_mcc9/extbnb_C2/00/00/74/18/larlite_reco2d_a919dc61-1468-47f0-bc7d-cce14d140fc8.root'
p484
aS'/pnfs/uboone/data/uboone/larlite_reco2d/prod_v08_00_00_01/data_extbnb_reco1_mcc9/extbnb_C2/00/00/74/64/larlite_reco2d_6dfcfab1-c675-48b8-90b3-a2547e05c5b9.root'
p485
aS'/pnfs/uboone/data/uboone/larlite_reco2d/prod_v08_00_00_01/data_extbnb_reco1_mcc9/extbnb_C2/00/00/74/66/larlite_reco2d_40b17e68-d233-4117-a84c-6eb00b93ad33.root'
p486
aS'/pnfs/uboone/data/uboone/larlite_reco2d/prod_v08_00_00_01/data_extbnb_reco1_mcc9/extbnb_C2/00/00/74/00/larlite_reco2d_c07171e6-9e22-48aa-b6af-41c0f8ef1fcc.root'
p487
aS'/pnfs/uboone/data/uboone/larlite_reco2d/prod_v08_00_00_01/data_extbnb_reco1_mcc9/extbnb_C2/00/00/74/71/larlite_reco2d_719b1240-3304-4c94-8b77-d2ee1ca4ce07.root'
p488
aS'/pnfs/uboone/data/uboone/larlite_reco2d/prod_v08_00_00_01/data_extbnb_reco1_mcc9/extbnb_C2/00/00/74/58/larlite_reco2d_c0ec7572-3f83-4a16-aceb-68729f625ae7.root'
p489
aS'/pnfs/uboone/data/uboone/larlite_reco2d/prod_v08_00_00_01/data_extbnb_reco1_mcc9/extbnb_C2/00/00/74/20/larlite_reco2d_0b2241fb-02c3-4d87-a92e-f8c900963582.root'
p490
aS'/pnfs/uboone/data/uboone/larlite_reco2d/prod_v08_00_00_01/data_extbnb_reco1_mcc9/extbnb_C2/00/00/73/49/larlite_reco2d_a7517237-f6a1-4c0b-a241-321c1219321b.root'
p491
aS'/pnfs/uboone/data/uboone/larlite_reco2d/prod_v08_00_00_01/data_extbnb_reco1_mcc9/extbnb_C2/00/00/74/59/larlite_reco2d_e2508f4b-6b96-4f2a-818e-11509cff9e6a.root'
p492
aS'/pnfs/uboone/data/uboone/larlite_reco2d/prod_v08_00_00_01/data_extbnb_reco1_mcc9/extbnb_C2/00/00/73/91/larlite_reco2d_8ab61bb5-bb47-42b2-a17d-e8c0fcc953bc.root'
p493
aS'/pnfs/uboone/data/uboone/larlite_reco2d/prod_v08_00_00_01/data_extbnb_reco1_mcc9/extbnb_C2/00/00/73/93/larlite_reco2d_48f87539-e26a-4cf1-a310-a81e9d6d34f7.root'
p494
aS'/pnfs/uboone/data/uboone/larlite_reco2d/prod_v08_00_00_01/data_extbnb_reco1_mcc9/extbnb_C2/00/00/74/61/larlite_reco2d_a94616b2-789a-4964-99b6-7edd6fadf36d.root'
p495
aS'/pnfs/uboone/data/uboone/larlite_reco2d/prod_v08_00_00_01/data_extbnb_reco1_mcc9/extbnb_C2/00/00/74/61/larlite_reco2d_80ca1d1c-7423-483b-96f5-01ba9b984fce.root'
p496
aS'/pnfs/uboone/data/uboone/larlite_reco2d/prod_v08_00_00_01/data_extbnb_reco1_mcc9/extbnb_C2/00/00/74/66/larlite_reco2d_cd2801e0-f99f-42a6-98df-276121673292.root'
p497
aS'/pnfs/uboone/data/uboone/larlite_reco2d/prod_v08_00_00_01/data_extbnb_reco1_mcc9/extbnb_C2/00/00/74/63/larlite_reco2d_cfb989de-99d7-4759-bb40-ab1dba2cf069.root'
p498
aS'/pnfs/uboone/data/uboone/larlite_reco2d/prod_v08_00_00_01/data_extbnb_reco1_mcc9/extbnb_C2/00/00/74/00/larlite_reco2d_2ad4915f-4c50-452c-8e51-56af18df0ab0.root'
p499
aS'/pnfs/uboone/data/uboone/larlite_reco2d/prod_v08_00_00_01/data_extbnb_reco1_mcc9/extbnb_C2/00/00/73/93/larlite_reco2d_3c005d32-e31d-4f64-917b-b44e87e3e7c5.root'
p500
aS'/pnfs/uboone/data/uboone/larlite_reco2d/prod_v08_00_00_01/data_extbnb_reco1_mcc9/extbnb_C2/00/00/74/66/larlite_reco2d_6229577d-7f25-4438-b5cd-ab7dcd8edbfa.root'
p501
aS'/pnfs/uboone/data/uboone/larlite_reco2d/prod_v08_00_00_01/data_extbnb_reco1_mcc9/extbnb_C2/00/00/74/66/larlite_reco2d_ab3e2589-34a2-44ee-936d-8d3be9d357cc.root'
p502
aS'/pnfs/uboone/data/uboone/larlite_reco2d/prod_v08_00_00_01/data_extbnb_reco1_mcc9/extbnb_C2/00/00/74/69/larlite_reco2d_53a28d23-397b-4fd5-8b1e-ad32b0ab892d.root'
p503
aS'/pnfs/uboone/data/uboone/larlite_reco2d/prod_v08_00_00_01/data_extbnb_reco1_mcc9/extbnb_C2/00/00/74/66/larlite_reco2d_9da4f518-af0e-43d8-9a62-3558b000a34c.root'
p504
aS'/pnfs/uboone/data/uboone/larlite_reco2d/prod_v08_00_00_01/data_extbnb_reco1_mcc9/extbnb_C2/00/00/74/00/larlite_reco2d_68b1be0c-0b6e-4a96-a18b-66ef65a2c265.root'
p505
aS'/pnfs/uboone/data/uboone/larlite_reco2d/prod_v08_00_00_01/data_extbnb_reco1_mcc9/extbnb_C2/00/00/74/61/larlite_reco2d_cbd09241-6772-41fa-838d-c980271eba98.root'
p506
aS'/pnfs/uboone/data/uboone/larlite_reco2d/prod_v08_00_00_01/data_extbnb_reco1_mcc9/extbnb_C2/00/00/74/66/larlite_reco2d_4160d23c-c59d-4857-b645-aacb429a3b0e.root'
p507
aS'/pnfs/uboone/data/uboone/larlite_reco2d/prod_v08_00_00_01/data_extbnb_reco1_mcc9/extbnb_C2/00/00/73/91/larlite_reco2d_10c1b25e-1e11-440a-8203-76c090ccbe15.root'
p508
aS'/pnfs/uboone/data/uboone/larlite_reco2d/prod_v08_00_00_01/data_extbnb_reco1_mcc9/extbnb_C2/00/00/74/71/larlite_reco2d_7f33032f-a33c-42d2-81e5-c95936cf1b5a.root'
p509
aS'/pnfs/uboone/data/uboone/larlite_reco2d/prod_v08_00_00_01/data_extbnb_reco1_mcc9/extbnb_C2/00/00/73/93/larlite_reco2d_44e8f9e9-8843-4343-8156-dbff90c44a12.root'
p510
aS'/pnfs/uboone/data/uboone/larlite_reco2d/prod_v08_00_00_01/data_extbnb_reco1_mcc9/extbnb_C2/00/00/74/69/larlite_reco2d_6c342334-7381-42d7-ab23-62771762aa2d.root'
p511
aS'/pnfs/uboone/data/uboone/larlite_reco2d/prod_v08_00_00_01/data_extbnb_reco1_mcc9/extbnb_C2/00/00/74/20/larlite_reco2d_365e038a-3c58-4ba9-aa1e-b8a34ca0c36f.root'
p512
aS'/pnfs/uboone/data/uboone/larlite_reco2d/prod_v08_00_00_01/data_extbnb_reco1_mcc9/extbnb_C2/00/00/74/69/larlite_reco2d_d64dfa1f-46fb-4ec4-a2e2-7eff1de4cbee.root'
p513
aS'/pnfs/uboone/data/uboone/larlite_reco2d/prod_v08_00_00_01/data_extbnb_reco1_mcc9/extbnb_C2/00/00/74/66/larlite_reco2d_6ad0c571-b39e-4044-acb6-1a4d08541657.root'
p514
aS'/pnfs/uboone/data/uboone/larlite_reco2d/prod_v08_00_00_01/data_extbnb_reco1_mcc9/extbnb_C2/00/00/74/66/larlite_reco2d_fb783d17-1717-493f-af44-85e246913418.root'
p515
aS'/pnfs/uboone/data/uboone/larlite_reco2d/prod_v08_00_00_01/data_extbnb_reco1_mcc9/extbnb_C2/00/00/73/91/larlite_reco2d_a0f5b292-2cf1-4f71-bc06-2c500334981d.root'
p516
aS'/pnfs/uboone/data/uboone/larlite_reco2d/prod_v08_00_00_01/data_extbnb_reco1_mcc9/extbnb_C2/00/00/74/66/larlite_reco2d_dbbf5f85-d5f9-4095-9be9-f6ae0f5e71c2.root'
p517
aS'/pnfs/uboone/data/uboone/larlite_reco2d/prod_v08_00_00_01/data_extbnb_reco1_mcc9/extbnb_C2/00/00/74/58/larlite_reco2d_69d5b219-8fea-4f5d-b1ca-4a552a15667d.root'
p518
aS'/pnfs/uboone/data/uboone/larlite_reco2d/prod_v08_00_00_01/data_extbnb_reco1_mcc9/extbnb_C2/00/00/74/71/larlite_reco2d_5cc7c7ef-7e0a-48c4-94f8-ea6c91c4fd89.root'
p519
aS'/pnfs/uboone/data/uboone/larlite_reco2d/prod_v08_00_00_01/data_extbnb_reco1_mcc9/extbnb_C2/00/00/74/57/larlite_reco2d_943c0c2b-5d07-44b8-9e37-1b6313623179.root'
p520
aS'/pnfs/uboone/data/uboone/larlite_reco2d/prod_v08_00_00_01/data_extbnb_reco1_mcc9/extbnb_C2/00/00/74/36/larlite_reco2d_bb166b07-4477-4c12-9627-f862b9a96973.root'
p521
aS'/pnfs/uboone/data/uboone/larlite_reco2d/prod_v08_00_00_01/data_extbnb_reco1_mcc9/extbnb_C2/00/00/74/66/larlite_reco2d_2c08ac9c-c230-4efb-a7b6-4c4fec0a09a7.root'
p522
aS'/pnfs/uboone/data/uboone/larlite_reco2d/prod_v08_00_00_01/data_extbnb_reco1_mcc9/extbnb_C2/00/00/73/98/larlite_reco2d_1f345de3-392f-4761-a615-88e8c46af9af.root'
p523
aS'/pnfs/uboone/data/uboone/larlite_reco2d/prod_v08_00_00_01/data_extbnb_reco1_mcc9/extbnb_C2/00/00/74/59/larlite_reco2d_6ba081d2-3b01-4ce5-8100-c7945fb09b50.root'
p524
aS'/pnfs/uboone/data/uboone/larlite_reco2d/prod_v08_00_00_01/data_extbnb_reco1_mcc9/extbnb_C2/00/00/74/62/larlite_reco2d_999bbdca-bc0b-4e7a-809d-99f9cfed6330.root'
p525
aS'/pnfs/uboone/data/uboone/larlite_reco2d/prod_v08_00_00_01/data_extbnb_reco1_mcc9/extbnb_C2/00/00/74/66/larlite_reco2d_99ece451-457d-48cd-b315-cb273746d034.root'
p526
aS'/pnfs/uboone/data/uboone/larlite_reco2d/prod_v08_00_00_01/data_extbnb_reco1_mcc9/extbnb_C2/00/00/74/66/larlite_reco2d_7565fb7e-a4f8-4aee-a3c3-f13a79292835.root'
p527
aS'/pnfs/uboone/data/uboone/larlite_reco2d/prod_v08_00_00_01/data_extbnb_reco1_mcc9/extbnb_C2/00/00/73/98/larlite_reco2d_d2d71990-b8c8-450f-a762-97aa310fc209.root'
p528
aS'/pnfs/uboone/data/uboone/larlite_reco2d/prod_v08_00_00_01/data_extbnb_reco1_mcc9/extbnb_C2/00/00/73/50/larlite_reco2d_198f0df6-dddf-4b7e-a60a-1be034b44afb.root'
p529
aS'/pnfs/uboone/data/uboone/larlite_reco2d/prod_v08_00_00_01/data_extbnb_reco1_mcc9/extbnb_C2/00/00/74/61/larlite_reco2d_43617048-c75f-475a-b339-39ccd7ce2fd7.root'
p530
aS'/pnfs/uboone/data/uboone/larlite_reco2d/prod_v08_00_00_01/data_extbnb_reco1_mcc9/extbnb_C2/00/00/73/97/larlite_reco2d_1dcf7dbd-dadb-48bb-afdc-b8f124f2c785.root'
p531
aS'/pnfs/uboone/data/uboone/larlite_reco2d/prod_v08_00_00_01/data_extbnb_reco1_mcc9/extbnb_C2/00/00/74/66/larlite_reco2d_708ae582-49bb-4fec-84cd-96fdb591123b.root'
p532
aS'/pnfs/uboone/data/uboone/larlite_reco2d/prod_v08_00_00_01/data_extbnb_reco1_mcc9/extbnb_C2/00/00/74/66/larlite_reco2d_35770b05-8713-42f0-a110-e08395136448.root'
p533
aS'/pnfs/uboone/data/uboone/larlite_reco2d/prod_v08_00_00_01/data_extbnb_reco1_mcc9/extbnb_C2/00/00/74/69/larlite_reco2d_14f3acba-9fa5-4ac7-bc65-157f383d0547.root'
p534
aS'/pnfs/uboone/data/uboone/larlite_reco2d/prod_v08_00_00_01/data_extbnb_reco1_mcc9/extbnb_C2/00/00/74/69/larlite_reco2d_5a401040-534c-404e-a8bf-2b14d7d5f17d.root'
p535
aS'/pnfs/uboone/data/uboone/larlite_reco2d/prod_v08_00_00_01/data_extbnb_reco1_mcc9/extbnb_C2/00/00/74/59/larlite_reco2d_1e3a89d0-ad73-43f3-9f59-e3392c88d2e5.root'
p536
aS'/pnfs/uboone/data/uboone/larlite_reco2d/prod_v08_00_00_01/data_extbnb_reco1_mcc9/extbnb_C2/00/00/74/66/larlite_reco2d_9db9e2c7-b81e-4cda-befa-556689dd2f3f.root'
p537
aS'/pnfs/uboone/data/uboone/larlite_reco2d/prod_v08_00_00_01/data_extbnb_reco1_mcc9/extbnb_C2/00/00/74/61/larlite_reco2d_259d68cd-bdc4-480b-a56d-ace697e708b4.root'
p538
aS'/pnfs/uboone/data/uboone/larlite_reco2d/prod_v08_00_00_01/data_extbnb_reco1_mcc9/extbnb_C2/00/00/74/61/larlite_reco2d_ebd70be5-162f-441d-921c-da9d3d51398d.root'
p539
aS'/pnfs/uboone/data/uboone/larlite_reco2d/prod_v08_00_00_01/data_extbnb_reco1_mcc9/extbnb_C2/00/00/74/61/larlite_reco2d_4d264f7c-72f4-4fb7-9ada-8db1c26fa023.root'
p540
aS'/pnfs/uboone/data/uboone/larlite_reco2d/prod_v08_00_00_01/data_extbnb_reco1_mcc9/extbnb_C2/00/00/73/98/larlite_reco2d_ad2b12c2-b860-482f-8468-d75a6cfb169b.root'
p541
aS'/pnfs/uboone/data/uboone/larlite_reco2d/prod_v08_00_00_01/data_extbnb_reco1_mcc9/extbnb_C2/00/00/74/58/larlite_reco2d_dbc447f8-5137-426a-9218-064d077e1df6.root'
p542
aS'/pnfs/uboone/data/uboone/larlite_reco2d/prod_v08_00_00_01/data_extbnb_reco1_mcc9/extbnb_C2/00/00/74/57/larlite_reco2d_970725f7-ebbd-4e1a-aa51-b7f1948b3b98.root'
p543
aS'/pnfs/uboone/data/uboone/larlite_reco2d/prod_v08_00_00_01/data_extbnb_reco1_mcc9/extbnb_C2/00/00/74/64/larlite_reco2d_f22ed318-0d64-4766-98a4-0dd028212b7c.root'
p544
aS'/pnfs/uboone/data/uboone/larlite_reco2d/prod_v08_00_00_01/data_extbnb_reco1_mcc9/extbnb_C2/00/00/73/91/larlite_reco2d_8c827b32-912e-4ffa-9937-28eaf30f9cc4.root'
p545
aS'/pnfs/uboone/data/uboone/larlite_reco2d/prod_v08_00_00_01/data_extbnb_reco1_mcc9/extbnb_C2/00/00/74/03/larlite_reco2d_e446f6dc-16f1-44e7-999f-5b92fee2a258.root'
p546
aS'/pnfs/uboone/data/uboone/larlite_reco2d/prod_v08_00_00_01/data_extbnb_reco1_mcc9/extbnb_C2/00/00/74/66/larlite_reco2d_49312c9c-f544-4ef4-9cfe-b2ee02ae11de.root'
p547
aS'/pnfs/uboone/data/uboone/larlite_reco2d/prod_v08_00_00_01/data_extbnb_reco1_mcc9/extbnb_C2/00/00/74/57/larlite_reco2d_be1a9a41-5597-4de6-886a-f1131a67c253.root'
p548
aS'/pnfs/uboone/data/uboone/larlite_reco2d/prod_v08_00_00_01/data_extbnb_reco1_mcc9/extbnb_C2/00/00/73/97/larlite_reco2d_e751951d-bf45-479d-a639-6fa5c9f91526.root'
p549
aS'/pnfs/uboone/data/uboone/larlite_reco2d/prod_v08_00_00_01/data_extbnb_reco1_mcc9/extbnb_C2/00/00/74/73/larlite_reco2d_c2e5ccb2-d7ca-4441-9935-3f7736c42563.root'
p550
aS'/pnfs/uboone/data/uboone/larlite_reco2d/prod_v08_00_00_01/data_extbnb_reco1_mcc9/extbnb_C2/00/00/74/66/larlite_reco2d_d2afef88-8a85-48d1-9160-a997fbeb23b2.root'
p551
aS'/pnfs/uboone/data/uboone/larlite_reco2d/prod_v08_00_00_01/data_extbnb_reco1_mcc9/extbnb_C2/00/00/74/58/larlite_reco2d_8cc9c6af-9767-4ef1-ba47-edc70bf9ecdf.root'
p552
aS'/pnfs/uboone/data/uboone/larlite_reco2d/prod_v08_00_00_01/data_extbnb_reco1_mcc9/extbnb_C2/00/00/74/19/larlite_reco2d_89df0b22-e32e-44c3-842f-a51e4eb42c7b.root'
p553
aS'/pnfs/uboone/data/uboone/larlite_reco2d/prod_v08_00_00_01/data_extbnb_reco1_mcc9/extbnb_C2/00/00/74/66/larlite_reco2d_68adbfe7-32ae-4194-aa14-12fac9a06368.root'
p554
aS'/pnfs/uboone/data/uboone/larlite_reco2d/prod_v08_00_00_01/data_extbnb_reco1_mcc9/extbnb_C2/00/00/74/66/larlite_reco2d_e5653cab-3930-40fc-a1ed-9bdead602528.root'
p555
aS'/pnfs/uboone/data/uboone/larlite_reco2d/prod_v08_00_00_01/data_extbnb_reco1_mcc9/extbnb_C2/00/00/74/03/larlite_reco2d_e0013e05-7d1d-47a4-b453-46deb625b0f5.root'
p556
aS'/pnfs/uboone/data/uboone/larlite_reco2d/prod_v08_00_00_01/data_extbnb_reco1_mcc9/extbnb_C2/00/00/74/03/larlite_reco2d_33d58dff-c80f-4836-9c0c-84e1e4b865a1.root'
p557
aS'/pnfs/uboone/data/uboone/larlite_reco2d/prod_v08_00_00_01/data_extbnb_reco1_mcc9/extbnb_C2/00/00/74/66/larlite_reco2d_4eecdb91-c993-489c-a34e-4e2c5575f2a9.root'
p558
aS'/pnfs/uboone/data/uboone/larlite_reco2d/prod_v08_00_00_01/data_extbnb_reco1_mcc9/extbnb_C2/00/00/74/71/larlite_reco2d_63cf29c8-af86-4db5-bc02-9de9c2be24d5.root'
p559
aS'/pnfs/uboone/data/uboone/larlite_reco2d/prod_v08_00_00_01/data_extbnb_reco1_mcc9/extbnb_C2/00/00/73/98/larlite_reco2d_0c6d0298-8638-4a2c-84f5-01c4cf5dfb33.root'
p560
aS'/pnfs/uboone/data/uboone/larlite_reco2d/prod_v08_00_00_01/data_extbnb_reco1_mcc9/extbnb_C2/00/00/73/98/larlite_reco2d_1e30b1f2-c1be-4edd-85c4-1c657435a18a.root'
p561
aS'/pnfs/uboone/data/uboone/larlite_reco2d/prod_v08_00_00_01/data_extbnb_reco1_mcc9/extbnb_C2/00/00/74/59/larlite_reco2d_4ffc2b30-994b-44ff-96b0-46caf5b20c75.root'
p562
aS'/pnfs/uboone/data/uboone/larlite_reco2d/prod_v08_00_00_01/data_extbnb_reco1_mcc9/extbnb_C2/00/00/74/61/larlite_reco2d_4832b790-6c98-422a-a2ae-6dfbf21ea539.root'
p563
aS'/pnfs/uboone/data/uboone/larlite_reco2d/prod_v08_00_00_01/data_extbnb_reco1_mcc9/extbnb_C2/00/00/74/21/larlite_reco2d_e063aaa5-d706-4d47-b138-bff6928b6f4f.root'
p564
aS'/pnfs/uboone/data/uboone/larlite_reco2d/prod_v08_00_00_01/data_extbnb_reco1_mcc9/extbnb_C2/00/00/74/66/larlite_reco2d_88627206-56fd-42b3-8130-1e5bfc421abf.root'
p565
aS'/pnfs/uboone/data/uboone/larlite_reco2d/prod_v08_00_00_01/data_extbnb_reco1_mcc9/extbnb_C2/00/00/74/71/larlite_reco2d_b732f8f0-8dd7-4aab-bd12-e6bb504a5848.root'
p566
aS'/pnfs/uboone/data/uboone/larlite_reco2d/prod_v08_00_00_01/data_extbnb_reco1_mcc9/extbnb_C2/00/00/74/61/larlite_reco2d_19a0967a-9a1d-4154-9f34-d3a0bfc7c786.root'
p567
aS'/pnfs/uboone/data/uboone/larlite_reco2d/prod_v08_00_00_01/data_extbnb_reco1_mcc9/extbnb_C2/00/00/74/61/larlite_reco2d_82404634-970b-4cb7-a7c4-1589d0061615.root'
p568
aS'/pnfs/uboone/data/uboone/larlite_reco2d/prod_v08_00_00_01/data_extbnb_reco1_mcc9/extbnb_C2/00/00/73/98/larlite_reco2d_020b75cb-f2f7-4446-88a8-c9547d897370.root'
p569
aS'/pnfs/uboone/data/uboone/larlite_reco2d/prod_v08_00_00_01/data_extbnb_reco1_mcc9/extbnb_C2/00/00/74/73/larlite_reco2d_972ed8c8-d1cc-4e6c-91b4-34bb156e9981.root'
p570
aS'/pnfs/uboone/data/uboone/larlite_reco2d/prod_v08_00_00_01/data_extbnb_reco1_mcc9/extbnb_C2/00/00/74/58/larlite_reco2d_5d0fa8cf-07f7-4bdc-b12f-7aa17f209aaa.root'
p571
aS'/pnfs/uboone/data/uboone/larlite_reco2d/prod_v08_00_00_01/data_extbnb_reco1_mcc9/extbnb_C2/00/00/73/92/larlite_reco2d_d36cb0dd-d76a-4f7d-8830-aa245603fda3.root'
p572
aS'/pnfs/uboone/data/uboone/larlite_reco2d/prod_v08_00_00_01/data_extbnb_reco1_mcc9/extbnb_C2/00/00/74/65/larlite_reco2d_22da7b7e-fcec-43ee-b741-8340220516c6.root'
p573
aS'/pnfs/uboone/data/uboone/larlite_reco2d/prod_v08_00_00_01/data_extbnb_reco1_mcc9/extbnb_C2/00/00/74/66/larlite_reco2d_e2a8ba09-8b8d-47a3-8f80-96d515133f7a.root'
p574
aS'/pnfs/uboone/data/uboone/larlite_reco2d/prod_v08_00_00_01/data_extbnb_reco1_mcc9/extbnb_C2/00/00/74/73/larlite_reco2d_3a969955-a939-4473-87f8-16f7fe90d355.root'
p575
aS'/pnfs/uboone/data/uboone/larlite_reco2d/prod_v08_00_00_01/data_extbnb_reco1_mcc9/extbnb_C2/00/00/74/58/larlite_reco2d_162b2cac-ae34-4ce8-842a-f9b99ba925e5.root'
p576
aS'/pnfs/uboone/data/uboone/larlite_reco2d/prod_v08_00_00_01/data_extbnb_reco1_mcc9/extbnb_C2/00/00/74/58/larlite_reco2d_155f0100-a1f2-4466-a6f8-c24b9efcfba9.root'
p577
aS'/pnfs/uboone/data/uboone/larlite_reco2d/prod_v08_00_00_01/data_extbnb_reco1_mcc9/extbnb_C2/00/00/73/93/larlite_reco2d_2cb25d19-dc22-477b-90e2-dfb3d642fe1f.root'
p578
aS'/pnfs/uboone/data/uboone/larlite_reco2d/prod_v08_00_00_01/data_extbnb_reco1_mcc9/extbnb_C2/00/00/74/66/larlite_reco2d_87d5fff8-dc3e-4656-9c39-e0a409e4f85f.root'
p579
aS'/pnfs/uboone/data/uboone/larlite_reco2d/prod_v08_00_00_01/data_extbnb_reco1_mcc9/extbnb_C2/00/00/74/00/larlite_reco2d_55a6eff8-9657-4fd6-8194-a451f30f6348.root'
p580
aS'/pnfs/uboone/data/uboone/larlite_reco2d/prod_v08_00_00_01/data_extbnb_reco1_mcc9/extbnb_C2/00/00/74/00/larlite_reco2d_f34f0c76-51fb-45d0-af82-6081ccd64b99.root'
p581
aS'/pnfs/uboone/data/uboone/larlite_reco2d/prod_v08_00_00_01/data_extbnb_reco1_mcc9/extbnb_C2/00/00/73/91/larlite_reco2d_ef29ccea-409d-4d86-aeea-56b4201c7b24.root'
p582
aS'/pnfs/uboone/data/uboone/larlite_reco2d/prod_v08_00_00_01/data_extbnb_reco1_mcc9/extbnb_C2/00/00/74/66/larlite_reco2d_e15710f5-8bb4-4857-99b5-c092b72e3199.root'
p583
aS'/pnfs/uboone/data/uboone/larlite_reco2d/prod_v08_00_00_01/data_extbnb_reco1_mcc9/extbnb_C2/00/00/74/01/larlite_reco2d_d19cfb2d-d11f-4060-80aa-30c9bab059b6.root'
p584
aS'/pnfs/uboone/data/uboone/larlite_reco2d/prod_v08_00_00_01/data_extbnb_reco1_mcc9/extbnb_C2/00/00/73/93/larlite_reco2d_b7672447-cd45-47ea-a685-8bf264d0eed2.root'
p585
aS'/pnfs/uboone/data/uboone/larlite_reco2d/prod_v08_00_00_01/data_extbnb_reco1_mcc9/extbnb_C2/00/00/74/61/larlite_reco2d_e1b89127-fa73-491c-9f22-07ecf4e8ba68.root'
p586
aS'/pnfs/uboone/data/uboone/larlite_reco2d/prod_v08_00_00_01/data_extbnb_reco1_mcc9/extbnb_C2/00/00/74/66/larlite_reco2d_92630a68-2ed2-4c8f-8445-14bb01de3806.root'
p587
aS'/pnfs/uboone/data/uboone/larlite_reco2d/prod_v08_00_00_01/data_extbnb_reco1_mcc9/extbnb_C2/00/00/74/55/larlite_reco2d_da3c7dd7-551a-42c0-81d7-53aa8c71cbbb.root'
p588
aS'/pnfs/uboone/data/uboone/larlite_reco2d/prod_v08_00_00_01/data_extbnb_reco1_mcc9/extbnb_C2/00/00/74/69/larlite_reco2d_b84f0292-8ffe-4e13-a5c3-db4b839f948f.root'
p589
aS'/pnfs/uboone/data/uboone/larlite_reco2d/prod_v08_00_00_01/data_extbnb_reco1_mcc9/extbnb_C2/00/00/74/66/larlite_reco2d_33885590-4504-43c5-982a-7c5e8404c9f9.root'
p590
aS'/pnfs/uboone/data/uboone/larlite_reco2d/prod_v08_00_00_01/data_extbnb_reco1_mcc9/extbnb_C2/00/00/74/66/larlite_reco2d_a81b55fc-55c6-4972-982b-c262431d0a9f.root'
p591
aS'/pnfs/uboone/data/uboone/larlite_reco2d/prod_v08_00_00_01/data_extbnb_reco1_mcc9/extbnb_C2/00/00/74/00/larlite_reco2d_883b9b54-e51e-4011-b652-26fa58739591.root'
p592
aS'/pnfs/uboone/data/uboone/larlite_reco2d/prod_v08_00_00_01/data_extbnb_reco1_mcc9/extbnb_C2/00/00/74/65/larlite_reco2d_3fa95ec1-e979-4695-a3ab-916779e0a1b3.root'
p593
aS'/pnfs/uboone/data/uboone/larlite_reco2d/prod_v08_00_00_01/data_extbnb_reco1_mcc9/extbnb_C2/00/00/74/73/larlite_reco2d_a1a7ed47-492f-4474-a367-b2b0f838c375.root'
p594
aS'/pnfs/uboone/data/uboone/larlite_reco2d/prod_v08_00_00_01/data_extbnb_reco1_mcc9/extbnb_C2/00/00/74/61/larlite_reco2d_6ea65da7-2778-4cec-96b7-49f4c2fea07e.root'
p595
aS'/pnfs/uboone/data/uboone/larlite_reco2d/prod_v08_00_00_01/data_extbnb_reco1_mcc9/extbnb_C2/00/00/73/93/larlite_reco2d_cf002321-4003-45fe-9c46-94118513f096.root'
p596
aS'/pnfs/uboone/data/uboone/larlite_reco2d/prod_v08_00_00_01/data_extbnb_reco1_mcc9/extbnb_C2/00/00/73/98/larlite_reco2d_680d6aa6-d06c-4512-b717-11358d841dc4.root'
p597
aS'/pnfs/uboone/data/uboone/larlite_reco2d/prod_v08_00_00_01/data_extbnb_reco1_mcc9/extbnb_C2/00/00/74/65/larlite_reco2d_3e62e39c-6a81-4fc4-9384-b62ffe3195ba.root'
p598
aS'/pnfs/uboone/data/uboone/larlite_reco2d/prod_v08_00_00_01/data_extbnb_reco1_mcc9/extbnb_C2/00/00/74/18/larlite_reco2d_4aaf08d4-678f-410e-8099-1559c45edfd0.root'
p599
aS'/pnfs/uboone/data/uboone/larlite_reco2d/prod_v08_00_00_01/data_extbnb_reco1_mcc9/extbnb_C2/00/00/73/93/larlite_reco2d_01045fd6-eedc-4c01-82a0-b8b92ad60c2e.root'
p600
aS'/pnfs/uboone/data/uboone/larlite_reco2d/prod_v08_00_00_01/data_extbnb_reco1_mcc9/extbnb_C2/00/00/73/97/larlite_reco2d_ad8da05c-d159-41f8-ac03-80354678ea8d.root'
p601
aS'/pnfs/uboone/data/uboone/larlite_reco2d/prod_v08_00_00_01/data_extbnb_reco1_mcc9/extbnb_C2/00/00/74/61/larlite_reco2d_704ad009-3791-4f71-baaf-8759d00c5106.root'
p602
aS'/pnfs/uboone/data/uboone/larlite_reco2d/prod_v08_00_00_01/data_extbnb_reco1_mcc9/extbnb_C2/00/00/74/20/larlite_reco2d_1d6350b6-6a06-4e35-8ddb-9cad7f73a412.root'
p603
aS'/pnfs/uboone/data/uboone/larlite_reco2d/prod_v08_00_00_01/data_extbnb_reco1_mcc9/extbnb_C2/00/00/74/61/larlite_reco2d_876b607b-dfdd-4b02-aec2-d555338baf9b.root'
p604
aS'/pnfs/uboone/data/uboone/larlite_reco2d/prod_v08_00_00_01/data_extbnb_reco1_mcc9/extbnb_C2/00/00/74/66/larlite_reco2d_043aeb01-bf7c-4235-8b15-bb2ac4c6052b.root'
p605
aS'/pnfs/uboone/data/uboone/larlite_reco2d/prod_v08_00_00_01/data_extbnb_reco1_mcc9/extbnb_C2/00/00/74/66/larlite_reco2d_ecddcdd5-7e8d-47c8-b936-182d79f4b409.root'
p606
aS'/pnfs/uboone/data/uboone/larlite_reco2d/prod_v08_00_00_01/data_extbnb_reco1_mcc9/extbnb_C2/00/00/74/66/larlite_reco2d_6a2b7fce-5a40-41df-9563-13f3f993f3e5.root'
p607
aS'/pnfs/uboone/data/uboone/larlite_reco2d/prod_v08_00_00_01/data_extbnb_reco1_mcc9/extbnb_C2/00/00/74/61/larlite_reco2d_5c4339d7-3138-47bf-92b5-6f91991f8e9c.root'
p608
aS'/pnfs/uboone/data/uboone/larlite_reco2d/prod_v08_00_00_01/data_extbnb_reco1_mcc9/extbnb_C2/00/00/74/66/larlite_reco2d_1515447b-f7cc-455f-8888-8ec1151992b2.root'
p609
aS'/pnfs/uboone/data/uboone/larlite_reco2d/prod_v08_00_00_01/data_extbnb_reco1_mcc9/extbnb_C2/00/00/73/98/larlite_reco2d_cfcdd953-c5bd-4c10-a81d-1836d4d2aa0d.root'
p610
aS'/pnfs/uboone/data/uboone/larlite_reco2d/prod_v08_00_00_01/data_extbnb_reco1_mcc9/extbnb_C2/00/00/73/92/larlite_reco2d_02a86841-b924-4818-93ae-e4800f049be9.root'
p611
aS'/pnfs/uboone/data/uboone/larlite_reco2d/prod_v08_00_00_01/data_extbnb_reco1_mcc9/extbnb_C2/00/00/73/93/larlite_reco2d_907880d9-52b5-47eb-95c5-321b6127b942.root'
p612
aS'/pnfs/uboone/data/uboone/larlite_reco2d/prod_v08_00_00_01/data_extbnb_reco1_mcc9/extbnb_C2/00/00/74/00/larlite_reco2d_4537ef47-b457-47d6-a12f-126fe43257df.root'
p613
aS'/pnfs/uboone/data/uboone/larlite_reco2d/prod_v08_00_00_01/data_extbnb_reco1_mcc9/extbnb_C2/00/00/73/93/larlite_reco2d_841a4ba7-b952-4902-93b4-2fee2dca79d5.root'
p614
aS'/pnfs/uboone/data/uboone/larlite_reco2d/prod_v08_00_00_01/data_extbnb_reco1_mcc9/extbnb_C2/00/00/73/93/larlite_reco2d_41c8dbe7-3b08-4348-a47a-1d8b49108392.root'
p615
aS'/pnfs/uboone/data/uboone/larlite_reco2d/prod_v08_00_00_01/data_extbnb_reco1_mcc9/extbnb_C2/00/00/74/66/larlite_reco2d_3dce82ad-91b3-4bd9-9822-a483e8238b97.root'
p616
aS'/pnfs/uboone/data/uboone/larlite_reco2d/prod_v08_00_00_01/data_extbnb_reco1_mcc9/extbnb_C2/00/00/74/00/larlite_reco2d_0605f797-bf49-4cf9-9106-8ca4a76f0759.root'
p617
aS'/pnfs/uboone/data/uboone/larlite_reco2d/prod_v08_00_00_01/data_extbnb_reco1_mcc9/extbnb_C2/00/00/74/66/larlite_reco2d_f46c5af1-6c29-4d32-ba58-dc6eb3bfbf84.root'
p618
aS'/pnfs/uboone/data/uboone/larlite_reco2d/prod_v08_00_00_01/data_extbnb_reco1_mcc9/extbnb_C2/00/00/74/69/larlite_reco2d_875c343d-3ffd-4630-bb49-0f243b0c59ef.root'
p619
aS'/pnfs/uboone/data/uboone/larlite_reco2d/prod_v08_00_00_01/data_extbnb_reco1_mcc9/extbnb_C2/00/00/74/66/larlite_reco2d_283f349f-d2cc-4b69-99b6-5746aa81ada5.root'
p620
aS'/pnfs/uboone/data/uboone/larlite_reco2d/prod_v08_00_00_01/data_extbnb_reco1_mcc9/extbnb_C2/00/00/74/00/larlite_reco2d_cf5cad04-5850-40d5-b530-249b136a286c.root'
p621
aS'/pnfs/uboone/data/uboone/larlite_reco2d/prod_v08_00_00_01/data_extbnb_reco1_mcc9/extbnb_C2/00/00/74/74/larlite_reco2d_933b5d17-cab2-4092-af83-0c7063747b2b.root'
p622
aS'/pnfs/uboone/data/uboone/larlite_reco2d/prod_v08_00_00_01/data_extbnb_reco1_mcc9/extbnb_C2/00/00/74/20/larlite_reco2d_1921a4a9-3fdd-479f-92dd-e27befbed624.root'
p623
aS'/pnfs/uboone/data/uboone/larlite_reco2d/prod_v08_00_00_01/data_extbnb_reco1_mcc9/extbnb_C2/00/00/74/18/larlite_reco2d_bdfb2e68-94ff-4c6f-864d-5fdd0ed46bf1.root'
p624
aS'/pnfs/uboone/data/uboone/larlite_reco2d/prod_v08_00_00_01/data_extbnb_reco1_mcc9/extbnb_C2/00/00/74/41/larlite_reco2d_64d3bf9b-76ab-473f-8d3c-1c3bcc6da266.root'
p625
aS'/pnfs/uboone/data/uboone/larlite_reco2d/prod_v08_00_00_01/data_extbnb_reco1_mcc9/extbnb_C2/00/00/74/62/larlite_reco2d_65f30cab-ec3c-4952-9d86-4a7c4d072216.root'
p626
aS'/pnfs/uboone/data/uboone/larlite_reco2d/prod_v08_00_00_01/data_extbnb_reco1_mcc9/extbnb_C2/00/00/74/61/larlite_reco2d_d4bdf02c-7cdc-43d8-852e-088c2e53bc55.root'
p627
aS'/pnfs/uboone/data/uboone/larlite_reco2d/prod_v08_00_00_01/data_extbnb_reco1_mcc9/extbnb_C2/00/00/74/00/larlite_reco2d_cf331062-587c-4ec4-9b9b-3ba802bd4490.root'
p628
aS'/pnfs/uboone/data/uboone/larlite_reco2d/prod_v08_00_00_01/data_extbnb_reco1_mcc9/extbnb_C2/00/00/74/65/larlite_reco2d_e6d33b3d-ab16-420f-aa79-a2fea8bf31fd.root'
p629
aS'/pnfs/uboone/data/uboone/larlite_reco2d/prod_v08_00_00_01/data_extbnb_reco1_mcc9/extbnb_C2/00/00/73/91/larlite_reco2d_ab9f15ce-c519-4cc2-90c8-03b4859ecf9c.root'
p630
aS'/pnfs/uboone/data/uboone/larlite_reco2d/prod_v08_00_00_01/data_extbnb_reco1_mcc9/extbnb_C2/00/00/74/03/larlite_reco2d_36b2e625-1eb0-49e4-939d-3f9c47d1a083.root'
p631
aS'/pnfs/uboone/data/uboone/larlite_reco2d/prod_v08_00_00_01/data_extbnb_reco1_mcc9/extbnb_C2/00/00/74/69/larlite_reco2d_461cfddb-1488-4e4f-b682-2d99fb41d709.root'
p632
aS'/pnfs/uboone/data/uboone/larlite_reco2d/prod_v08_00_00_01/data_extbnb_reco1_mcc9/extbnb_C2/00/00/74/61/larlite_reco2d_880a9bc7-10ba-4786-b5e9-2d91638c6d0e.root'
p633
aS'/pnfs/uboone/data/uboone/larlite_reco2d/prod_v08_00_00_01/data_extbnb_reco1_mcc9/extbnb_C2/00/00/74/42/larlite_reco2d_173f975c-6ae5-489c-bd68-4bed5198916e.root'
p634
aS'/pnfs/uboone/data/uboone/larlite_reco2d/prod_v08_00_00_01/data_extbnb_reco1_mcc9/extbnb_C2/00/00/74/66/larlite_reco2d_005f8085-6aad-4410-a8c5-21191939c728.root'
p635
aS'/pnfs/uboone/data/uboone/larlite_reco2d/prod_v08_00_00_01/data_extbnb_reco1_mcc9/extbnb_C2/00/00/73/93/larlite_reco2d_d02bd755-5985-4705-ad87-c17dc3b3beb4.root'
p636
aS'/pnfs/uboone/data/uboone/larlite_reco2d/prod_v08_00_00_01/data_extbnb_reco1_mcc9/extbnb_C2/00/00/74/59/larlite_reco2d_7b327a8f-0017-447e-9d37-706adc9a2b9c.root'
p637
aS'/pnfs/uboone/data/uboone/larlite_reco2d/prod_v08_00_00_01/data_extbnb_reco1_mcc9/extbnb_C2/00/00/74/66/larlite_reco2d_458a8766-781b-47a6-8f36-9ac8686abd3b.root'
p638
aS'/pnfs/uboone/data/uboone/larlite_reco2d/prod_v08_00_00_01/data_extbnb_reco1_mcc9/extbnb_C2/00/00/74/59/larlite_reco2d_3902885f-12cd-40c9-ae61-429a65ae2e04.root'
p639
aS'/pnfs/uboone/data/uboone/larlite_reco2d/prod_v08_00_00_01/data_extbnb_reco1_mcc9/extbnb_C2/00/00/74/61/larlite_reco2d_61979d42-2e26-4ddf-bde6-367bde8a3527.root'
p640
aS'/pnfs/uboone/data/uboone/larlite_reco2d/prod_v08_00_00_01/data_extbnb_reco1_mcc9/extbnb_C2/00/00/74/00/larlite_reco2d_35fd7834-3bbd-4753-ac2a-a4eaf6c4ace7.root'
p641
aS'/pnfs/uboone/data/uboone/larlite_reco2d/prod_v08_00_00_01/data_extbnb_reco1_mcc9/extbnb_C2/00/00/73/98/larlite_reco2d_988e671e-9c85-40f8-b497-942c38cd6df6.root'
p642
aS'/pnfs/uboone/data/uboone/larlite_reco2d/prod_v08_00_00_01/data_extbnb_reco1_mcc9/extbnb_C2/00/00/74/66/larlite_reco2d_8e5a591d-fa23-4efe-a47c-c78abb6d89f6.root'
p643
aS'/pnfs/uboone/data/uboone/larlite_reco2d/prod_v08_00_00_01/data_extbnb_reco1_mcc9/extbnb_C2/00/00/74/65/larlite_reco2d_15d8a2d2-1afc-4a63-9006-d3ffb90dd5c2.root'
p644
aS'/pnfs/uboone/data/uboone/larlite_reco2d/prod_v08_00_00_01/data_extbnb_reco1_mcc9/extbnb_C2/00/00/74/66/larlite_reco2d_72e9d086-1e8f-47d3-a05c-bfe060c6dd9b.root'
p645
aS'/pnfs/uboone/data/uboone/larlite_reco2d/prod_v08_00_00_01/data_extbnb_reco1_mcc9/extbnb_C2/00/00/74/66/larlite_reco2d_cfce9b25-113b-41e9-8add-df106eaeaf67.root'
p646
aS'/pnfs/uboone/data/uboone/larlite_reco2d/prod_v08_00_00_01/data_extbnb_reco1_mcc9/extbnb_C2/00/00/74/73/larlite_reco2d_96211324-9fa9-477f-8ff6-69d34f7f736f.root'
p647
aS'/pnfs/uboone/data/uboone/larlite_reco2d/prod_v08_00_00_01/data_extbnb_reco1_mcc9/extbnb_C2/00/00/74/18/larlite_reco2d_862bf8e5-4578-4563-bf61-a1d88d01e963.root'
p648
aS'/pnfs/uboone/data/uboone/larlite_reco2d/prod_v08_00_00_01/data_extbnb_reco1_mcc9/extbnb_C2/00/00/73/97/larlite_reco2d_98ed7107-48e9-4f5b-bbe8-e0b4b4f410d0.root'
p649
aS'/pnfs/uboone/data/uboone/larlite_reco2d/prod_v08_00_00_01/data_extbnb_reco1_mcc9/extbnb_C2/00/00/74/63/larlite_reco2d_bd2bbfa1-18ed-4662-a007-ddaa41edbc60.root'
p650
aS'/pnfs/uboone/data/uboone/larlite_reco2d/prod_v08_00_00_01/data_extbnb_reco1_mcc9/extbnb_C2/00/00/73/98/larlite_reco2d_1655a2bc-4427-48e4-a362-eea4f3c91632.root'
p651
aS'/pnfs/uboone/data/uboone/larlite_reco2d/prod_v08_00_00_01/data_extbnb_reco1_mcc9/extbnb_C2/00/00/74/00/larlite_reco2d_93342a84-b2ef-490a-820b-7fc48db17dea.root'
p652
aS'/pnfs/uboone/data/uboone/larlite_reco2d/prod_v08_00_00_01/data_extbnb_reco1_mcc9/extbnb_C2/00/00/74/61/larlite_reco2d_8e420cce-b434-4a7d-88c0-09ef29d1deb8.root'
p653
aS'/pnfs/uboone/data/uboone/larlite_reco2d/prod_v08_00_00_01/data_extbnb_reco1_mcc9/extbnb_C2/00/00/74/69/larlite_reco2d_ed535771-6c4e-4358-b5ac-0084d655948c.root'
p654
aS'/pnfs/uboone/data/uboone/larlite_reco2d/prod_v08_00_00_01/data_extbnb_reco1_mcc9/extbnb_C2/00/00/74/59/larlite_reco2d_e6854918-f4d7-4d35-8829-4c640d8d2093.root'
p655
aS'/pnfs/uboone/data/uboone/larlite_reco2d/prod_v08_00_00_01/data_extbnb_reco1_mcc9/extbnb_C2/00/00/74/58/larlite_reco2d_cc65d527-b4d6-48ea-b0a3-181ee8fe645a.root'
p656
aS'/pnfs/uboone/data/uboone/larlite_reco2d/prod_v08_00_00_01/data_extbnb_reco1_mcc9/extbnb_C2/00/00/74/61/larlite_reco2d_798d7862-8195-4f86-a16e-78f44d9336f5.root'
p657
aS'/pnfs/uboone/data/uboone/larlite_reco2d/prod_v08_00_00_01/data_extbnb_reco1_mcc9/extbnb_C2/00/00/74/69/larlite_reco2d_aee1d180-9c03-4cf3-b354-927afe02112e.root'
p658
aS'/pnfs/uboone/data/uboone/larlite_reco2d/prod_v08_00_00_01/data_extbnb_reco1_mcc9/extbnb_C2/00/00/74/61/larlite_reco2d_a45dc61a-9634-470a-b7f8-d81754110794.root'
p659
aS'/pnfs/uboone/data/uboone/larlite_reco2d/prod_v08_00_00_01/data_extbnb_reco1_mcc9/extbnb_C2/00/00/74/71/larlite_reco2d_b6f49fb3-f1a7-48f6-8253-a7c9cce2ead5.root'
p660
aS'/pnfs/uboone/data/uboone/larlite_reco2d/prod_v08_00_00_01/data_extbnb_reco1_mcc9/extbnb_C2/00/00/74/61/larlite_reco2d_d329596a-89da-4f8b-b879-2045c009d6d0.root'
p661
aS'/pnfs/uboone/data/uboone/larlite_reco2d/prod_v08_00_00_01/data_extbnb_reco1_mcc9/extbnb_C2/00/00/74/69/larlite_reco2d_e671d29f-f50c-45e3-8ea6-f2f42c83288b.root'
p662
aS'/pnfs/uboone/data/uboone/larlite_reco2d/prod_v08_00_00_01/data_extbnb_reco1_mcc9/extbnb_C2/00/00/73/93/larlite_reco2d_2784f42c-4464-4dd9-944d-5824d856a33b.root'
p663
aS'/pnfs/uboone/data/uboone/larlite_reco2d/prod_v08_00_00_01/data_extbnb_reco1_mcc9/extbnb_C2/00/00/74/58/larlite_reco2d_d7702420-8699-400f-9508-a2dde10a5639.root'
p664
aS'/pnfs/uboone/data/uboone/larlite_reco2d/prod_v08_00_00_01/data_extbnb_reco1_mcc9/extbnb_C2/00/00/74/66/larlite_reco2d_444c5c12-f2ea-4ba4-8131-0ac34d0be2ac.root'
p665
aS'/pnfs/uboone/data/uboone/larlite_reco2d/prod_v08_00_00_01/data_extbnb_reco1_mcc9/extbnb_C2/00/00/74/00/larlite_reco2d_7ea7a256-d0cb-471f-b6fb-affbfea65ff1.root'
p666
aS'/pnfs/uboone/data/uboone/larlite_reco2d/prod_v08_00_00_01/data_extbnb_reco1_mcc9/extbnb_C2/00/00/74/70/larlite_reco2d_dda8b75e-cc4d-421c-b3eb-0fc85a52932e.root'
p667
aS'/pnfs/uboone/data/uboone/larlite_reco2d/prod_v08_00_00_01/data_extbnb_reco1_mcc9/extbnb_C2/00/00/74/20/larlite_reco2d_7a60f1b3-cf5c-48bf-8423-9efcf9262526.root'
p668
aS'/pnfs/uboone/data/uboone/larlite_reco2d/prod_v08_00_00_01/data_extbnb_reco1_mcc9/extbnb_C2/00/00/74/66/larlite_reco2d_f768df93-6d10-4d77-8d64-55defa30b2a1.root'
p669
aS'/pnfs/uboone/data/uboone/larlite_reco2d/prod_v08_00_00_01/data_extbnb_reco1_mcc9/extbnb_C2/00/00/74/00/larlite_reco2d_5e5ae76c-08f8-4741-9678-52344b191699.root'
p670
aS'/pnfs/uboone/data/uboone/larlite_reco2d/prod_v08_00_00_01/data_extbnb_reco1_mcc9/extbnb_C2/00/00/74/66/larlite_reco2d_2173abd9-57f1-46dc-9019-1a40f1abf67f.root'
p671
aS'/pnfs/uboone/data/uboone/larlite_reco2d/prod_v08_00_00_01/data_extbnb_reco1_mcc9/extbnb_C2/00/00/74/73/larlite_reco2d_c2891558-526a-4d66-8379-21c15f5553b0.root'
p672
aS'/pnfs/uboone/data/uboone/larlite_reco2d/prod_v08_00_00_01/data_extbnb_reco1_mcc9/extbnb_C2/00/00/74/66/larlite_reco2d_82f9bafd-81d2-4603-9a77-b7a3d173688a.root'
p673
aS'/pnfs/uboone/data/uboone/larlite_reco2d/prod_v08_00_00_01/data_extbnb_reco1_mcc9/extbnb_C2/00/00/73/93/larlite_reco2d_7d57ae0e-01a8-47e4-bcab-c6790106427d.root'
p674
aS'/pnfs/uboone/data/uboone/larlite_reco2d/prod_v08_00_00_01/data_extbnb_reco1_mcc9/extbnb_C2/00/00/73/93/larlite_reco2d_dcee971c-9ac1-4af6-9ec1-48305b6f6f58.root'
p675
aS'/pnfs/uboone/data/uboone/larlite_reco2d/prod_v08_00_00_01/data_extbnb_reco1_mcc9/extbnb_C2/00/00/74/61/larlite_reco2d_3b050824-4488-4bd1-8321-c96bdf0ae921.root'
p676
aS'/pnfs/uboone/data/uboone/larlite_reco2d/prod_v08_00_00_01/data_extbnb_reco1_mcc9/extbnb_C2/00/00/74/66/larlite_reco2d_8f9760bb-b93f-4545-8784-9da459470a7d.root'
p677
aS'/pnfs/uboone/data/uboone/larlite_reco2d/prod_v08_00_00_01/data_extbnb_reco1_mcc9/extbnb_C2/00/00/74/66/larlite_reco2d_6637639d-c438-4531-bdf9-d4e1847aa242.root'
p678
aS'/pnfs/uboone/data/uboone/larlite_reco2d/prod_v08_00_00_01/data_extbnb_reco1_mcc9/extbnb_C2/00/00/73/91/larlite_reco2d_ef2039e3-979b-45e3-93c9-18c5b08623c4.root'
p679
aS'/pnfs/uboone/data/uboone/larlite_reco2d/prod_v08_00_00_01/data_extbnb_reco1_mcc9/extbnb_C2/00/00/73/93/larlite_reco2d_a5a586c4-9d33-4cf0-9a27-7fa47181f7b4.root'
p680
aS'/pnfs/uboone/data/uboone/larlite_reco2d/prod_v08_00_00_01/data_extbnb_reco1_mcc9/extbnb_C2/00/00/74/66/larlite_reco2d_1dc405cf-05cd-4b19-a4f1-4868a29558e3.root'
p681
aS'/pnfs/uboone/data/uboone/larlite_reco2d/prod_v08_00_00_01/data_extbnb_reco1_mcc9/extbnb_C2/00/00/74/73/larlite_reco2d_91805422-0f53-4470-91ef-7370a63c6bf0.root'
p682
aS'/pnfs/uboone/data/uboone/larlite_reco2d/prod_v08_00_00_01/data_extbnb_reco1_mcc9/extbnb_C2/00/00/74/61/larlite_reco2d_ca8ecad9-5f36-417a-82f9-e36572847f20.root'
p683
aS'/pnfs/uboone/data/uboone/larlite_reco2d/prod_v08_00_00_01/data_extbnb_reco1_mcc9/extbnb_C2/00/00/74/61/larlite_reco2d_a2a2431e-e4e3-4027-8fa6-d6409d0bb3fb.root'
p684
aS'/pnfs/uboone/data/uboone/larlite_reco2d/prod_v08_00_00_01/data_extbnb_reco1_mcc9/extbnb_C2/00/00/74/66/larlite_reco2d_94955350-3935-4263-bb32-0f79c849cab1.root'
p685
aS'/pnfs/uboone/data/uboone/larlite_reco2d/prod_v08_00_00_01/data_extbnb_reco1_mcc9/extbnb_C2/00/00/74/73/larlite_reco2d_af2b534e-1f85-45e6-b98b-e63a10ab1978.root'
p686
aS'/pnfs/uboone/data/uboone/larlite_reco2d/prod_v08_00_00_01/data_extbnb_reco1_mcc9/extbnb_C2/00/00/74/57/larlite_reco2d_f0186a2d-f7ea-4c4b-a133-68a4770c809a.root'
p687
aS'/pnfs/uboone/data/uboone/larlite_reco2d/prod_v08_00_00_01/data_extbnb_reco1_mcc9/extbnb_C2/00/00/74/66/larlite_reco2d_751a16b6-65be-4a54-9fdc-c0c6e8cfe394.root'
p688
aS'/pnfs/uboone/data/uboone/larlite_reco2d/prod_v08_00_00_01/data_extbnb_reco1_mcc9/extbnb_C2/00/00/74/66/larlite_reco2d_d0c70b67-61e5-49de-977a-9adc6ad43784.root'
p689
aS'/pnfs/uboone/data/uboone/larlite_reco2d/prod_v08_00_00_01/data_extbnb_reco1_mcc9/extbnb_C2/00/00/74/62/larlite_reco2d_700202b0-51de-4168-b387-48e4625080c8.root'
p690
aS'/pnfs/uboone/data/uboone/larlite_reco2d/prod_v08_00_00_01/data_extbnb_reco1_mcc9/extbnb_C2/00/00/74/61/larlite_reco2d_58c0f197-5fcd-40fc-b443-9150102b875b.root'
p691
aS'/pnfs/uboone/data/uboone/larlite_reco2d/prod_v08_00_00_01/data_extbnb_reco1_mcc9/extbnb_C2/00/00/73/92/larlite_reco2d_46740fec-01c7-4492-9740-298d83e956de.root'
p692
aS'/pnfs/uboone/data/uboone/larlite_reco2d/prod_v08_00_00_01/data_extbnb_reco1_mcc9/extbnb_C2/00/00/74/65/larlite_reco2d_6bf99bf9-d3b8-47b2-974f-754d54a528f2.root'
p693
aS'/pnfs/uboone/data/uboone/larlite_reco2d/prod_v08_00_00_01/data_extbnb_reco1_mcc9/extbnb_C2/00/00/74/73/larlite_reco2d_3a9beb4a-bf0b-40c8-9797-1d13129a6d98.root'
p694
aS'/pnfs/uboone/data/uboone/larlite_reco2d/prod_v08_00_00_01/data_extbnb_reco1_mcc9/extbnb_C2/00/00/74/61/larlite_reco2d_1f113423-a069-43f6-b90a-d34c2e8b76a0.root'
p695
aS'/pnfs/uboone/data/uboone/larlite_reco2d/prod_v08_00_00_01/data_extbnb_reco1_mcc9/extbnb_C2/00/00/74/03/larlite_reco2d_010826e5-2215-4a9f-8d4f-9e82edcfdc95.root'
p696
aS'/pnfs/uboone/data/uboone/larlite_reco2d/prod_v08_00_00_01/data_extbnb_reco1_mcc9/extbnb_C2/00/00/74/73/larlite_reco2d_699455fe-5fd4-47a6-a4e2-ae94743ff06f.root'
p697
aS'/pnfs/uboone/data/uboone/larlite_reco2d/prod_v08_00_00_01/data_extbnb_reco1_mcc9/extbnb_C2/00/00/74/66/larlite_reco2d_649b9468-24d7-4f61-8046-ce76e7558fba.root'
p698
aS'/pnfs/uboone/data/uboone/larlite_reco2d/prod_v08_00_00_01/data_extbnb_reco1_mcc9/extbnb_C2/00/00/73/93/larlite_reco2d_4ab2456b-63b5-484b-a1b7-82f7d4be5334.root'
p699
aS'/pnfs/uboone/data/uboone/larlite_reco2d/prod_v08_00_00_01/data_extbnb_reco1_mcc9/extbnb_C2/00/00/74/62/larlite_reco2d_f2dc7022-6ef6-4d26-bd26-acb3f140b69f.root'
p700
aS'/pnfs/uboone/data/uboone/larlite_reco2d/prod_v08_00_00_01/data_extbnb_reco1_mcc9/extbnb_C2/00/00/74/73/larlite_reco2d_4395cc40-b126-45ff-abbf-b2d995a8a19d.root'
p701
aS'/pnfs/uboone/data/uboone/larlite_reco2d/prod_v08_00_00_01/data_extbnb_reco1_mcc9/extbnb_C2/00/00/74/61/larlite_reco2d_020fc19d-dd7e-4dda-b346-a475e3634011.root'
p702
aS'/pnfs/uboone/data/uboone/larlite_reco2d/prod_v08_00_00_01/data_extbnb_reco1_mcc9/extbnb_C2/00/00/74/73/larlite_reco2d_fd5f64c7-651b-4bee-a6c8-216267fd6187.root'
p703
aS'/pnfs/uboone/data/uboone/larlite_reco2d/prod_v08_00_00_01/data_extbnb_reco1_mcc9/extbnb_C2/00/00/74/21/larlite_reco2d_f15bee03-e2f9-4512-a308-da24d9f5d5ce.root'
p704
aS'/pnfs/uboone/data/uboone/larlite_reco2d/prod_v08_00_00_01/data_extbnb_reco1_mcc9/extbnb_C2/00/00/74/66/larlite_reco2d_5eebca26-d4b0-4dcb-a85a-73dea5a7f37d.root'
p705
aS'/pnfs/uboone/data/uboone/larlite_reco2d/prod_v08_00_00_01/data_extbnb_reco1_mcc9/extbnb_C2/00/00/74/61/larlite_reco2d_f0c93701-e0ea-4c5f-857b-9f3ff78ea7a8.root'
p706
aS'/pnfs/uboone/data/uboone/larlite_reco2d/prod_v08_00_00_01/data_extbnb_reco1_mcc9/extbnb_C2/00/00/73/91/larlite_reco2d_01cc08b5-2e1f-4256-8e97-954fd93a0db0.root'
p707
aS'/pnfs/uboone/data/uboone/larlite_reco2d/prod_v08_00_00_01/data_extbnb_reco1_mcc9/extbnb_C2/00/00/74/66/larlite_reco2d_fa6974d5-f3e5-4b42-a354-c89a2873d308.root'
p708
aS'/pnfs/uboone/data/uboone/larlite_reco2d/prod_v08_00_00_01/data_extbnb_reco1_mcc9/extbnb_C2/00/00/73/93/larlite_reco2d_9473d5de-12d3-4993-8fd7-f4012ec51ebd.root'
p709
aS'/pnfs/uboone/data/uboone/larlite_reco2d/prod_v08_00_00_01/data_extbnb_reco1_mcc9/extbnb_C2/00/00/73/93/larlite_reco2d_0b8f9841-8c5a-4285-a42c-01081c77c7a4.root'
p710
aS'/pnfs/uboone/data/uboone/larlite_reco2d/prod_v08_00_00_01/data_extbnb_reco1_mcc9/extbnb_C2/00/00/73/91/larlite_reco2d_e794d096-91f8-45a5-bc89-06929eab68e7.root'
p711
aS'/pnfs/uboone/data/uboone/larlite_reco2d/prod_v08_00_00_01/data_extbnb_reco1_mcc9/extbnb_C2/00/00/73/97/larlite_reco2d_ccd4c0fc-d18f-4a55-8d41-d0092721e117.root'
p712
aS'/pnfs/uboone/data/uboone/larlite_reco2d/prod_v08_00_00_01/data_extbnb_reco1_mcc9/extbnb_C2/00/00/74/00/larlite_reco2d_fd98d5ee-6274-44d4-841a-e179377bb549.root'
p713
aS'/pnfs/uboone/data/uboone/larlite_reco2d/prod_v08_00_00_01/data_extbnb_reco1_mcc9/extbnb_C2/00/00/74/57/larlite_reco2d_b28af9e0-ebe4-4175-9df0-934a52ccb776.root'
p714
aS'/pnfs/uboone/data/uboone/larlite_reco2d/prod_v08_00_00_01/data_extbnb_reco1_mcc9/extbnb_C2/00/00/74/69/larlite_reco2d_2ab59670-493b-44af-bcb6-d4698efa36c1.root'
p715
aS'/pnfs/uboone/data/uboone/larlite_reco2d/prod_v08_00_00_01/data_extbnb_reco1_mcc9/extbnb_C2/00/00/74/66/larlite_reco2d_1351a0cb-31b6-497e-b951-ae4168057160.root'
p716
aS'/pnfs/uboone/data/uboone/larlite_reco2d/prod_v08_00_00_01/data_extbnb_reco1_mcc9/extbnb_C2/00/00/74/20/larlite_reco2d_3e9344a6-f69e-48f3-8681-8afae984d637.root'
p717
aS'/pnfs/uboone/data/uboone/larlite_reco2d/prod_v08_00_00_01/data_extbnb_reco1_mcc9/extbnb_C2/00/00/73/93/larlite_reco2d_91cddb2c-8204-4d8c-bdc6-0e3ddb400d89.root'
p718
aS'/pnfs/uboone/data/uboone/larlite_reco2d/prod_v08_00_00_01/data_extbnb_reco1_mcc9/extbnb_C2/00/00/74/66/larlite_reco2d_df03ac71-7187-43df-ade5-07488ff81796.root'
p719
aS'/pnfs/uboone/data/uboone/larlite_reco2d/prod_v08_00_00_01/data_extbnb_reco1_mcc9/extbnb_C2/00/00/74/57/larlite_reco2d_5e3dbc4e-e077-4487-834e-d3b383e5bbc7.root'
p720
aS'/pnfs/uboone/data/uboone/larlite_reco2d/prod_v08_00_00_01/data_extbnb_reco1_mcc9/extbnb_C2/00/00/74/61/larlite_reco2d_46bc485c-5859-40f2-9369-460dddc051b4.root'
p721
aS'/pnfs/uboone/data/uboone/larlite_reco2d/prod_v08_00_00_01/data_extbnb_reco1_mcc9/extbnb_C2/00/00/74/73/larlite_reco2d_270328ba-d65c-4825-8361-f9178a7afe5b.root'
p722
aS'/pnfs/uboone/data/uboone/larlite_reco2d/prod_v08_00_00_01/data_extbnb_reco1_mcc9/extbnb_C2/00/00/74/66/larlite_reco2d_27c53e28-2d4d-499f-820f-c14e1dcdff0a.root'
p723
aS'/pnfs/uboone/data/uboone/larlite_reco2d/prod_v08_00_00_01/data_extbnb_reco1_mcc9/extbnb_C2/00/00/74/69/larlite_reco2d_91713f64-3898-4899-bb0b-6efe2728054c.root'
p724
aS'/pnfs/uboone/data/uboone/larlite_reco2d/prod_v08_00_00_01/data_extbnb_reco1_mcc9/extbnb_C2/00/00/74/66/larlite_reco2d_bf45a7bc-3149-4b01-834f-fa26adbe3998.root'
p725
aS'/pnfs/uboone/data/uboone/larlite_reco2d/prod_v08_00_00_01/data_extbnb_reco1_mcc9/extbnb_C2/00/00/74/66/larlite_reco2d_11059d10-a52b-40c0-a851-a2581253fb6b.root'
p726
aS'/pnfs/uboone/data/uboone/larlite_reco2d/prod_v08_00_00_01/data_extbnb_reco1_mcc9/extbnb_C2/00/00/74/00/larlite_reco2d_3c352f84-dced-4eb5-af7c-1fc1ebd4b765.root'
p727
aS'/pnfs/uboone/data/uboone/larlite_reco2d/prod_v08_00_00_01/data_extbnb_reco1_mcc9/extbnb_C2/00/00/74/20/larlite_reco2d_c08da4a4-7f40-4671-8ba4-47c6ec298dc9.root'
p728
aS'/pnfs/uboone/data/uboone/larlite_reco2d/prod_v08_00_00_01/data_extbnb_reco1_mcc9/extbnb_C2/00/00/74/66/larlite_reco2d_0ffb9230-0999-426e-92e6-95013fd6cc57.root'
p729
aS'/pnfs/uboone/data/uboone/larlite_reco2d/prod_v08_00_00_01/data_extbnb_reco1_mcc9/extbnb_C2/00/00/74/68/larlite_reco2d_f5c6fc96-a59e-47ec-9947-0c71d3af2179.root'
p730
aS'/pnfs/uboone/data/uboone/larlite_reco2d/prod_v08_00_00_01/data_extbnb_reco1_mcc9/extbnb_C2/00/00/74/20/larlite_reco2d_f5ec8af7-1dad-4f62-b4d7-c8fcdcb70557.root'
p731
aS'/pnfs/uboone/data/uboone/larlite_reco2d/prod_v08_00_00_01/data_extbnb_reco1_mcc9/extbnb_C2/00/00/74/57/larlite_reco2d_98a96cca-6575-4126-bb69-eaf334aa02ba.root'
p732
aS'/pnfs/uboone/data/uboone/larlite_reco2d/prod_v08_00_00_01/data_extbnb_reco1_mcc9/extbnb_C2/00/00/74/00/larlite_reco2d_9d6d74bd-096e-4934-96e9-7960bac6568a.root'
p733
aS'/pnfs/uboone/data/uboone/larlite_reco2d/prod_v08_00_00_01/data_extbnb_reco1_mcc9/extbnb_C2/00/00/74/71/larlite_reco2d_f6fc69cf-e72d-40b2-b998-ce148590de2a.root'
p734
aS'/pnfs/uboone/data/uboone/larlite_reco2d/prod_v08_00_00_01/data_extbnb_reco1_mcc9/extbnb_C2/00/00/73/91/larlite_reco2d_7c67b55d-191c-479e-85d9-240c8e3248ce.root'
p735
aS'/pnfs/uboone/data/uboone/larlite_reco2d/prod_v08_00_00_01/data_extbnb_reco1_mcc9/extbnb_C2/00/00/74/58/larlite_reco2d_adb3d357-784b-438b-89b5-20d814b2b43d.root'
p736
aS'/pnfs/uboone/data/uboone/larlite_reco2d/prod_v08_00_00_01/data_extbnb_reco1_mcc9/extbnb_C2/00/00/74/00/larlite_reco2d_636ac4e4-9e32-4df7-9d8c-eadfb393d535.root'
p737
aS'/pnfs/uboone/data/uboone/larlite_reco2d/prod_v08_00_00_01/data_extbnb_reco1_mcc9/extbnb_C2/00/00/73/91/larlite_reco2d_6821f8f1-1ac3-4eeb-a4d8-322292479d06.root'
p738
aS'/pnfs/uboone/data/uboone/larlite_reco2d/prod_v08_00_00_01/data_extbnb_reco1_mcc9/extbnb_C2/00/00/74/61/larlite_reco2d_b1be49d3-36cf-476d-92d2-fb8d8354e7c7.root'
p739
aS'/pnfs/uboone/data/uboone/larlite_reco2d/prod_v08_00_00_01/data_extbnb_reco1_mcc9/extbnb_C2/00/00/74/66/larlite_reco2d_c75e615a-ed02-484e-9aa1-f38e073501dd.root'
p740
aS'/pnfs/uboone/data/uboone/larlite_reco2d/prod_v08_00_00_01/data_extbnb_reco1_mcc9/extbnb_C2/00/00/74/61/larlite_reco2d_1f48b3f3-157a-4282-bcee-f268311bd8d7.root'
p741
aS'/pnfs/uboone/data/uboone/larlite_reco2d/prod_v08_00_00_01/data_extbnb_reco1_mcc9/extbnb_C2/00/00/74/71/larlite_reco2d_f8272592-eafe-4224-bc80-993853883ecd.root'
p742
aS'/pnfs/uboone/data/uboone/larlite_reco2d/prod_v08_00_00_01/data_extbnb_reco1_mcc9/extbnb_C2/00/00/74/66/larlite_reco2d_e5a00cb8-b7a5-4247-8d96-a08f585e9837.root'
p743
aS'/pnfs/uboone/data/uboone/larlite_reco2d/prod_v08_00_00_01/data_extbnb_reco1_mcc9/extbnb_C2/00/00/74/66/larlite_reco2d_363034e1-9a7a-4553-b31e-022f3bcf549f.root'
p744
aS'/pnfs/uboone/data/uboone/larlite_reco2d/prod_v08_00_00_01/data_extbnb_reco1_mcc9/extbnb_C2/00/00/73/92/larlite_reco2d_230c76f2-014e-4e3b-bf89-c5190744b4c6.root'
p745
aS'/pnfs/uboone/data/uboone/larlite_reco2d/prod_v08_00_00_01/data_extbnb_reco1_mcc9/extbnb_C2/00/00/74/73/larlite_reco2d_a85102bb-1790-4ef8-8a37-740c52cf4db2.root'
p746
aS'/pnfs/uboone/data/uboone/larlite_reco2d/prod_v08_00_00_01/data_extbnb_reco1_mcc9/extbnb_C2/00/00/73/93/larlite_reco2d_dea522a3-ad3f-45b3-9b42-125d1a24c0f0.root'
p747
aS'/pnfs/uboone/data/uboone/larlite_reco2d/prod_v08_00_00_01/data_extbnb_reco1_mcc9/extbnb_C2/00/00/74/61/larlite_reco2d_2aaea682-bd09-4aa3-997e-c37dea60fe9b.root'
p748
aS'/pnfs/uboone/data/uboone/larlite_reco2d/prod_v08_00_00_01/data_extbnb_reco1_mcc9/extbnb_C2/00/00/74/64/larlite_reco2d_57928a87-f8e5-40fd-bc56-e6b6cbd2e3ef.root'
p749
aS'/pnfs/uboone/data/uboone/larlite_reco2d/prod_v08_00_00_01/data_extbnb_reco1_mcc9/extbnb_C2/00/00/74/65/larlite_reco2d_cf4c2a72-1331-4db1-9284-be0e1c87d98e.root'
p750
aS'/pnfs/uboone/data/uboone/larlite_reco2d/prod_v08_00_00_01/data_extbnb_reco1_mcc9/extbnb_C2/00/00/74/71/larlite_reco2d_90cf6c52-81e2-4fdf-abf0-a628a383ac5e.root'
p751
aS'/pnfs/uboone/data/uboone/larlite_reco2d/prod_v08_00_00_01/data_extbnb_reco1_mcc9/extbnb_C2/00/00/74/26/larlite_reco2d_e9c5dedb-64d7-4632-af18-4debe5b3e3b9.root'
p752
aS'/pnfs/uboone/data/uboone/larlite_reco2d/prod_v08_00_00_01/data_extbnb_reco1_mcc9/extbnb_C2/00/00/74/61/larlite_reco2d_389076a7-17d1-414e-834a-12240c3aaeae.root'
p753
aS'/pnfs/uboone/data/uboone/larlite_reco2d/prod_v08_00_00_01/data_extbnb_reco1_mcc9/extbnb_C2/00/00/74/61/larlite_reco2d_e4769f92-f9a0-4333-9bbf-8a0084bca92c.root'
p754
aS'/pnfs/uboone/data/uboone/larlite_reco2d/prod_v08_00_00_01/data_extbnb_reco1_mcc9/extbnb_C2/00/00/74/73/larlite_reco2d_ad300365-2ae7-4c63-b671-13cbe2a88be2.root'
p755
aS'/pnfs/uboone/data/uboone/larlite_reco2d/prod_v08_00_00_01/data_extbnb_reco1_mcc9/extbnb_C2/00/00/74/58/larlite_reco2d_d94fb877-e21c-4780-96b2-1ea9b2bbce80.root'
p756
aS'/pnfs/uboone/data/uboone/larlite_reco2d/prod_v08_00_00_01/data_extbnb_reco1_mcc9/extbnb_C2/00/00/74/71/larlite_reco2d_3f368baa-8af6-4020-93eb-4eee15b6c3de.root'
p757
aS'/pnfs/uboone/data/uboone/larlite_reco2d/prod_v08_00_00_01/data_extbnb_reco1_mcc9/extbnb_C2/00/00/73/92/larlite_reco2d_b7935f72-a6e5-4bd6-bcd7-c2f0ec9e5533.root'
p758
aS'/pnfs/uboone/data/uboone/larlite_reco2d/prod_v08_00_00_01/data_extbnb_reco1_mcc9/extbnb_C2/00/00/74/66/larlite_reco2d_cdbecd23-c60d-4999-be8c-ba35eb090df0.root'
p759
aS'/pnfs/uboone/data/uboone/larlite_reco2d/prod_v08_00_00_01/data_extbnb_reco1_mcc9/extbnb_C2/00/00/74/66/larlite_reco2d_bc1172ba-d1ba-45d6-891c-e52bb8a86d3c.root'
p760
aS'/pnfs/uboone/data/uboone/larlite_reco2d/prod_v08_00_00_01/data_extbnb_reco1_mcc9/extbnb_C2/00/00/74/73/larlite_reco2d_d8c27995-9f68-4aa5-adbf-b1dfb9eac057.root'
p761
aS'/pnfs/uboone/data/uboone/larlite_reco2d/prod_v08_00_00_01/data_extbnb_reco1_mcc9/extbnb_C2/00/00/74/69/larlite_reco2d_0da6c90a-fe46-4544-bedf-70ee49fcc887.root'
p762
aS'/pnfs/uboone/data/uboone/larlite_reco2d/prod_v08_00_00_01/data_extbnb_reco1_mcc9/extbnb_C2/00/00/74/71/larlite_reco2d_599e6bd0-3e94-492d-ab78-5cc414dc7a17.root'
p763
aS'/pnfs/uboone/data/uboone/larlite_reco2d/prod_v08_00_00_01/data_extbnb_reco1_mcc9/extbnb_C2/00/00/74/00/larlite_reco2d_9240c39a-65f9-4b08-adfd-1da8157ac12f.root'
p764
aS'/pnfs/uboone/data/uboone/larlite_reco2d/prod_v08_00_00_01/data_extbnb_reco1_mcc9/extbnb_C2/00/00/74/66/larlite_reco2d_32380bac-69b8-4823-9b59-cd1538fdd162.root'
p765
aS'/pnfs/uboone/data/uboone/larlite_reco2d/prod_v08_00_00_01/data_extbnb_reco1_mcc9/extbnb_C2/00/00/74/58/larlite_reco2d_49791756-a4c4-434d-8f26-098ceb303b84.root'
p766
aS'/pnfs/uboone/data/uboone/larlite_reco2d/prod_v08_00_00_01/data_extbnb_reco1_mcc9/extbnb_C2/00/00/74/69/larlite_reco2d_07ac8e72-2266-4a55-a31a-513326bfe3b0.root'
p767
aS'/pnfs/uboone/data/uboone/larlite_reco2d/prod_v08_00_00_01/data_extbnb_reco1_mcc9/extbnb_C2/00/00/74/66/larlite_reco2d_197915cb-a152-457c-b678-fa31af210dd9.root'
p768
aS'/pnfs/uboone/data/uboone/larlite_reco2d/prod_v08_00_00_01/data_extbnb_reco1_mcc9/extbnb_C2/00/00/74/66/larlite_reco2d_1b5be64b-553e-49d2-9643-0220d09592a5.root'
p769
aS'/pnfs/uboone/data/uboone/larlite_reco2d/prod_v08_00_00_01/data_extbnb_reco1_mcc9/extbnb_C2/00/00/73/91/larlite_reco2d_5a6382b1-eb75-402b-ace8-3065b2b28a73.root'
p770
aS'/pnfs/uboone/data/uboone/larlite_reco2d/prod_v08_00_00_01/data_extbnb_reco1_mcc9/extbnb_C2/00/00/74/66/larlite_reco2d_e3ca5e23-3bcc-4afb-8e7b-41602c8605d8.root'
p771
aS'/pnfs/uboone/data/uboone/larlite_reco2d/prod_v08_00_00_01/data_extbnb_reco1_mcc9/extbnb_C2/00/00/74/66/larlite_reco2d_a0df64b8-dbb2-4fce-8cf0-b404ddcfbe81.root'
p772
aS'/pnfs/uboone/data/uboone/larlite_reco2d/prod_v08_00_00_01/data_extbnb_reco1_mcc9/extbnb_C2/00/00/74/66/larlite_reco2d_9c83b21c-95c4-4b25-a277-01d5391adb23.root'
p773
aS'/pnfs/uboone/data/uboone/larlite_reco2d/prod_v08_00_00_01/data_extbnb_reco1_mcc9/extbnb_C2/00/00/74/57/larlite_reco2d_b4a6877c-afce-451e-b2a1-76701f492aa9.root'
p774
aS'/pnfs/uboone/data/uboone/larlite_reco2d/prod_v08_00_00_01/data_extbnb_reco1_mcc9/extbnb_C2/00/00/74/00/larlite_reco2d_0fec775c-667e-4b99-b00d-e4d466cdf41e.root'
p775
aS'/pnfs/uboone/data/uboone/larlite_reco2d/prod_v08_00_00_01/data_extbnb_reco1_mcc9/extbnb_C2/00/00/74/61/larlite_reco2d_1b861118-69a7-4498-ab37-59a597ee21d5.root'
p776
aS'/pnfs/uboone/data/uboone/larlite_reco2d/prod_v08_00_00_01/data_extbnb_reco1_mcc9/extbnb_C2/00/00/74/66/larlite_reco2d_d52b32f5-c52c-417c-adda-6a853536101e.root'
p777
aS'/pnfs/uboone/data/uboone/larlite_reco2d/prod_v08_00_00_01/data_extbnb_reco1_mcc9/extbnb_C2/00/00/73/93/larlite_reco2d_9dc53773-4693-45cb-87f0-9f8545d6ed62.root'
p778
aS'/pnfs/uboone/data/uboone/larlite_reco2d/prod_v08_00_00_01/data_extbnb_reco1_mcc9/extbnb_C2/00/00/74/61/larlite_reco2d_7df7c0a1-3986-4709-bb53-a6d8c8ab0fdf.root'
p779
aS'/pnfs/uboone/data/uboone/larlite_reco2d/prod_v08_00_00_01/data_extbnb_reco1_mcc9/extbnb_C2/00/00/74/18/larlite_reco2d_7d446ced-4074-440d-8723-2eaa6637f231.root'
p780
aS'/pnfs/uboone/data/uboone/larlite_reco2d/prod_v08_00_00_01/data_extbnb_reco1_mcc9/extbnb_C2/00/00/74/73/larlite_reco2d_7b8dfe16-e025-41ae-a186-a56c9cb582e7.root'
p781
aS'/pnfs/uboone/data/uboone/larlite_reco2d/prod_v08_00_00_01/data_extbnb_reco1_mcc9/extbnb_C2/00/00/74/66/larlite_reco2d_f072eef9-b6c0-4b27-8d24-03685902e6da.root'
p782
aS'/pnfs/uboone/data/uboone/larlite_reco2d/prod_v08_00_00_01/data_extbnb_reco1_mcc9/extbnb_C2/00/00/73/98/larlite_reco2d_a718205b-cd17-4f90-b551-576e9d6bb03a.root'
p783
aS'/pnfs/uboone/data/uboone/larlite_reco2d/prod_v08_00_00_01/data_extbnb_reco1_mcc9/extbnb_C2/00/00/74/69/larlite_reco2d_09e6824f-077a-4cd1-8427-cd8e49f4f6a3.root'
p784
aS'/pnfs/uboone/data/uboone/larlite_reco2d/prod_v08_00_00_01/data_extbnb_reco1_mcc9/extbnb_C2/00/00/74/59/larlite_reco2d_641336bc-c2d4-4598-bcba-8fdf62f9dff2.root'
p785
aS'/pnfs/uboone/data/uboone/larlite_reco2d/prod_v08_00_00_01/data_extbnb_reco1_mcc9/extbnb_C2/00/00/74/73/larlite_reco2d_2ccc5e78-55c5-4d90-9e63-c9ae730a36ae.root'
p786
aS'/pnfs/uboone/data/uboone/larlite_reco2d/prod_v08_00_00_01/data_extbnb_reco1_mcc9/extbnb_C2/00/00/74/61/larlite_reco2d_12ac2c62-bfdf-40a2-bb1a-e01c3b5c9738.root'
p787
aS'/pnfs/uboone/data/uboone/larlite_reco2d/prod_v08_00_00_01/data_extbnb_reco1_mcc9/extbnb_C2/00/00/73/97/larlite_reco2d_18ecf1ef-f811-413d-960d-00c51d47965d.root'
p788
aS'/pnfs/uboone/data/uboone/larlite_reco2d/prod_v08_00_00_01/data_extbnb_reco1_mcc9/extbnb_C2/00/00/74/71/larlite_reco2d_7967f3bf-2d70-49d3-be76-e90cf00329bc.root'
p789
aS'/pnfs/uboone/data/uboone/larlite_reco2d/prod_v08_00_00_01/data_extbnb_reco1_mcc9/extbnb_C2/00/00/74/66/larlite_reco2d_be729dff-a86c-4634-89df-5d11e4ee60db.root'
p790
aS'/pnfs/uboone/data/uboone/larlite_reco2d/prod_v08_00_00_01/data_extbnb_reco1_mcc9/extbnb_C2/00/00/74/69/larlite_reco2d_aecebf3f-609f-42b5-8661-de85254c7b54.root'
p791
aS'/pnfs/uboone/data/uboone/larlite_reco2d/prod_v08_00_00_01/data_extbnb_reco1_mcc9/extbnb_C2/00/00/74/66/larlite_reco2d_c8dd632d-6df7-4997-9298-9a2fa70ce262.root'
p792
aS'/pnfs/uboone/data/uboone/larlite_reco2d/prod_v08_00_00_01/data_extbnb_reco1_mcc9/extbnb_C2/00/00/73/93/larlite_reco2d_66cfdb5c-e378-460f-831e-9de36500b411.root'
p793
aS'/pnfs/uboone/data/uboone/larlite_reco2d/prod_v08_00_00_01/data_extbnb_reco1_mcc9/extbnb_C2/00/00/74/61/larlite_reco2d_805aca85-3431-44e8-aa69-b9903c6ed663.root'
p794
aS'/pnfs/uboone/data/uboone/larlite_reco2d/prod_v08_00_00_01/data_extbnb_reco1_mcc9/extbnb_C2/00/00/74/61/larlite_reco2d_74d88dad-59de-46a6-b375-c3361d4961cf.root'
p795
aS'/pnfs/uboone/data/uboone/larlite_reco2d/prod_v08_00_00_01/data_extbnb_reco1_mcc9/extbnb_C2/00/00/74/66/larlite_reco2d_737e0941-4404-40d7-814e-6e2b52fae8e2.root'
p796
aS'/pnfs/uboone/data/uboone/larlite_reco2d/prod_v08_00_00_01/data_extbnb_reco1_mcc9/extbnb_C2/00/00/73/93/larlite_reco2d_599cdba4-37db-4c05-aa96-09b84d0b458c.root'
p797
aS'/pnfs/uboone/data/uboone/larlite_reco2d/prod_v08_00_00_01/data_extbnb_reco1_mcc9/extbnb_C2/00/00/74/66/larlite_reco2d_8041d2b4-2602-461c-9133-da6aa25ad4f5.root'
p798
aS'/pnfs/uboone/data/uboone/larlite_reco2d/prod_v08_00_00_01/data_extbnb_reco1_mcc9/extbnb_C2/00/00/74/00/larlite_reco2d_cfe847ce-1215-4ced-ace1-6bb6b2340d61.root'
p799
aS'/pnfs/uboone/data/uboone/larlite_reco2d/prod_v08_00_00_01/data_extbnb_reco1_mcc9/extbnb_C2/00/00/74/66/larlite_reco2d_854ae8d9-638c-4961-860f-80111403d000.root'
p800
aS'/pnfs/uboone/data/uboone/larlite_reco2d/prod_v08_00_00_01/data_extbnb_reco1_mcc9/extbnb_C2/00/00/74/69/larlite_reco2d_f7de7f15-5135-428d-858f-b1cd4267bba8.root'
p801
aS'/pnfs/uboone/data/uboone/larlite_reco2d/prod_v08_00_00_01/data_extbnb_reco1_mcc9/extbnb_C2/00/00/74/73/larlite_reco2d_5c01a1b3-2b51-4f16-96a0-4a31fa19523d.root'
p802
aS'/pnfs/uboone/data/uboone/larlite_reco2d/prod_v08_00_00_01/data_extbnb_reco1_mcc9/extbnb_C2/00/00/74/66/larlite_reco2d_fb4db97a-2a9b-4ea6-904e-389e129cc7e5.root'
p803
aS'/pnfs/uboone/data/uboone/larlite_reco2d/prod_v08_00_00_01/data_extbnb_reco1_mcc9/extbnb_C2/00/00/74/61/larlite_reco2d_3c690291-a745-4ce6-aa97-2dbc31ef7809.root'
p804
aS'/pnfs/uboone/data/uboone/larlite_reco2d/prod_v08_00_00_01/data_extbnb_reco1_mcc9/extbnb_C2/00/00/73/98/larlite_reco2d_ed7c7550-ff55-46de-aea1-31fa24e06fb8.root'
p805
aS'/pnfs/uboone/data/uboone/larlite_reco2d/prod_v08_00_00_01/data_extbnb_reco1_mcc9/extbnb_C2/00/00/74/63/larlite_reco2d_d92155d2-11ab-4338-a8ed-cab8b6e26938.root'
p806
aS'/pnfs/uboone/data/uboone/larlite_reco2d/prod_v08_00_00_01/data_extbnb_reco1_mcc9/extbnb_C2/00/00/73/92/larlite_reco2d_04ecc676-413e-4949-aede-d9be7b398ebf.root'
p807
aS'/pnfs/uboone/data/uboone/larlite_reco2d/prod_v08_00_00_01/data_extbnb_reco1_mcc9/extbnb_C2/00/00/74/71/larlite_reco2d_59be67bf-55ff-4be2-aac5-ad9e331ce5d8.root'
p808
aS'/pnfs/uboone/data/uboone/larlite_reco2d/prod_v08_00_00_01/data_extbnb_reco1_mcc9/extbnb_C2/00/00/73/91/larlite_reco2d_290a1a05-ce46-48bd-bded-9f4ee6b90459.root'
p809
aS'/pnfs/uboone/data/uboone/larlite_reco2d/prod_v08_00_00_01/data_extbnb_reco1_mcc9/extbnb_C2/00/00/74/66/larlite_reco2d_213c3c6e-fc9e-449e-a022-96aba72ab29b.root'
p810
aS'/pnfs/uboone/data/uboone/larlite_reco2d/prod_v08_00_00_01/data_extbnb_reco1_mcc9/extbnb_C2/00/00/74/69/larlite_reco2d_8e136f96-63a7-44a2-8eec-00ba92be2f10.root'
p811
aS'/pnfs/uboone/data/uboone/larlite_reco2d/prod_v08_00_00_01/data_extbnb_reco1_mcc9/extbnb_C2/00/00/74/66/larlite_reco2d_4eb1e113-2f5e-4494-be06-b2c2815e6246.root'
p812
aS'/pnfs/uboone/data/uboone/larlite_reco2d/prod_v08_00_00_01/data_extbnb_reco1_mcc9/extbnb_C2/00/00/74/71/larlite_reco2d_0a5b38e3-169c-44e8-ba3d-36f294a5c659.root'
p813
aS'/pnfs/uboone/data/uboone/larlite_reco2d/prod_v08_00_00_01/data_extbnb_reco1_mcc9/extbnb_C2/00/00/74/62/larlite_reco2d_e823fefd-e214-4e80-a8c1-775c7ba09d25.root'
p814
aS'/pnfs/uboone/data/uboone/larlite_reco2d/prod_v08_00_00_01/data_extbnb_reco1_mcc9/extbnb_C2/00/00/74/61/larlite_reco2d_dc220443-ae4b-4469-a85e-18861f4810dc.root'
p815
aS'/pnfs/uboone/data/uboone/larlite_reco2d/prod_v08_00_00_01/data_extbnb_reco1_mcc9/extbnb_C2/00/00/74/66/larlite_reco2d_b31e733d-e805-4497-b865-112d46cf80f1.root'
p816
aS'/pnfs/uboone/data/uboone/larlite_reco2d/prod_v08_00_00_01/data_extbnb_reco1_mcc9/extbnb_C2/00/00/74/66/larlite_reco2d_efe05b30-7eb5-479c-a1c2-5a80a6d1e5ef.root'
p817
aS'/pnfs/uboone/data/uboone/larlite_reco2d/prod_v08_00_00_01/data_extbnb_reco1_mcc9/extbnb_C2/00/00/74/64/larlite_reco2d_86962e6b-b8df-4964-abdc-1db4055aa8eb.root'
p818
aS'/pnfs/uboone/data/uboone/larlite_reco2d/prod_v08_00_00_01/data_extbnb_reco1_mcc9/extbnb_C2/00/00/73/91/larlite_reco2d_e02f08a3-d174-47e2-afa1-91f535718667.root'
p819
aS'/pnfs/uboone/data/uboone/larlite_reco2d/prod_v08_00_00_01/data_extbnb_reco1_mcc9/extbnb_C2/00/00/74/57/larlite_reco2d_b2683b3c-67d0-4b46-aaaf-19ba582281e7.root'
p820
aS'/pnfs/uboone/data/uboone/larlite_reco2d/prod_v08_00_00_01/data_extbnb_reco1_mcc9/extbnb_C2/00/00/74/61/larlite_reco2d_11d6c678-c457-4d96-a82f-1d92d95e3e78.root'
p821
aS'/pnfs/uboone/data/uboone/larlite_reco2d/prod_v08_00_00_01/data_extbnb_reco1_mcc9/extbnb_C2/00/00/74/03/larlite_reco2d_85691b27-cc62-4572-8510-a2973034aa68.root'
p822
aS'/pnfs/uboone/data/uboone/larlite_reco2d/prod_v08_00_00_01/data_extbnb_reco1_mcc9/extbnb_C2/00/00/74/61/larlite_reco2d_3a91fe1e-d021-4ca2-9c13-f7ee9c964dec.root'
p823
aS'/pnfs/uboone/data/uboone/larlite_reco2d/prod_v08_00_00_01/data_extbnb_reco1_mcc9/extbnb_C2/00/00/73/91/larlite_reco2d_12ae6235-d29c-455f-8390-9520bb100ce9.root'
p824
aS'/pnfs/uboone/data/uboone/larlite_reco2d/prod_v08_00_00_01/data_extbnb_reco1_mcc9/extbnb_C2/00/00/73/27/larlite_reco2d_219dbf32-b1e3-4cfb-be81-ca654dbb86af.root'
p825
aS'/pnfs/uboone/data/uboone/larlite_reco2d/prod_v08_00_00_01/data_extbnb_reco1_mcc9/extbnb_C2/00/00/74/73/larlite_reco2d_14cbafc0-3565-4c99-93df-6646e80ecdf0.root'
p826
aS'/pnfs/uboone/data/uboone/larlite_reco2d/prod_v08_00_00_01/data_extbnb_reco1_mcc9/extbnb_C2/00/00/74/42/larlite_reco2d_31f95a91-960c-4731-9ff0-72d9d07fa77e.root'
p827
aS'/pnfs/uboone/data/uboone/larlite_reco2d/prod_v08_00_00_01/data_extbnb_reco1_mcc9/extbnb_C2/00/00/74/66/larlite_reco2d_e99c4c42-d565-4f60-b0df-2d3cf2bc7555.root'
p828
aS'/pnfs/uboone/data/uboone/larlite_reco2d/prod_v08_00_00_01/data_extbnb_reco1_mcc9/extbnb_C2/00/00/74/66/larlite_reco2d_d12f52b5-edc7-447e-9ac2-0cfd1bc4049e.root'
p829
aS'/pnfs/uboone/data/uboone/larlite_reco2d/prod_v08_00_00_01/data_extbnb_reco1_mcc9/extbnb_C2/00/00/74/61/larlite_reco2d_3b2d40eb-94aa-4594-b00c-bf9192951555.root'
p830
aS'/pnfs/uboone/data/uboone/larlite_reco2d/prod_v08_00_00_01/data_extbnb_reco1_mcc9/extbnb_C2/00/00/74/66/larlite_reco2d_b93f8ef4-7048-4fb2-b61c-8b340e86d463.root'
p831
aS'/pnfs/uboone/data/uboone/larlite_reco2d/prod_v08_00_00_01/data_extbnb_reco1_mcc9/extbnb_C2/00/00/73/92/larlite_reco2d_7667378d-a5f6-4234-b5c6-470b052614f3.root'
p832
aS'/pnfs/uboone/data/uboone/larlite_reco2d/prod_v08_00_00_01/data_extbnb_reco1_mcc9/extbnb_C2/00/00/74/66/larlite_reco2d_2231de36-1e90-4f74-ac48-51d9295e2b2e.root'
p833
aS'/pnfs/uboone/data/uboone/larlite_reco2d/prod_v08_00_00_01/data_extbnb_reco1_mcc9/extbnb_C2/00/00/74/73/larlite_reco2d_c52604de-363c-47dc-a588-e71661c49413.root'
p834
aS'/pnfs/uboone/data/uboone/larlite_reco2d/prod_v08_00_00_01/data_extbnb_reco1_mcc9/extbnb_C2/00/00/74/59/larlite_reco2d_ee71037c-fbfe-4e80-a16d-b918c321071f.root'
p835
aS'/pnfs/uboone/data/uboone/larlite_reco2d/prod_v08_00_00_01/data_extbnb_reco1_mcc9/extbnb_C2/00/00/74/36/larlite_reco2d_2dbdc8fc-97c0-4b71-8585-8625322b37a6.root'
p836
aS'/pnfs/uboone/data/uboone/larlite_reco2d/prod_v08_00_00_01/data_extbnb_reco1_mcc9/extbnb_C2/00/00/74/66/larlite_reco2d_cf7dfc60-3cb4-4d75-8e05-812dea3acdb3.root'
p837
aS'/pnfs/uboone/data/uboone/larlite_reco2d/prod_v08_00_00_01/data_extbnb_reco1_mcc9/extbnb_C2/00/00/73/93/larlite_reco2d_7b713064-faad-4b0b-a236-e7598cf7fa74.root'
p838
aS'/pnfs/uboone/data/uboone/larlite_reco2d/prod_v08_00_00_01/data_extbnb_reco1_mcc9/extbnb_C2/00/00/74/62/larlite_reco2d_e4a50062-29c1-42f5-b50f-70b7abb9566f.root'
p839
aS'/pnfs/uboone/data/uboone/larlite_reco2d/prod_v08_00_00_01/data_extbnb_reco1_mcc9/extbnb_C2/00/00/73/91/larlite_reco2d_e096ab02-7f31-4bac-9706-cbea1cbb60e6.root'
p840
aS'/pnfs/uboone/data/uboone/larlite_reco2d/prod_v08_00_00_01/data_extbnb_reco1_mcc9/extbnb_C2/00/00/74/66/larlite_reco2d_3a3051e2-daeb-4f50-9cdf-407b5dba6237.root'
p841
aS'/pnfs/uboone/data/uboone/larlite_reco2d/prod_v08_00_00_01/data_extbnb_reco1_mcc9/extbnb_C2/00/00/74/64/larlite_reco2d_9bbd4df2-e65a-4d0e-89da-dae7cb5fd68e.root'
p842
aS'/pnfs/uboone/data/uboone/larlite_reco2d/prod_v08_00_00_01/data_extbnb_reco1_mcc9/extbnb_C2/00/00/74/66/larlite_reco2d_6b35b3d1-34c0-45ca-8dba-6b41ca84328a.root'
p843
aS'/pnfs/uboone/data/uboone/larlite_reco2d/prod_v08_00_00_01/data_extbnb_reco1_mcc9/extbnb_C2/00/00/74/65/larlite_reco2d_ca80b984-3a23-4d84-a693-601e621e2696.root'
p844
aS'/pnfs/uboone/data/uboone/larlite_reco2d/prod_v08_00_00_01/data_extbnb_reco1_mcc9/extbnb_C2/00/00/74/00/larlite_reco2d_dc2a6f07-c1b1-4bd6-b749-61576cc1e3fc.root'
p845
aS'/pnfs/uboone/data/uboone/larlite_reco2d/prod_v08_00_00_01/data_extbnb_reco1_mcc9/extbnb_C2/00/00/73/91/larlite_reco2d_b14c7254-88c3-4b05-aabc-15f2f9ae4181.root'
p846
aS'/pnfs/uboone/data/uboone/larlite_reco2d/prod_v08_00_00_01/data_extbnb_reco1_mcc9/extbnb_C2/00/00/73/91/larlite_reco2d_a1ddcab9-e327-4a80-8017-f13ed3ffe008.root'
p847
aS'/pnfs/uboone/data/uboone/larlite_reco2d/prod_v08_00_00_01/data_extbnb_reco1_mcc9/extbnb_C2/00/00/73/91/larlite_reco2d_1c1be18e-8c09-493f-b9be-464107046d83.root'
p848
aS'/pnfs/uboone/data/uboone/larlite_reco2d/prod_v08_00_00_01/data_extbnb_reco1_mcc9/extbnb_C2/00/00/74/66/larlite_reco2d_e0709c4d-e7cb-4978-bd40-312b5ecadcca.root'
p849
aS'/pnfs/uboone/data/uboone/larlite_reco2d/prod_v08_00_00_01/data_extbnb_reco1_mcc9/extbnb_C2/00/00/73/97/larlite_reco2d_844ad4f4-4ce4-4f0d-90b8-d47dee94b715.root'
p850
aS'/pnfs/uboone/data/uboone/larlite_reco2d/prod_v08_00_00_01/data_extbnb_reco1_mcc9/extbnb_C2/00/00/74/66/larlite_reco2d_5b76c0d1-1603-421e-a01e-a29fadaaff03.root'
p851
aS'/pnfs/uboone/data/uboone/larlite_reco2d/prod_v08_00_00_01/data_extbnb_reco1_mcc9/extbnb_C2/00/00/73/92/larlite_reco2d_c0afd514-4ed9-4529-b8a6-1196b3e8d378.root'
p852
aS'/pnfs/uboone/data/uboone/larlite_reco2d/prod_v08_00_00_01/data_extbnb_reco1_mcc9/extbnb_C2/00/00/74/57/larlite_reco2d_2718e1bb-e2f6-416f-b3bd-82ca2acbfc3e.root'
p853
aS'/pnfs/uboone/data/uboone/larlite_reco2d/prod_v08_00_00_01/data_extbnb_reco1_mcc9/extbnb_C2/00/00/74/61/larlite_reco2d_7ddac63d-0d28-42e0-acc1-503efc7f20de.root'
p854
aS'/pnfs/uboone/data/uboone/larlite_reco2d/prod_v08_00_00_01/data_extbnb_reco1_mcc9/extbnb_C2/00/00/74/00/larlite_reco2d_e5a0ff62-c32f-4522-8987-6bfbf2819ac0.root'
p855
aS'/pnfs/uboone/data/uboone/larlite_reco2d/prod_v08_00_00_01/data_extbnb_reco1_mcc9/extbnb_C2/00/00/74/61/larlite_reco2d_3a9b161d-bc6b-4b18-8a5e-68c3c9c8bf39.root'
p856
aS'/pnfs/uboone/data/uboone/larlite_reco2d/prod_v08_00_00_01/data_extbnb_reco1_mcc9/extbnb_C2/00/00/74/66/larlite_reco2d_e6c4302b-3bad-4a2f-ba9b-492d84f4d983.root'
p857
aS'/pnfs/uboone/data/uboone/larlite_reco2d/prod_v08_00_00_01/data_extbnb_reco1_mcc9/extbnb_C2/00/00/73/91/larlite_reco2d_c1253a2b-5db1-4bae-bf5b-62d3bea9554d.root'
p858
aS'/pnfs/uboone/data/uboone/larlite_reco2d/prod_v08_00_00_01/data_extbnb_reco1_mcc9/extbnb_C2/00/00/74/66/larlite_reco2d_45691f04-a11d-44f4-b39f-726fde41254a.root'
p859
aS'/pnfs/uboone/data/uboone/larlite_reco2d/prod_v08_00_00_01/data_extbnb_reco1_mcc9/extbnb_C2/00/00/74/66/larlite_reco2d_576c3a5b-491e-4c75-a31b-9e214010e463.root'
p860
aS'/pnfs/uboone/data/uboone/larlite_reco2d/prod_v08_00_00_01/data_extbnb_reco1_mcc9/extbnb_C2/00/00/74/03/larlite_reco2d_24e8b3ba-ea96-4615-89f6-d3e649541d10.root'
p861
aS'/pnfs/uboone/data/uboone/larlite_reco2d/prod_v08_00_00_01/data_extbnb_reco1_mcc9/extbnb_C2/00/00/73/91/larlite_reco2d_d84919b2-3185-4313-bba7-eb6b3a4a00c3.root'
p862
aS'/pnfs/uboone/data/uboone/larlite_reco2d/prod_v08_00_00_01/data_extbnb_reco1_mcc9/extbnb_C2/00/00/74/00/larlite_reco2d_9968568f-ea1f-4a3f-be1d-a4ca891296bc.root'
p863
aS'/pnfs/uboone/data/uboone/larlite_reco2d/prod_v08_00_00_01/data_extbnb_reco1_mcc9/extbnb_C2/00/00/73/98/larlite_reco2d_c101960a-081b-46df-8190-cc2f8749e6b0.root'
p864
aS'/pnfs/uboone/data/uboone/larlite_reco2d/prod_v08_00_00_01/data_extbnb_reco1_mcc9/extbnb_C2/00/00/74/18/larlite_reco2d_77193a33-f66f-49e3-9bb1-08fd1f14135b.root'
p865
aS'/pnfs/uboone/data/uboone/larlite_reco2d/prod_v08_00_00_01/data_extbnb_reco1_mcc9/extbnb_C2/00/00/74/03/larlite_reco2d_f38eaf81-f4a8-4c8b-88d7-480cc5aee20a.root'
p866
aS'/pnfs/uboone/data/uboone/larlite_reco2d/prod_v08_00_00_01/data_extbnb_reco1_mcc9/extbnb_C2/00/00/74/66/larlite_reco2d_15eabb32-13be-459d-978d-1492e1799d81.root'
p867
aS'/pnfs/uboone/data/uboone/larlite_reco2d/prod_v08_00_00_01/data_extbnb_reco1_mcc9/extbnb_C2/00/00/74/61/larlite_reco2d_3ba1f091-ec0b-49f1-a933-c0b6e55e8135.root'
p868
aS'/pnfs/uboone/data/uboone/larlite_reco2d/prod_v08_00_00_01/data_extbnb_reco1_mcc9/extbnb_C2/00/00/73/45/larlite_reco2d_f6a276b6-62d3-4e33-82f4-43d59213883d.root'
p869
aS'/pnfs/uboone/data/uboone/larlite_reco2d/prod_v08_00_00_01/data_extbnb_reco1_mcc9/extbnb_C2/00/00/73/93/larlite_reco2d_acb64071-09ed-4e33-87c8-e674386ed512.root'
p870
aS'/pnfs/uboone/data/uboone/larlite_reco2d/prod_v08_00_00_01/data_extbnb_reco1_mcc9/extbnb_C2/00/00/74/00/larlite_reco2d_67eb015a-ec66-46f5-8d78-80edca3f7901.root'
p871
aS'/pnfs/uboone/data/uboone/larlite_reco2d/prod_v08_00_00_01/data_extbnb_reco1_mcc9/extbnb_C2/00/00/74/63/larlite_reco2d_b7b00b6b-da44-40d0-833d-4a55d14607fc.root'
p872
aS'/pnfs/uboone/data/uboone/larlite_reco2d/prod_v08_00_00_01/data_extbnb_reco1_mcc9/extbnb_C2/00/00/74/03/larlite_reco2d_47ad9a02-5788-4613-9593-3593d436faa0.root'
p873
aS'/pnfs/uboone/data/uboone/larlite_reco2d/prod_v08_00_00_01/data_extbnb_reco1_mcc9/extbnb_C2/00/00/73/94/larlite_reco2d_c89f954d-331c-4b37-ae18-21ee2db6d6a8.root'
p874
aS'/pnfs/uboone/data/uboone/larlite_reco2d/prod_v08_00_00_01/data_extbnb_reco1_mcc9/extbnb_C2/00/00/74/71/larlite_reco2d_6a83937e-a2d0-419b-a1a8-99cbf4d081d9.root'
p875
aS'/pnfs/uboone/data/uboone/larlite_reco2d/prod_v08_00_00_01/data_extbnb_reco1_mcc9/extbnb_C2/00/00/74/73/larlite_reco2d_c4091e71-ce72-4ff6-a682-0ae67bd76156.root'
p876
aS'/pnfs/uboone/data/uboone/larlite_reco2d/prod_v08_00_00_01/data_extbnb_reco1_mcc9/extbnb_C2/00/00/74/17/larlite_reco2d_c079e6fb-3423-40ba-8577-1d244ec15eff.root'
p877
aS'/pnfs/uboone/data/uboone/larlite_reco2d/prod_v08_00_00_01/data_extbnb_reco1_mcc9/extbnb_C2/00/00/74/61/larlite_reco2d_762be819-93aa-4763-8f3d-725dca7482ff.root'
p878
aS'/pnfs/uboone/data/uboone/larlite_reco2d/prod_v08_00_00_01/data_extbnb_reco1_mcc9/extbnb_C2/00/00/74/61/larlite_reco2d_c19802cd-d144-4f29-90b0-edc6d680d90e.root'
p879
aS'/pnfs/uboone/data/uboone/larlite_reco2d/prod_v08_00_00_01/data_extbnb_reco1_mcc9/extbnb_C2/00/00/74/69/larlite_reco2d_a7fc7dcb-689e-456d-a011-0aa57ac26cd9.root'
p880
aS'/pnfs/uboone/data/uboone/larlite_reco2d/prod_v08_00_00_01/data_extbnb_reco1_mcc9/extbnb_C2/00/00/74/00/larlite_reco2d_e1c9abe7-ba5f-4c7e-bb6f-c182379b85f0.root'
p881
aS'/pnfs/uboone/data/uboone/larlite_reco2d/prod_v08_00_00_01/data_extbnb_reco1_mcc9/extbnb_C2/00/00/74/19/larlite_reco2d_55ab8573-34d4-4566-ba01-2355fe6848ce.root'
p882
aS'/pnfs/uboone/data/uboone/larlite_reco2d/prod_v08_00_00_01/data_extbnb_reco1_mcc9/extbnb_C2/00/00/74/55/larlite_reco2d_d08c3163-35fc-4e30-9b99-1bdd3b9c8d63.root'
p883
aS'/pnfs/uboone/data/uboone/larlite_reco2d/prod_v08_00_00_01/data_extbnb_reco1_mcc9/extbnb_C2/00/00/74/69/larlite_reco2d_ed5d427c-6f70-49da-a646-63abc95ddb08.root'
p884
aS'/pnfs/uboone/data/uboone/larlite_reco2d/prod_v08_00_00_01/data_extbnb_reco1_mcc9/extbnb_C2/00/00/74/73/larlite_reco2d_221afe11-d15d-4535-8960-5681bbee9c74.root'
p885
aS'/pnfs/uboone/data/uboone/larlite_reco2d/prod_v08_00_00_01/data_extbnb_reco1_mcc9/extbnb_C2/00/00/74/68/larlite_reco2d_0de428bc-6c52-47f9-b253-bbf5b6c2763d.root'
p886
aS'/pnfs/uboone/data/uboone/larlite_reco2d/prod_v08_00_00_01/data_extbnb_reco1_mcc9/extbnb_C2/00/00/74/59/larlite_reco2d_d865f984-932e-482b-b3e1-afb19ca2ded8.root'
p887
aS'/pnfs/uboone/data/uboone/larlite_reco2d/prod_v08_00_00_01/data_extbnb_reco1_mcc9/extbnb_C2/00/00/74/57/larlite_reco2d_9f0c661d-32ea-4bf6-a395-42a0cb0067a9.root'
p888
aS'/pnfs/uboone/data/uboone/larlite_reco2d/prod_v08_00_00_01/data_extbnb_reco1_mcc9/extbnb_C2/00/00/74/61/larlite_reco2d_4c25dea4-18bc-41e2-944b-8890c2cafc45.root'
p889
aS'/pnfs/uboone/data/uboone/larlite_reco2d/prod_v08_00_00_01/data_extbnb_reco1_mcc9/extbnb_C2/00/00/74/03/larlite_reco2d_6e6b414d-6779-4eb8-aa28-9d6575bbc2b4.root'
p890
aS'/pnfs/uboone/data/uboone/larlite_reco2d/prod_v08_00_00_01/data_extbnb_reco1_mcc9/extbnb_C2/00/00/73/97/larlite_reco2d_a9814b25-2aea-4487-8368-abfa2fcd6dec.root'
p891
aS'/pnfs/uboone/data/uboone/larlite_reco2d/prod_v08_00_00_01/data_extbnb_reco1_mcc9/extbnb_C2/00/00/74/00/larlite_reco2d_2342ea8d-db91-488c-a27b-e651cb2c5ac2.root'
p892
aS'/pnfs/uboone/data/uboone/larlite_reco2d/prod_v08_00_00_01/data_extbnb_reco1_mcc9/extbnb_C2/00/00/73/49/larlite_reco2d_4c89458e-666e-404e-9812-f97431b59d7e.root'
p893
aS'/pnfs/uboone/data/uboone/larlite_reco2d/prod_v08_00_00_01/data_extbnb_reco1_mcc9/extbnb_C2/00/00/74/20/larlite_reco2d_62578ec3-9763-4fc7-9839-6aad48831ccb.root'
p894
aS'/pnfs/uboone/data/uboone/larlite_reco2d/prod_v08_00_00_01/data_extbnb_reco1_mcc9/extbnb_C2/00/00/73/93/larlite_reco2d_9492850e-d874-4640-a06f-a868fa2cbdbd.root'
p895
aS'/pnfs/uboone/data/uboone/larlite_reco2d/prod_v08_00_00_01/data_extbnb_reco1_mcc9/extbnb_C2/00/00/74/03/larlite_reco2d_09176281-05a7-4dfd-9469-c6724fb0eb33.root'
p896
aS'/pnfs/uboone/data/uboone/larlite_reco2d/prod_v08_00_00_01/data_extbnb_reco1_mcc9/extbnb_C2/00/00/74/57/larlite_reco2d_e10bcd90-319c-41cc-9cec-68115cdae520.root'
p897
aS'/pnfs/uboone/data/uboone/larlite_reco2d/prod_v08_00_00_01/data_extbnb_reco1_mcc9/extbnb_C2/00/00/74/66/larlite_reco2d_64e3e796-7266-4e7b-9379-65153d231eb4.root'
p898
aS'/pnfs/uboone/data/uboone/larlite_reco2d/prod_v08_00_00_01/data_extbnb_reco1_mcc9/extbnb_C2/00/00/74/15/larlite_reco2d_3ad19afb-62ad-4389-9dcd-453d6677c8c4.root'
p899
aS'/pnfs/uboone/data/uboone/larlite_reco2d/prod_v08_00_00_01/data_extbnb_reco1_mcc9/extbnb_C2/00/00/74/58/larlite_reco2d_5426fb2c-b980-4d16-a573-3bc322635669.root'
p900
aS'/pnfs/uboone/data/uboone/larlite_reco2d/prod_v08_00_00_01/data_extbnb_reco1_mcc9/extbnb_C2/00/00/74/61/larlite_reco2d_eb56ce4b-bb33-4a27-ba7d-737d35098c61.root'
p901
aS'/pnfs/uboone/data/uboone/larlite_reco2d/prod_v08_00_00_01/data_extbnb_reco1_mcc9/extbnb_C2/00/00/73/91/larlite_reco2d_5f68307e-b755-4364-a212-f6bc669478dc.root'
p902
aS'/pnfs/uboone/data/uboone/larlite_reco2d/prod_v08_00_00_01/data_extbnb_reco1_mcc9/extbnb_C2/00/00/74/03/larlite_reco2d_f715c59e-9e9f-49ed-8531-13cd59b6d311.root'
p903
aS'/pnfs/uboone/data/uboone/larlite_reco2d/prod_v08_00_00_01/data_extbnb_reco1_mcc9/extbnb_C2/00/00/73/97/larlite_reco2d_77413706-c631-444b-a98c-dfd26ca13341.root'
p904
aS'/pnfs/uboone/data/uboone/larlite_reco2d/prod_v08_00_00_01/data_extbnb_reco1_mcc9/extbnb_C2/00/00/74/66/larlite_reco2d_e1001cd1-5b31-46c1-9c04-70a8700a4444.root'
p905
aS'/pnfs/uboone/data/uboone/larlite_reco2d/prod_v08_00_00_01/data_extbnb_reco1_mcc9/extbnb_C2/00/00/73/97/larlite_reco2d_4c3a1be9-dee5-492a-84e2-df14ff5e9166.root'
p906
aS'/pnfs/uboone/data/uboone/larlite_reco2d/prod_v08_00_00_01/data_extbnb_reco1_mcc9/extbnb_C2/00/00/74/61/larlite_reco2d_b1c7ecc1-d8e9-4ba0-a473-b665baed7315.root'
p907
aS'/pnfs/uboone/data/uboone/larlite_reco2d/prod_v08_00_00_01/data_extbnb_reco1_mcc9/extbnb_C2/00/00/74/66/larlite_reco2d_f67cd105-f6f6-4290-aeb9-25c1d8634e24.root'
p908
aS'/pnfs/uboone/data/uboone/larlite_reco2d/prod_v08_00_00_01/data_extbnb_reco1_mcc9/extbnb_C2/00/00/74/00/larlite_reco2d_2863c335-944e-43fa-8ba5-36a4adce5f7c.root'
p909
aS'/pnfs/uboone/data/uboone/larlite_reco2d/prod_v08_00_00_01/data_extbnb_reco1_mcc9/extbnb_C2/00/00/74/58/larlite_reco2d_6d99bc10-0566-4775-b340-4c5345017278.root'
p910
aS'/pnfs/uboone/data/uboone/larlite_reco2d/prod_v08_00_00_01/data_extbnb_reco1_mcc9/extbnb_C2/00/00/74/01/larlite_reco2d_cfc7d46a-cea3-48fd-a7ab-e44932c46a19.root'
p911
aS'/pnfs/uboone/data/uboone/larlite_reco2d/prod_v08_00_00_01/data_extbnb_reco1_mcc9/extbnb_C2/00/00/73/94/larlite_reco2d_b148123e-5a71-41bd-a603-91fdef7b16b9.root'
p912
aS'/pnfs/uboone/data/uboone/larlite_reco2d/prod_v08_00_00_01/data_extbnb_reco1_mcc9/extbnb_C2/00/00/73/93/larlite_reco2d_106ce688-fe0e-490d-8acf-3d57a649c796.root'
p913
aS'/pnfs/uboone/data/uboone/larlite_reco2d/prod_v08_00_00_01/data_extbnb_reco1_mcc9/extbnb_C2/00/00/73/91/larlite_reco2d_954b8e0e-7999-4756-a899-98512ff5e60d.root'
p914
aS'/pnfs/uboone/data/uboone/larlite_reco2d/prod_v08_00_00_01/data_extbnb_reco1_mcc9/extbnb_C2/00/00/74/65/larlite_reco2d_f90afa42-834c-445f-9026-6a9dee8a5486.root'
p915
aS'/pnfs/uboone/data/uboone/larlite_reco2d/prod_v08_00_00_01/data_extbnb_reco1_mcc9/extbnb_C2/00/00/74/21/larlite_reco2d_45fa0287-9451-4c08-8a7a-e526719320a9.root'
p916
aS'/pnfs/uboone/data/uboone/larlite_reco2d/prod_v08_00_00_01/data_extbnb_reco1_mcc9/extbnb_C2/00/00/73/91/larlite_reco2d_602f4d7c-f918-4ae6-a541-cb124daf7cab.root'
p917
aS'/pnfs/uboone/data/uboone/larlite_reco2d/prod_v08_00_00_01/data_extbnb_reco1_mcc9/extbnb_C2/00/00/74/20/larlite_reco2d_fc88e37d-f134-46e0-9a35-52ed685b1442.root'
p918
aS'/pnfs/uboone/data/uboone/larlite_reco2d/prod_v08_00_00_01/data_extbnb_reco1_mcc9/extbnb_C2/00/00/73/98/larlite_reco2d_e6f5a27a-94c1-4187-a5b5-2a2936245496.root'
p919
aS'/pnfs/uboone/data/uboone/larlite_reco2d/prod_v08_00_00_01/data_extbnb_reco1_mcc9/extbnb_C2/00/00/74/66/larlite_reco2d_3c7c64b3-deb0-4560-a087-d69f153be929.root'
p920
aS'/pnfs/uboone/data/uboone/larlite_reco2d/prod_v08_00_00_01/data_extbnb_reco1_mcc9/extbnb_C2/00/00/74/57/larlite_reco2d_bbe20945-8eee-42fc-b009-66f253954292.root'
p921
aS'/pnfs/uboone/data/uboone/larlite_reco2d/prod_v08_00_00_01/data_extbnb_reco1_mcc9/extbnb_C2/00/00/73/91/larlite_reco2d_e0cee787-e6f2-487a-81f5-d01586b4051a.root'
p922
aS'/pnfs/uboone/data/uboone/larlite_reco2d/prod_v08_00_00_01/data_extbnb_reco1_mcc9/extbnb_C2/00/00/74/66/larlite_reco2d_68817d84-82c4-48a9-b05f-0fb207655c57.root'
p923
aS'/pnfs/uboone/data/uboone/larlite_reco2d/prod_v08_00_00_01/data_extbnb_reco1_mcc9/extbnb_C2/00/00/74/66/larlite_reco2d_bb671b40-f05e-4e4c-ae6c-ba50f53e23e5.root'
p924
aS'/pnfs/uboone/data/uboone/larlite_reco2d/prod_v08_00_00_01/data_extbnb_reco1_mcc9/extbnb_C2/00/00/74/66/larlite_reco2d_43b34417-81bf-4197-8f39-1f49b39064dc.root'
p925
aS'/pnfs/uboone/data/uboone/larlite_reco2d/prod_v08_00_00_01/data_extbnb_reco1_mcc9/extbnb_C2/00/00/74/73/larlite_reco2d_25be6495-ce9d-45ad-8d6d-fe9b34f0901e.root'
p926
aS'/pnfs/uboone/data/uboone/larlite_reco2d/prod_v08_00_00_01/data_extbnb_reco1_mcc9/extbnb_C2/00/00/74/61/larlite_reco2d_aa3f8ca4-8eec-4462-938e-b807b99ed07e.root'
p927
aS'/pnfs/uboone/data/uboone/larlite_reco2d/prod_v08_00_00_01/data_extbnb_reco1_mcc9/extbnb_C2/00/00/73/93/larlite_reco2d_7c420b5c-af5d-4db7-89fc-42a8ae7838b1.root'
p928
aS'/pnfs/uboone/data/uboone/larlite_reco2d/prod_v08_00_00_01/data_extbnb_reco1_mcc9/extbnb_C2/00/00/73/91/larlite_reco2d_9bd73c88-10bd-4bda-8f3a-f9b9d4237567.root'
p929
aS'/pnfs/uboone/data/uboone/larlite_reco2d/prod_v08_00_00_01/data_extbnb_reco1_mcc9/extbnb_C2/00/00/73/91/larlite_reco2d_3eb1963b-7fa3-4690-996a-48cdcfb9a197.root'
p930
aS'/pnfs/uboone/data/uboone/larlite_reco2d/prod_v08_00_00_01/data_extbnb_reco1_mcc9/extbnb_C2/00/00/74/66/larlite_reco2d_ae6168dd-d6c0-4493-9bbb-83a910fa91f1.root'
p931
aS'/pnfs/uboone/data/uboone/larlite_reco2d/prod_v08_00_00_01/data_extbnb_reco1_mcc9/extbnb_C2/00/00/74/61/larlite_reco2d_5936df93-230a-4137-9d32-a8f673126fe2.root'
p932
aS'/pnfs/uboone/data/uboone/larlite_reco2d/prod_v08_00_00_01/data_extbnb_reco1_mcc9/extbnb_C2/00/00/73/91/larlite_reco2d_237cf9d5-df4d-461a-9e6a-c3d9e4c15de5.root'
p933
aS'/pnfs/uboone/data/uboone/larlite_reco2d/prod_v08_00_00_01/data_extbnb_reco1_mcc9/extbnb_C2/00/00/73/91/larlite_reco2d_67f06376-ab1a-4ef5-8ab0-d5bf8ab513c7.root'
p934
aS'/pnfs/uboone/data/uboone/larlite_reco2d/prod_v08_00_00_01/data_extbnb_reco1_mcc9/extbnb_C2/00/00/74/57/larlite_reco2d_e75cb30c-c0ba-4d20-82f9-a76da86babb1.root'
p935
aS'/pnfs/uboone/data/uboone/larlite_reco2d/prod_v08_00_00_01/data_extbnb_reco1_mcc9/extbnb_C2/00/00/74/00/larlite_reco2d_50efe974-0e1d-4832-859d-dfb7ae82563b.root'
p936
aS'/pnfs/uboone/data/uboone/larlite_reco2d/prod_v08_00_00_01/data_extbnb_reco1_mcc9/extbnb_C2/00/00/73/91/larlite_reco2d_d639fb25-00b1-4129-a17b-dcbd58c66510.root'
p937
aS'/pnfs/uboone/data/uboone/larlite_reco2d/prod_v08_00_00_01/data_extbnb_reco1_mcc9/extbnb_C2/00/00/73/91/larlite_reco2d_8c8d179c-3902-47da-95e1-04c4b040a653.root'
p938
aS'/pnfs/uboone/data/uboone/larlite_reco2d/prod_v08_00_00_01/data_extbnb_reco1_mcc9/extbnb_C2/00/00/74/62/larlite_reco2d_ebd8e03e-dc61-43ed-8288-55ebb5310275.root'
p939
aS'/pnfs/uboone/data/uboone/larlite_reco2d/prod_v08_00_00_01/data_extbnb_reco1_mcc9/extbnb_C2/00/00/73/91/larlite_reco2d_290dcbd1-c737-4642-bbcc-98a4ecf58aa1.root'
p940
aS'/pnfs/uboone/data/uboone/larlite_reco2d/prod_v08_00_00_01/data_extbnb_reco1_mcc9/extbnb_C2/00/00/73/27/larlite_reco2d_b90878f7-817a-4967-a47e-dde57fcb67c6.root'
p941
aS'/pnfs/uboone/data/uboone/larlite_reco2d/prod_v08_00_00_01/data_extbnb_reco1_mcc9/extbnb_C2/00/00/74/00/larlite_reco2d_b07ce02e-2caa-4c19-9785-1ed2abdb6ec4.root'
p942
aS'/pnfs/uboone/data/uboone/larlite_reco2d/prod_v08_00_00_01/data_extbnb_reco1_mcc9/extbnb_C2/00/00/82/91/larlite_reco2d_b0c5538e-247d-4576-87dd-51f23fe6e0d8.root'
p943
aS'/pnfs/uboone/data/uboone/larlite_reco2d/prod_v08_00_00_01/data_extbnb_reco1_mcc9/extbnb_C2/00/00/73/34/larlite_reco2d_5ff4f780-9f9b-4568-9add-fc7da7509687.root'
p944
aS'/pnfs/uboone/data/uboone/larlite_reco2d/prod_v08_00_00_01/data_extbnb_reco1_mcc9/extbnb_C2/00/00/73/91/larlite_reco2d_8bdfc7b3-1941-4f9f-996f-3f539d96c355.root'
p945
aS'/pnfs/uboone/data/uboone/larlite_reco2d/prod_v08_00_00_01/data_extbnb_reco1_mcc9/extbnb_C2/00/00/74/66/larlite_reco2d_bc1dfe11-54c5-4ced-a32c-399e3598c648.root'
p946
aS'/pnfs/uboone/data/uboone/larlite_reco2d/prod_v08_00_00_01/data_extbnb_reco1_mcc9/extbnb_C2/00/00/73/91/larlite_reco2d_b1fe6347-b2ec-48fe-8cb1-75b2f8fe6c1c.root'
p947
aS'/pnfs/uboone/data/uboone/larlite_reco2d/prod_v08_00_00_01/data_extbnb_reco1_mcc9/extbnb_C2/00/00/73/26/larlite_reco2d_b8883eaf-2bca-426f-91c3-fe07486ead6d.root'
p948
aS'/pnfs/uboone/data/uboone/larlite_reco2d/prod_v08_00_00_01/data_extbnb_reco1_mcc9/extbnb_C2/00/00/77/29/larlite_reco2d_f1a396f4-5260-456d-93ef-0d76bcd6d23a.root'
p949
aS'/pnfs/uboone/data/uboone/larlite_reco2d/prod_v08_00_00_01/data_extbnb_reco1_mcc9/extbnb_C2/00/00/83/06/larlite_reco2d_4fa0750a-3c03-4243-a20a-3b28225765eb.root'
p950
aS'/pnfs/uboone/data/uboone/larlite_reco2d/prod_v08_00_00_01/data_extbnb_reco1_mcc9/extbnb_C2/00/00/76/25/larlite_reco2d_bb141b94-c7ac-4fbd-936c-34497821bcd4.root'
p951
aS'/pnfs/uboone/data/uboone/larlite_reco2d/prod_v08_00_00_01/data_extbnb_reco1_mcc9/extbnb_C2/00/00/74/61/larlite_reco2d_80aa46ed-fce3-458c-8318-a53af9fe590d.root'
p952
aS'/pnfs/uboone/data/uboone/larlite_reco2d/prod_v08_00_00_01/data_extbnb_reco1_mcc9/extbnb_C2/00/00/74/57/larlite_reco2d_bd2195a6-d071-4d6f-8f9a-488b5052393e.root'
p953
a.